
STM32_Othello.elf:     file format elf32-littlearm

Sections:
Idx Name          Size      VMA       LMA       File off  Algn
  0 .isr_vector   0000010c  08000000  08000000  00001000  2**0
                  CONTENTS, ALLOC, LOAD, READONLY, DATA
  1 .text         000075f8  0800010c  0800010c  0000110c  2**2
                  CONTENTS, ALLOC, LOAD, READONLY, CODE
  2 .rodata       00000430  08007704  08007704  00008704  2**2
                  CONTENTS, ALLOC, LOAD, READONLY, DATA
  3 .ARM.extab    00000000  08007b34  08007b34  00009084  2**0
                  CONTENTS, READONLY
  4 .ARM          00000008  08007b34  08007b34  00008b34  2**2
                  CONTENTS, ALLOC, LOAD, READONLY, DATA
  5 .preinit_array 00000000  08007b3c  08007b3c  00009084  2**0
                  CONTENTS, ALLOC, LOAD, DATA
  6 .init_array   00000004  08007b3c  08007b3c  00008b3c  2**2
                  CONTENTS, ALLOC, LOAD, READONLY, DATA
  7 .fini_array   00000004  08007b40  08007b40  00008b40  2**2
                  CONTENTS, ALLOC, LOAD, READONLY, DATA
  8 .data         00000084  20000000  08007b44  00009000  2**2
                  CONTENTS, ALLOC, LOAD, DATA
  9 .bss          00001548  20000084  08007bc8  00009084  2**2
                  ALLOC
 10 ._user_heap_stack 00000604  200015cc  08007bc8  000095cc  2**0
                  ALLOC
 11 .ARM.attributes 00000029  00000000  00000000  00009084  2**0
                  CONTENTS, READONLY
 12 .debug_info   00011e7b  00000000  00000000  000090ad  2**0
                  CONTENTS, READONLY, DEBUGGING, OCTETS
 13 .debug_abbrev 00002f51  00000000  00000000  0001af28  2**0
                  CONTENTS, READONLY, DEBUGGING, OCTETS
 14 .debug_aranges 00001180  00000000  00000000  0001de80  2**3
                  CONTENTS, READONLY, DEBUGGING, OCTETS
 15 .debug_rnglists 00000de6  00000000  00000000  0001f000  2**0
                  CONTENTS, READONLY, DEBUGGING, OCTETS
 16 .debug_macro  00019341  00000000  00000000  0001fde6  2**0
                  CONTENTS, READONLY, DEBUGGING, OCTETS
 17 .debug_line   0001512e  00000000  00000000  00039127  2**0
                  CONTENTS, READONLY, DEBUGGING, OCTETS
 18 .debug_str    0008e205  00000000  00000000  0004e255  2**0
                  CONTENTS, READONLY, DEBUGGING, OCTETS
 19 .comment      00000043  00000000  00000000  000dc45a  2**0
                  CONTENTS, READONLY
 20 .debug_frame  00004d98  00000000  00000000  000dc4a0  2**2
                  CONTENTS, READONLY, DEBUGGING, OCTETS
 21 .debug_line_str 00000067  00000000  00000000  000e1238  2**0
                  CONTENTS, READONLY, DEBUGGING, OCTETS

Disassembly of section .text:

0800010c <__do_global_dtors_aux>:
 800010c:	b510      	push	{r4, lr}
 800010e:	4c05      	ldr	r4, [pc, #20]	@ (8000124 <__do_global_dtors_aux+0x18>)
 8000110:	7823      	ldrb	r3, [r4, #0]
 8000112:	b933      	cbnz	r3, 8000122 <__do_global_dtors_aux+0x16>
 8000114:	4b04      	ldr	r3, [pc, #16]	@ (8000128 <__do_global_dtors_aux+0x1c>)
 8000116:	b113      	cbz	r3, 800011e <__do_global_dtors_aux+0x12>
 8000118:	4804      	ldr	r0, [pc, #16]	@ (800012c <__do_global_dtors_aux+0x20>)
 800011a:	f3af 8000 	nop.w
 800011e:	2301      	movs	r3, #1
 8000120:	7023      	strb	r3, [r4, #0]
 8000122:	bd10      	pop	{r4, pc}
 8000124:	20000084 	.word	0x20000084
 8000128:	00000000 	.word	0x00000000
 800012c:	080076ec 	.word	0x080076ec

08000130 <frame_dummy>:
 8000130:	b508      	push	{r3, lr}
 8000132:	4b03      	ldr	r3, [pc, #12]	@ (8000140 <frame_dummy+0x10>)
 8000134:	b11b      	cbz	r3, 800013e <frame_dummy+0xe>
 8000136:	4903      	ldr	r1, [pc, #12]	@ (8000144 <frame_dummy+0x14>)
 8000138:	4803      	ldr	r0, [pc, #12]	@ (8000148 <frame_dummy+0x18>)
 800013a:	f3af 8000 	nop.w
 800013e:	bd08      	pop	{r3, pc}
 8000140:	00000000 	.word	0x00000000
 8000144:	20000088 	.word	0x20000088
 8000148:	080076ec 	.word	0x080076ec

0800014c <strlen>:
 800014c:	4603      	mov	r3, r0
 800014e:	f813 2b01 	ldrb.w	r2, [r3], #1
 8000152:	2a00      	cmp	r2, #0
 8000154:	d1fb      	bne.n	800014e <strlen+0x2>
 8000156:	1a18      	subs	r0, r3, r0
 8000158:	3801      	subs	r0, #1
 800015a:	4770      	bx	lr

0800015c <Challenge_Init>:

/**
 * @brief Initialize challenge mode module
 */
Challenge_Status_t Challenge_Init(void)
{
 800015c:	b580      	push	{r7, lr}
 800015e:	af00      	add	r7, sp, #0
    memset(&g_challenge_ctx, 0, sizeof(Challenge_Context_t));
 8000160:	2214      	movs	r2, #20
 8000162:	2100      	movs	r1, #0
 8000164:	4805      	ldr	r0, [pc, #20]	@ (800017c <Challenge_Init+0x20>)
 8000166:	f006 fe33 	bl	8006dd0 <memset>
    g_challenge_ctx.state = CHALLENGE_STATE_INACTIVE;
 800016a:	4b04      	ldr	r3, [pc, #16]	@ (800017c <Challenge_Init+0x20>)
 800016c:	2200      	movs	r2, #0
 800016e:	701a      	strb	r2, [r3, #0]
    g_challenge_ctx.initialized = true;
 8000170:	4b02      	ldr	r3, [pc, #8]	@ (800017c <Challenge_Init+0x20>)
 8000172:	2201      	movs	r2, #1
 8000174:	741a      	strb	r2, [r3, #16]

    return CHALLENGE_OK;
 8000176:	2300      	movs	r3, #0
}
 8000178:	4618      	mov	r0, r3
 800017a:	bd80      	pop	{r7, pc}
 800017c:	200000a0 	.word	0x200000a0

08000180 <Challenge_Start>:

/**
 * @brief Start new challenge session
 */
Challenge_Status_t Challenge_Start(void)
{
 8000180:	b580      	push	{r7, lr}
 8000182:	af00      	add	r7, sp, #0
    if (!g_challenge_ctx.initialized) {
 8000184:	4b13      	ldr	r3, [pc, #76]	@ (80001d4 <Challenge_Start+0x54>)
 8000186:	7c1b      	ldrb	r3, [r3, #16]
 8000188:	f083 0301 	eor.w	r3, r3, #1
 800018c:	b2db      	uxtb	r3, r3
 800018e:	2b00      	cmp	r3, #0
 8000190:	d001      	beq.n	8000196 <Challenge_Start+0x16>
        return CHALLENGE_ERROR;
 8000192:	2301      	movs	r3, #1
 8000194:	e01c      	b.n	80001d0 <Challenge_Start+0x50>
    }

    // Reset all statistics
    g_challenge_ctx.state = CHALLENGE_STATE_ACTIVE;
 8000196:	4b0f      	ldr	r3, [pc, #60]	@ (80001d4 <Challenge_Start+0x54>)
 8000198:	2201      	movs	r2, #1
 800019a:	701a      	strb	r2, [r3, #0]
    g_challenge_ctx.total_score = 0;
 800019c:	4b0d      	ldr	r3, [pc, #52]	@ (80001d4 <Challenge_Start+0x54>)
 800019e:	2200      	movs	r2, #0
 80001a0:	805a      	strh	r2, [r3, #2]
    g_challenge_ctx.consecutive_losses = 0;
 80001a2:	4b0c      	ldr	r3, [pc, #48]	@ (80001d4 <Challenge_Start+0x54>)
 80001a4:	2200      	movs	r2, #0
 80001a6:	711a      	strb	r2, [r3, #4]
    g_challenge_ctx.games_played = 0;
 80001a8:	4b0a      	ldr	r3, [pc, #40]	@ (80001d4 <Challenge_Start+0x54>)
 80001aa:	2200      	movs	r2, #0
 80001ac:	715a      	strb	r2, [r3, #5]
    g_challenge_ctx.games_won = 0;
 80001ae:	4b09      	ldr	r3, [pc, #36]	@ (80001d4 <Challenge_Start+0x54>)
 80001b0:	2200      	movs	r2, #0
 80001b2:	719a      	strb	r2, [r3, #6]
    g_challenge_ctx.games_lost = 0;
 80001b4:	4b07      	ldr	r3, [pc, #28]	@ (80001d4 <Challenge_Start+0x54>)
 80001b6:	2200      	movs	r2, #0
 80001b8:	71da      	strb	r2, [r3, #7]
    g_challenge_ctx.games_drawn = 0;
 80001ba:	4b06      	ldr	r3, [pc, #24]	@ (80001d4 <Challenge_Start+0x54>)
 80001bc:	2200      	movs	r2, #0
 80001be:	721a      	strb	r2, [r3, #8]
    g_challenge_ctx.start_time = HAL_GetTick();
 80001c0:	f003 fc14 	bl	80039ec <HAL_GetTick>
 80001c4:	4603      	mov	r3, r0
 80001c6:	4a03      	ldr	r2, [pc, #12]	@ (80001d4 <Challenge_Start+0x54>)
 80001c8:	60d3      	str	r3, [r2, #12]

    // Send initial status to PC
    Challenge_SendStatusUpdate();
 80001ca:	f000 f8bd 	bl	8000348 <Challenge_SendStatusUpdate>

    return CHALLENGE_OK;
 80001ce:	2300      	movs	r3, #0
}
 80001d0:	4618      	mov	r0, r3
 80001d2:	bd80      	pop	{r7, pc}
 80001d4:	200000a0 	.word	0x200000a0

080001d8 <Challenge_End>:

/**
 * @brief End current challenge session
 */
Challenge_Status_t Challenge_End(void)
{
 80001d8:	b580      	push	{r7, lr}
 80001da:	af00      	add	r7, sp, #0
    if (!g_challenge_ctx.initialized) {
 80001dc:	4b08      	ldr	r3, [pc, #32]	@ (8000200 <Challenge_End+0x28>)
 80001de:	7c1b      	ldrb	r3, [r3, #16]
 80001e0:	f083 0301 	eor.w	r3, r3, #1
 80001e4:	b2db      	uxtb	r3, r3
 80001e6:	2b00      	cmp	r3, #0
 80001e8:	d001      	beq.n	80001ee <Challenge_End+0x16>
        return CHALLENGE_ERROR;
 80001ea:	2301      	movs	r3, #1
 80001ec:	e005      	b.n	80001fa <Challenge_End+0x22>
    }

    g_challenge_ctx.state = CHALLENGE_STATE_INACTIVE;
 80001ee:	4b04      	ldr	r3, [pc, #16]	@ (8000200 <Challenge_End+0x28>)
 80001f0:	2200      	movs	r2, #0
 80001f2:	701a      	strb	r2, [r3, #0]

    // Send final status to PC
    Challenge_SendStatusUpdate();
 80001f4:	f000 f8a8 	bl	8000348 <Challenge_SendStatusUpdate>

    return CHALLENGE_OK;
 80001f8:	2300      	movs	r3, #0
}
 80001fa:	4618      	mov	r0, r3
 80001fc:	bd80      	pop	{r7, pc}
 80001fe:	bf00      	nop
 8000200:	200000a0 	.word	0x200000a0

08000204 <Challenge_ProcessGameResult>:

/**
 * @brief Process game result and update challenge state
 */
Challenge_Status_t Challenge_ProcessGameResult(const GameState_t* game_state)
{
 8000204:	b580      	push	{r7, lr}
 8000206:	b084      	sub	sp, #16
 8000208:	af00      	add	r7, sp, #0
 800020a:	6078      	str	r0, [r7, #4]
    if (!g_challenge_ctx.initialized || !game_state) {
 800020c:	4b38      	ldr	r3, [pc, #224]	@ (80002f0 <Challenge_ProcessGameResult+0xec>)
 800020e:	7c1b      	ldrb	r3, [r3, #16]
 8000210:	f083 0301 	eor.w	r3, r3, #1
 8000214:	b2db      	uxtb	r3, r3
 8000216:	2b00      	cmp	r3, #0
 8000218:	d102      	bne.n	8000220 <Challenge_ProcessGameResult+0x1c>
 800021a:	687b      	ldr	r3, [r7, #4]
 800021c:	2b00      	cmp	r3, #0
 800021e:	d101      	bne.n	8000224 <Challenge_ProcessGameResult+0x20>
        return CHALLENGE_ERROR;
 8000220:	2301      	movs	r3, #1
 8000222:	e061      	b.n	80002e8 <Challenge_ProcessGameResult+0xe4>
    }

    if (g_challenge_ctx.state != CHALLENGE_STATE_ACTIVE) {
 8000224:	4b32      	ldr	r3, [pc, #200]	@ (80002f0 <Challenge_ProcessGameResult+0xec>)
 8000226:	781b      	ldrb	r3, [r3, #0]
 8000228:	2b01      	cmp	r3, #1
 800022a:	d001      	beq.n	8000230 <Challenge_ProcessGameResult+0x2c>
        return CHALLENGE_ERROR;
 800022c:	2301      	movs	r3, #1
 800022e:	e05b      	b.n	80002e8 <Challenge_ProcessGameResult+0xe4>
    }

    // Increment games played
    g_challenge_ctx.games_played++;
 8000230:	4b2f      	ldr	r3, [pc, #188]	@ (80002f0 <Challenge_ProcessGameResult+0xec>)
 8000232:	795b      	ldrb	r3, [r3, #5]
 8000234:	3301      	adds	r3, #1
 8000236:	b2da      	uxtb	r2, r3
 8000238:	4b2d      	ldr	r3, [pc, #180]	@ (80002f0 <Challenge_ProcessGameResult+0xec>)
 800023a:	715a      	strb	r2, [r3, #5]

    // Determine game result (assuming player is BLACK)
    PieceType_t winner = Othello_GetWinner(game_state);
 800023c:	6878      	ldr	r0, [r7, #4]
 800023e:	f002 f992 	bl	8002566 <Othello_GetWinner>
 8000242:	4603      	mov	r3, r0
 8000244:	73fb      	strb	r3, [r7, #15]
    uint8_t player_score = game_state->black_count;
 8000246:	687b      	ldr	r3, [r7, #4]
 8000248:	f893 3041 	ldrb.w	r3, [r3, #65]	@ 0x41
 800024c:	73bb      	strb	r3, [r7, #14]

    if (winner == PIECE_BLACK) {
 800024e:	7bfb      	ldrb	r3, [r7, #15]
 8000250:	2b01      	cmp	r3, #1
 8000252:	d111      	bne.n	8000278 <Challenge_ProcessGameResult+0x74>
        // Player won
        g_challenge_ctx.games_won++;
 8000254:	4b26      	ldr	r3, [pc, #152]	@ (80002f0 <Challenge_ProcessGameResult+0xec>)
 8000256:	799b      	ldrb	r3, [r3, #6]
 8000258:	3301      	adds	r3, #1
 800025a:	b2da      	uxtb	r2, r3
 800025c:	4b24      	ldr	r3, [pc, #144]	@ (80002f0 <Challenge_ProcessGameResult+0xec>)
 800025e:	719a      	strb	r2, [r3, #6]
        g_challenge_ctx.consecutive_losses = 0;  // Reset consecutive losses
 8000260:	4b23      	ldr	r3, [pc, #140]	@ (80002f0 <Challenge_ProcessGameResult+0xec>)
 8000262:	2200      	movs	r2, #0
 8000264:	711a      	strb	r2, [r3, #4]
        g_challenge_ctx.total_score += player_score;
 8000266:	4b22      	ldr	r3, [pc, #136]	@ (80002f0 <Challenge_ProcessGameResult+0xec>)
 8000268:	885a      	ldrh	r2, [r3, #2]
 800026a:	7bbb      	ldrb	r3, [r7, #14]
 800026c:	b29b      	uxth	r3, r3
 800026e:	4413      	add	r3, r2
 8000270:	b29a      	uxth	r2, r3
 8000272:	4b1f      	ldr	r3, [pc, #124]	@ (80002f0 <Challenge_ProcessGameResult+0xec>)
 8000274:	805a      	strh	r2, [r3, #2]
 8000276:	e020      	b.n	80002ba <Challenge_ProcessGameResult+0xb6>
    } else if (winner == PIECE_WHITE) {
 8000278:	7bfb      	ldrb	r3, [r7, #15]
 800027a:	2b02      	cmp	r3, #2
 800027c:	d10c      	bne.n	8000298 <Challenge_ProcessGameResult+0x94>
        // Player lost
        g_challenge_ctx.games_lost++;
 800027e:	4b1c      	ldr	r3, [pc, #112]	@ (80002f0 <Challenge_ProcessGameResult+0xec>)
 8000280:	79db      	ldrb	r3, [r3, #7]
 8000282:	3301      	adds	r3, #1
 8000284:	b2da      	uxtb	r2, r3
 8000286:	4b1a      	ldr	r3, [pc, #104]	@ (80002f0 <Challenge_ProcessGameResult+0xec>)
 8000288:	71da      	strb	r2, [r3, #7]
        g_challenge_ctx.consecutive_losses++;
 800028a:	4b19      	ldr	r3, [pc, #100]	@ (80002f0 <Challenge_ProcessGameResult+0xec>)
 800028c:	791b      	ldrb	r3, [r3, #4]
 800028e:	3301      	adds	r3, #1
 8000290:	b2da      	uxtb	r2, r3
 8000292:	4b17      	ldr	r3, [pc, #92]	@ (80002f0 <Challenge_ProcessGameResult+0xec>)
 8000294:	711a      	strb	r2, [r3, #4]
 8000296:	e010      	b.n	80002ba <Challenge_ProcessGameResult+0xb6>
        // No score added for losses
    } else {
        // Draw
        g_challenge_ctx.games_drawn++;
 8000298:	4b15      	ldr	r3, [pc, #84]	@ (80002f0 <Challenge_ProcessGameResult+0xec>)
 800029a:	7a1b      	ldrb	r3, [r3, #8]
 800029c:	3301      	adds	r3, #1
 800029e:	b2da      	uxtb	r2, r3
 80002a0:	4b13      	ldr	r3, [pc, #76]	@ (80002f0 <Challenge_ProcessGameResult+0xec>)
 80002a2:	721a      	strb	r2, [r3, #8]
        g_challenge_ctx.consecutive_losses = 0;  // Reset consecutive losses
 80002a4:	4b12      	ldr	r3, [pc, #72]	@ (80002f0 <Challenge_ProcessGameResult+0xec>)
 80002a6:	2200      	movs	r2, #0
 80002a8:	711a      	strb	r2, [r3, #4]
        g_challenge_ctx.total_score += player_score;  // Add score for draw
 80002aa:	4b11      	ldr	r3, [pc, #68]	@ (80002f0 <Challenge_ProcessGameResult+0xec>)
 80002ac:	885a      	ldrh	r2, [r3, #2]
 80002ae:	7bbb      	ldrb	r3, [r7, #14]
 80002b0:	b29b      	uxth	r3, r3
 80002b2:	4413      	add	r3, r2
 80002b4:	b29a      	uxth	r2, r3
 80002b6:	4b0e      	ldr	r3, [pc, #56]	@ (80002f0 <Challenge_ProcessGameResult+0xec>)
 80002b8:	805a      	strh	r2, [r3, #2]
    }

    // Update state based on conditions
    Challenge_UpdateState();
 80002ba:	f000 f867 	bl	800038c <Challenge_UpdateState>

    // Send status update to PC
    Challenge_SendStatusUpdate();
 80002be:	f000 f843 	bl	8000348 <Challenge_SendStatusUpdate>

    // Check for special conditions
    if (g_challenge_ctx.state == CHALLENGE_STATE_WIN) {
 80002c2:	4b0b      	ldr	r3, [pc, #44]	@ (80002f0 <Challenge_ProcessGameResult+0xec>)
 80002c4:	781b      	ldrb	r3, [r3, #0]
 80002c6:	2b02      	cmp	r3, #2
 80002c8:	d104      	bne.n	80002d4 <Challenge_ProcessGameResult+0xd0>
        Challenge_DisplayResult(CHALLENGE_WIN);
 80002ca:	2002      	movs	r0, #2
 80002cc:	f000 f878 	bl	80003c0 <Challenge_DisplayResult>
        return CHALLENGE_WIN;
 80002d0:	2302      	movs	r3, #2
 80002d2:	e009      	b.n	80002e8 <Challenge_ProcessGameResult+0xe4>
    } else if (g_challenge_ctx.state == CHALLENGE_STATE_GAME_OVER) {
 80002d4:	4b06      	ldr	r3, [pc, #24]	@ (80002f0 <Challenge_ProcessGameResult+0xec>)
 80002d6:	781b      	ldrb	r3, [r3, #0]
 80002d8:	2b03      	cmp	r3, #3
 80002da:	d104      	bne.n	80002e6 <Challenge_ProcessGameResult+0xe2>
        Challenge_DisplayResult(CHALLENGE_GAME_OVER);
 80002dc:	2003      	movs	r0, #3
 80002de:	f000 f86f 	bl	80003c0 <Challenge_DisplayResult>
        return CHALLENGE_GAME_OVER;
 80002e2:	2303      	movs	r3, #3
 80002e4:	e000      	b.n	80002e8 <Challenge_ProcessGameResult+0xe4>
    }

    return CHALLENGE_OK;
 80002e6:	2300      	movs	r3, #0
}
 80002e8:	4618      	mov	r0, r3
 80002ea:	3710      	adds	r7, #16
 80002ec:	46bd      	mov	sp, r7
 80002ee:	bd80      	pop	{r7, pc}
 80002f0:	200000a0 	.word	0x200000a0

080002f4 <Challenge_GetState>:

/**
 * @brief Get current challenge state
 */
Challenge_State_t Challenge_GetState(void)
{
 80002f4:	b480      	push	{r7}
 80002f6:	af00      	add	r7, sp, #0
    return g_challenge_ctx.state;
 80002f8:	4b02      	ldr	r3, [pc, #8]	@ (8000304 <Challenge_GetState+0x10>)
 80002fa:	781b      	ldrb	r3, [r3, #0]
}
 80002fc:	4618      	mov	r0, r3
 80002fe:	46bd      	mov	sp, r7
 8000300:	bc80      	pop	{r7}
 8000302:	4770      	bx	lr
 8000304:	200000a0 	.word	0x200000a0

08000308 <Challenge_IsWinConditionMet>:

/**
 * @brief Check if win condition is met
 */
bool Challenge_IsWinConditionMet(void)
{
 8000308:	b480      	push	{r7}
 800030a:	af00      	add	r7, sp, #0
    return (g_challenge_ctx.total_score >= CHALLENGE_WIN_SCORE);
 800030c:	4b05      	ldr	r3, [pc, #20]	@ (8000324 <Challenge_IsWinConditionMet+0x1c>)
 800030e:	885b      	ldrh	r3, [r3, #2]
 8000310:	2b31      	cmp	r3, #49	@ 0x31
 8000312:	bf8c      	ite	hi
 8000314:	2301      	movhi	r3, #1
 8000316:	2300      	movls	r3, #0
 8000318:	b2db      	uxtb	r3, r3
}
 800031a:	4618      	mov	r0, r3
 800031c:	46bd      	mov	sp, r7
 800031e:	bc80      	pop	{r7}
 8000320:	4770      	bx	lr
 8000322:	bf00      	nop
 8000324:	200000a0 	.word	0x200000a0

08000328 <Challenge_IsGameOverConditionMet>:

/**
 * @brief Check if game over condition is met
 */
bool Challenge_IsGameOverConditionMet(void)
{
 8000328:	b480      	push	{r7}
 800032a:	af00      	add	r7, sp, #0
    return (g_challenge_ctx.consecutive_losses >= CHALLENGE_MAX_LOSSES);
 800032c:	4b05      	ldr	r3, [pc, #20]	@ (8000344 <Challenge_IsGameOverConditionMet+0x1c>)
 800032e:	791b      	ldrb	r3, [r3, #4]
 8000330:	2b01      	cmp	r3, #1
 8000332:	bf8c      	ite	hi
 8000334:	2301      	movhi	r3, #1
 8000336:	2300      	movls	r3, #0
 8000338:	b2db      	uxtb	r3, r3
}
 800033a:	4618      	mov	r0, r3
 800033c:	46bd      	mov	sp, r7
 800033e:	bc80      	pop	{r7}
 8000340:	4770      	bx	lr
 8000342:	bf00      	nop
 8000344:	200000a0 	.word	0x200000a0

08000348 <Challenge_SendStatusUpdate>:

/**
 * @brief Send challenge status update to PC
 */
Challenge_Status_t Challenge_SendStatusUpdate(void)
{
 8000348:	b580      	push	{r7, lr}
 800034a:	b082      	sub	sp, #8
 800034c:	af00      	add	r7, sp, #0
    // Use CMD_SCORE_UPDATE to send challenge status
    // game_result: 0=ongoing, 1=win, 2=game_over
    uint8_t game_result = 0;
 800034e:	2300      	movs	r3, #0
 8000350:	71fb      	strb	r3, [r7, #7]
    if (g_challenge_ctx.state == CHALLENGE_STATE_WIN) {
 8000352:	4b0d      	ldr	r3, [pc, #52]	@ (8000388 <Challenge_SendStatusUpdate+0x40>)
 8000354:	781b      	ldrb	r3, [r3, #0]
 8000356:	2b02      	cmp	r3, #2
 8000358:	d102      	bne.n	8000360 <Challenge_SendStatusUpdate+0x18>
        game_result = 1;
 800035a:	2301      	movs	r3, #1
 800035c:	71fb      	strb	r3, [r7, #7]
 800035e:	e005      	b.n	800036c <Challenge_SendStatusUpdate+0x24>
    } else if (g_challenge_ctx.state == CHALLENGE_STATE_GAME_OVER) {
 8000360:	4b09      	ldr	r3, [pc, #36]	@ (8000388 <Challenge_SendStatusUpdate+0x40>)
 8000362:	781b      	ldrb	r3, [r3, #0]
 8000364:	2b03      	cmp	r3, #3
 8000366:	d101      	bne.n	800036c <Challenge_SendStatusUpdate+0x24>
        game_result = 2;
 8000368:	2302      	movs	r3, #2
 800036a:	71fb      	strb	r3, [r7, #7]
    }

    Protocol_SendScoreUpdate(
 800036c:	4b06      	ldr	r3, [pc, #24]	@ (8000388 <Challenge_SendStatusUpdate+0x40>)
 800036e:	7998      	ldrb	r0, [r3, #6]
 8000370:	4b05      	ldr	r3, [pc, #20]	@ (8000388 <Challenge_SendStatusUpdate+0x40>)
 8000372:	79d9      	ldrb	r1, [r3, #7]
 8000374:	4b04      	ldr	r3, [pc, #16]	@ (8000388 <Challenge_SendStatusUpdate+0x40>)
 8000376:	885a      	ldrh	r2, [r3, #2]
 8000378:	79fb      	ldrb	r3, [r7, #7]
 800037a:	f003 f882 	bl	8003482 <Protocol_SendScoreUpdate>
        g_challenge_ctx.games_lost,
        g_challenge_ctx.total_score,
        game_result
    );

    return CHALLENGE_OK;
 800037e:	2300      	movs	r3, #0
}
 8000380:	4618      	mov	r0, r3
 8000382:	3708      	adds	r7, #8
 8000384:	46bd      	mov	sp, r7
 8000386:	bd80      	pop	{r7, pc}
 8000388:	200000a0 	.word	0x200000a0

0800038c <Challenge_UpdateState>:

/**
 * @brief Update challenge state based on conditions
 */
static void Challenge_UpdateState(void)
{
 800038c:	b580      	push	{r7, lr}
 800038e:	af00      	add	r7, sp, #0
    // Check win condition first
    if (Challenge_IsWinConditionMet()) {
 8000390:	f7ff ffba 	bl	8000308 <Challenge_IsWinConditionMet>
 8000394:	4603      	mov	r3, r0
 8000396:	2b00      	cmp	r3, #0
 8000398:	d003      	beq.n	80003a2 <Challenge_UpdateState+0x16>
        g_challenge_ctx.state = CHALLENGE_STATE_WIN;
 800039a:	4b08      	ldr	r3, [pc, #32]	@ (80003bc <Challenge_UpdateState+0x30>)
 800039c:	2202      	movs	r2, #2
 800039e:	701a      	strb	r2, [r3, #0]
        return;
 80003a0:	e00b      	b.n	80003ba <Challenge_UpdateState+0x2e>
    }

    // Check game over condition
    if (Challenge_IsGameOverConditionMet()) {
 80003a2:	f7ff ffc1 	bl	8000328 <Challenge_IsGameOverConditionMet>
 80003a6:	4603      	mov	r3, r0
 80003a8:	2b00      	cmp	r3, #0
 80003aa:	d003      	beq.n	80003b4 <Challenge_UpdateState+0x28>
        g_challenge_ctx.state = CHALLENGE_STATE_GAME_OVER;
 80003ac:	4b03      	ldr	r3, [pc, #12]	@ (80003bc <Challenge_UpdateState+0x30>)
 80003ae:	2203      	movs	r2, #3
 80003b0:	701a      	strb	r2, [r3, #0]
        return;
 80003b2:	e002      	b.n	80003ba <Challenge_UpdateState+0x2e>
    }

    // Otherwise remain active
    g_challenge_ctx.state = CHALLENGE_STATE_ACTIVE;
 80003b4:	4b01      	ldr	r3, [pc, #4]	@ (80003bc <Challenge_UpdateState+0x30>)
 80003b6:	2201      	movs	r2, #1
 80003b8:	701a      	strb	r2, [r3, #0]
}
 80003ba:	bd80      	pop	{r7, pc}
 80003bc:	200000a0 	.word	0x200000a0

080003c0 <Challenge_DisplayResult>:

/**
 * @brief Display result on LED matrix
 */
static void Challenge_DisplayResult(Challenge_Status_t result)
{
 80003c0:	b580      	push	{r7, lr}
 80003c2:	b084      	sub	sp, #16
 80003c4:	af00      	add	r7, sp, #0
 80003c6:	4603      	mov	r3, r0
 80003c8:	71fb      	strb	r3, [r7, #7]
    if (result == CHALLENGE_WIN) {
 80003ca:	79fb      	ldrb	r3, [r7, #7]
 80003cc:	2b02      	cmp	r3, #2
 80003ce:	d10c      	bne.n	80003ea <Challenge_DisplayResult+0x2a>
        // Display "WIN" on LED matrix (Plan A: sequential character display)
        LED_Text_Display_Sequential("WIN", WS2812B_COLOR_GREEN, 1000);
 80003d0:	2300      	movs	r3, #0
 80003d2:	733b      	strb	r3, [r7, #12]
 80003d4:	23ff      	movs	r3, #255	@ 0xff
 80003d6:	737b      	strb	r3, [r7, #13]
 80003d8:	2300      	movs	r3, #0
 80003da:	73bb      	strb	r3, [r7, #14]
 80003dc:	f44f 727a 	mov.w	r2, #1000	@ 0x3e8
 80003e0:	68f9      	ldr	r1, [r7, #12]
 80003e2:	480b      	ldr	r0, [pc, #44]	@ (8000410 <Challenge_DisplayResult+0x50>)
 80003e4:	f000 fd94 	bl	8000f10 <LED_Text_Display_Sequential>
    } else if (result == CHALLENGE_GAME_OVER) {
        // Display "OVER" on LED matrix (Plan A: sequential character display)
        LED_Text_Display_Sequential("OVER", WS2812B_COLOR_RED, 1000);
    }
}
 80003e8:	e00e      	b.n	8000408 <Challenge_DisplayResult+0x48>
    } else if (result == CHALLENGE_GAME_OVER) {
 80003ea:	79fb      	ldrb	r3, [r7, #7]
 80003ec:	2b03      	cmp	r3, #3
 80003ee:	d10b      	bne.n	8000408 <Challenge_DisplayResult+0x48>
        LED_Text_Display_Sequential("OVER", WS2812B_COLOR_RED, 1000);
 80003f0:	23ff      	movs	r3, #255	@ 0xff
 80003f2:	723b      	strb	r3, [r7, #8]
 80003f4:	2300      	movs	r3, #0
 80003f6:	727b      	strb	r3, [r7, #9]
 80003f8:	2300      	movs	r3, #0
 80003fa:	72bb      	strb	r3, [r7, #10]
 80003fc:	f44f 727a 	mov.w	r2, #1000	@ 0x3e8
 8000400:	68b9      	ldr	r1, [r7, #8]
 8000402:	4804      	ldr	r0, [pc, #16]	@ (8000414 <Challenge_DisplayResult+0x54>)
 8000404:	f000 fd84 	bl	8000f10 <LED_Text_Display_Sequential>
}
 8000408:	bf00      	nop
 800040a:	3710      	adds	r7, #16
 800040c:	46bd      	mov	sp, r7
 800040e:	bd80      	pop	{r7, pc}
 8000410:	08007704 	.word	0x08007704
 8000414:	08007708 	.word	0x08007708

08000418 <Game_Control_Init>:

/**
 * @brief Initialize game control module
 */
Game_Control_Status_t Game_Control_Init(void)
{
 8000418:	b580      	push	{r7, lr}
 800041a:	af00      	add	r7, sp, #0
    if (game_ctrl_ctx.initialized) {
 800041c:	4b0d      	ldr	r3, [pc, #52]	@ (8000454 <Game_Control_Init+0x3c>)
 800041e:	7c1b      	ldrb	r3, [r3, #16]
 8000420:	2b00      	cmp	r3, #0
 8000422:	d001      	beq.n	8000428 <Game_Control_Init+0x10>
        return GAME_CTRL_OK;
 8000424:	2300      	movs	r3, #0
 8000426:	e013      	b.n	8000450 <Game_Control_Init+0x38>
    }

    // Initialize context
    memset(&game_ctrl_ctx, 0, sizeof(Game_Control_Context_t));
 8000428:	2214      	movs	r2, #20
 800042a:	2100      	movs	r1, #0
 800042c:	4809      	ldr	r0, [pc, #36]	@ (8000454 <Game_Control_Init+0x3c>)
 800042e:	f006 fccf 	bl	8006dd0 <memset>
    game_ctrl_ctx.state = GAME_CTRL_STATE_IDLE;
 8000432:	4b08      	ldr	r3, [pc, #32]	@ (8000454 <Game_Control_Init+0x3c>)
 8000434:	2200      	movs	r2, #0
 8000436:	701a      	strb	r2, [r3, #0]
    game_ctrl_ctx.prev_state = GAME_CTRL_STATE_IDLE;
 8000438:	4b06      	ldr	r3, [pc, #24]	@ (8000454 <Game_Control_Init+0x3c>)
 800043a:	2200      	movs	r2, #0
 800043c:	705a      	strb	r2, [r3, #1]
    game_ctrl_ctx.state_enter_time = HAL_GetTick();
 800043e:	f003 fad5 	bl	80039ec <HAL_GetTick>
 8000442:	4603      	mov	r3, r0
 8000444:	4a03      	ldr	r2, [pc, #12]	@ (8000454 <Game_Control_Init+0x3c>)
 8000446:	6053      	str	r3, [r2, #4]
    game_ctrl_ctx.initialized = true;
 8000448:	4b02      	ldr	r3, [pc, #8]	@ (8000454 <Game_Control_Init+0x3c>)
 800044a:	2201      	movs	r2, #1
 800044c:	741a      	strb	r2, [r3, #16]

    return GAME_CTRL_OK;
 800044e:	2300      	movs	r3, #0
}
 8000450:	4618      	mov	r0, r3
 8000452:	bd80      	pop	{r7, pc}
 8000454:	200000b4 	.word	0x200000b4

08000458 <Game_Control_Start>:

/**
 * @brief Start new game
 */
Game_Control_Status_t Game_Control_Start(GameState_t* game_state)
{
 8000458:	b580      	push	{r7, lr}
 800045a:	b082      	sub	sp, #8
 800045c:	af00      	add	r7, sp, #0
 800045e:	6078      	str	r0, [r7, #4]
    if (!game_ctrl_ctx.initialized || !game_state) {
 8000460:	4b14      	ldr	r3, [pc, #80]	@ (80004b4 <Game_Control_Start+0x5c>)
 8000462:	7c1b      	ldrb	r3, [r3, #16]
 8000464:	f083 0301 	eor.w	r3, r3, #1
 8000468:	b2db      	uxtb	r3, r3
 800046a:	2b00      	cmp	r3, #0
 800046c:	d102      	bne.n	8000474 <Game_Control_Start+0x1c>
 800046e:	687b      	ldr	r3, [r7, #4]
 8000470:	2b00      	cmp	r3, #0
 8000472:	d101      	bne.n	8000478 <Game_Control_Start+0x20>
        return GAME_CTRL_ERROR;
 8000474:	2301      	movs	r3, #1
 8000476:	e018      	b.n	80004aa <Game_Control_Start+0x52>
    }

    // Can only start from IDLE or ENDED state
    if (game_ctrl_ctx.state != GAME_CTRL_STATE_IDLE &&
 8000478:	4b0e      	ldr	r3, [pc, #56]	@ (80004b4 <Game_Control_Start+0x5c>)
 800047a:	781b      	ldrb	r3, [r3, #0]
 800047c:	2b00      	cmp	r3, #0
 800047e:	d005      	beq.n	800048c <Game_Control_Start+0x34>
        game_ctrl_ctx.state != GAME_CTRL_STATE_ENDED) {
 8000480:	4b0c      	ldr	r3, [pc, #48]	@ (80004b4 <Game_Control_Start+0x5c>)
 8000482:	781b      	ldrb	r3, [r3, #0]
    if (game_ctrl_ctx.state != GAME_CTRL_STATE_IDLE &&
 8000484:	2b03      	cmp	r3, #3
 8000486:	d001      	beq.n	800048c <Game_Control_Start+0x34>
        return GAME_CTRL_INVALID_STATE;
 8000488:	2302      	movs	r3, #2
 800048a:	e00e      	b.n	80004aa <Game_Control_Start+0x52>
    }

    // Initialize new game
    Othello_NewGame(game_state);
 800048c:	6878      	ldr	r0, [r7, #4]
 800048e:	f001 fefb 	bl	8002288 <Othello_NewGame>

    // Reset pause time tracking
    game_ctrl_ctx.total_pause_time = 0;
 8000492:	4b08      	ldr	r3, [pc, #32]	@ (80004b4 <Game_Control_Start+0x5c>)
 8000494:	2200      	movs	r2, #0
 8000496:	60da      	str	r2, [r3, #12]
    game_ctrl_ctx.pause_start_time = 0;
 8000498:	4b06      	ldr	r3, [pc, #24]	@ (80004b4 <Game_Control_Start+0x5c>)
 800049a:	2200      	movs	r2, #0
 800049c:	609a      	str	r2, [r3, #8]

    // Enter PLAYING state
    Game_Control_EnterState(GAME_CTRL_STATE_PLAYING);
 800049e:	2001      	movs	r0, #1
 80004a0:	f000 f9ac 	bl	80007fc <Game_Control_EnterState>

    // Send state update via protocol
    Game_Control_SendStateUpdate();
 80004a4:	f000 f9c2 	bl	800082c <Game_Control_SendStateUpdate>

    return GAME_CTRL_OK;
 80004a8:	2300      	movs	r3, #0
}
 80004aa:	4618      	mov	r0, r3
 80004ac:	3708      	adds	r7, #8
 80004ae:	46bd      	mov	sp, r7
 80004b0:	bd80      	pop	{r7, pc}
 80004b2:	bf00      	nop
 80004b4:	200000b4 	.word	0x200000b4

080004b8 <Game_Control_Pause>:

/**
 * @brief Pause game
 */
Game_Control_Status_t Game_Control_Pause(void)
{
 80004b8:	b580      	push	{r7, lr}
 80004ba:	af00      	add	r7, sp, #0
    if (!game_ctrl_ctx.initialized) {
 80004bc:	4b0d      	ldr	r3, [pc, #52]	@ (80004f4 <Game_Control_Pause+0x3c>)
 80004be:	7c1b      	ldrb	r3, [r3, #16]
 80004c0:	f083 0301 	eor.w	r3, r3, #1
 80004c4:	b2db      	uxtb	r3, r3
 80004c6:	2b00      	cmp	r3, #0
 80004c8:	d001      	beq.n	80004ce <Game_Control_Pause+0x16>
        return GAME_CTRL_ERROR;
 80004ca:	2301      	movs	r3, #1
 80004cc:	e010      	b.n	80004f0 <Game_Control_Pause+0x38>
    }

    // Can only pause from PLAYING state
    if (game_ctrl_ctx.state != GAME_CTRL_STATE_PLAYING) {
 80004ce:	4b09      	ldr	r3, [pc, #36]	@ (80004f4 <Game_Control_Pause+0x3c>)
 80004d0:	781b      	ldrb	r3, [r3, #0]
 80004d2:	2b01      	cmp	r3, #1
 80004d4:	d001      	beq.n	80004da <Game_Control_Pause+0x22>
        return GAME_CTRL_INVALID_STATE;
 80004d6:	2302      	movs	r3, #2
 80004d8:	e00a      	b.n	80004f0 <Game_Control_Pause+0x38>
    }

    // Record pause start time
    game_ctrl_ctx.pause_start_time = HAL_GetTick();
 80004da:	f003 fa87 	bl	80039ec <HAL_GetTick>
 80004de:	4603      	mov	r3, r0
 80004e0:	4a04      	ldr	r2, [pc, #16]	@ (80004f4 <Game_Control_Pause+0x3c>)
 80004e2:	6093      	str	r3, [r2, #8]

    // Enter PAUSED state
    Game_Control_EnterState(GAME_CTRL_STATE_PAUSED);
 80004e4:	2002      	movs	r0, #2
 80004e6:	f000 f989 	bl	80007fc <Game_Control_EnterState>

    // Send state update via protocol
    Game_Control_SendStateUpdate();
 80004ea:	f000 f99f 	bl	800082c <Game_Control_SendStateUpdate>

    return GAME_CTRL_OK;
 80004ee:	2300      	movs	r3, #0
}
 80004f0:	4618      	mov	r0, r3
 80004f2:	bd80      	pop	{r7, pc}
 80004f4:	200000b4 	.word	0x200000b4

080004f8 <Game_Control_Resume>:

/**
 * @brief Resume game
 */
Game_Control_Status_t Game_Control_Resume(void)
{
 80004f8:	b580      	push	{r7, lr}
 80004fa:	b082      	sub	sp, #8
 80004fc:	af00      	add	r7, sp, #0
    if (!game_ctrl_ctx.initialized) {
 80004fe:	4b14      	ldr	r3, [pc, #80]	@ (8000550 <Game_Control_Resume+0x58>)
 8000500:	7c1b      	ldrb	r3, [r3, #16]
 8000502:	f083 0301 	eor.w	r3, r3, #1
 8000506:	b2db      	uxtb	r3, r3
 8000508:	2b00      	cmp	r3, #0
 800050a:	d001      	beq.n	8000510 <Game_Control_Resume+0x18>
        return GAME_CTRL_ERROR;
 800050c:	2301      	movs	r3, #1
 800050e:	e01b      	b.n	8000548 <Game_Control_Resume+0x50>
    }

    // Can only resume from PAUSED state
    if (game_ctrl_ctx.state != GAME_CTRL_STATE_PAUSED) {
 8000510:	4b0f      	ldr	r3, [pc, #60]	@ (8000550 <Game_Control_Resume+0x58>)
 8000512:	781b      	ldrb	r3, [r3, #0]
 8000514:	2b02      	cmp	r3, #2
 8000516:	d001      	beq.n	800051c <Game_Control_Resume+0x24>
        return GAME_CTRL_INVALID_STATE;
 8000518:	2302      	movs	r3, #2
 800051a:	e015      	b.n	8000548 <Game_Control_Resume+0x50>
    }

    // Calculate pause duration and add to total
    uint32_t pause_duration = HAL_GetTick() - game_ctrl_ctx.pause_start_time;
 800051c:	f003 fa66 	bl	80039ec <HAL_GetTick>
 8000520:	4602      	mov	r2, r0
 8000522:	4b0b      	ldr	r3, [pc, #44]	@ (8000550 <Game_Control_Resume+0x58>)
 8000524:	689b      	ldr	r3, [r3, #8]
 8000526:	1ad3      	subs	r3, r2, r3
 8000528:	607b      	str	r3, [r7, #4]
    game_ctrl_ctx.total_pause_time += pause_duration;
 800052a:	4b09      	ldr	r3, [pc, #36]	@ (8000550 <Game_Control_Resume+0x58>)
 800052c:	68da      	ldr	r2, [r3, #12]
 800052e:	687b      	ldr	r3, [r7, #4]
 8000530:	4413      	add	r3, r2
 8000532:	4a07      	ldr	r2, [pc, #28]	@ (8000550 <Game_Control_Resume+0x58>)
 8000534:	60d3      	str	r3, [r2, #12]
    game_ctrl_ctx.pause_start_time = 0;
 8000536:	4b06      	ldr	r3, [pc, #24]	@ (8000550 <Game_Control_Resume+0x58>)
 8000538:	2200      	movs	r2, #0
 800053a:	609a      	str	r2, [r3, #8]

    // Enter PLAYING state
    Game_Control_EnterState(GAME_CTRL_STATE_PLAYING);
 800053c:	2001      	movs	r0, #1
 800053e:	f000 f95d 	bl	80007fc <Game_Control_EnterState>

    // Send state update via protocol
    Game_Control_SendStateUpdate();
 8000542:	f000 f973 	bl	800082c <Game_Control_SendStateUpdate>

    return GAME_CTRL_OK;
 8000546:	2300      	movs	r3, #0
}
 8000548:	4618      	mov	r0, r3
 800054a:	3708      	adds	r7, #8
 800054c:	46bd      	mov	sp, r7
 800054e:	bd80      	pop	{r7, pc}
 8000550:	200000b4 	.word	0x200000b4

08000554 <Game_Control_End>:

/**
 * @brief End game
 */
Game_Control_Status_t Game_Control_End(GameState_t* game_state)
{
 8000554:	b580      	push	{r7, lr}
 8000556:	b084      	sub	sp, #16
 8000558:	af00      	add	r7, sp, #0
 800055a:	6078      	str	r0, [r7, #4]
    if (!game_ctrl_ctx.initialized || !game_state) {
 800055c:	4b1e      	ldr	r3, [pc, #120]	@ (80005d8 <Game_Control_End+0x84>)
 800055e:	7c1b      	ldrb	r3, [r3, #16]
 8000560:	f083 0301 	eor.w	r3, r3, #1
 8000564:	b2db      	uxtb	r3, r3
 8000566:	2b00      	cmp	r3, #0
 8000568:	d102      	bne.n	8000570 <Game_Control_End+0x1c>
 800056a:	687b      	ldr	r3, [r7, #4]
 800056c:	2b00      	cmp	r3, #0
 800056e:	d101      	bne.n	8000574 <Game_Control_End+0x20>
        return GAME_CTRL_ERROR;
 8000570:	2301      	movs	r3, #1
 8000572:	e02c      	b.n	80005ce <Game_Control_End+0x7a>
    }

    // Can end from PLAYING or PAUSED state
    if (game_ctrl_ctx.state != GAME_CTRL_STATE_PLAYING &&
 8000574:	4b18      	ldr	r3, [pc, #96]	@ (80005d8 <Game_Control_End+0x84>)
 8000576:	781b      	ldrb	r3, [r3, #0]
 8000578:	2b01      	cmp	r3, #1
 800057a:	d005      	beq.n	8000588 <Game_Control_End+0x34>
        game_ctrl_ctx.state != GAME_CTRL_STATE_PAUSED) {
 800057c:	4b16      	ldr	r3, [pc, #88]	@ (80005d8 <Game_Control_End+0x84>)
 800057e:	781b      	ldrb	r3, [r3, #0]
    if (game_ctrl_ctx.state != GAME_CTRL_STATE_PLAYING &&
 8000580:	2b02      	cmp	r3, #2
 8000582:	d001      	beq.n	8000588 <Game_Control_End+0x34>
        return GAME_CTRL_INVALID_STATE;
 8000584:	2302      	movs	r3, #2
 8000586:	e022      	b.n	80005ce <Game_Control_End+0x7a>
    }

    // If paused, finalize pause time
    if (game_ctrl_ctx.state == GAME_CTRL_STATE_PAUSED) {
 8000588:	4b13      	ldr	r3, [pc, #76]	@ (80005d8 <Game_Control_End+0x84>)
 800058a:	781b      	ldrb	r3, [r3, #0]
 800058c:	2b02      	cmp	r3, #2
 800058e:	d10f      	bne.n	80005b0 <Game_Control_End+0x5c>
        uint32_t pause_duration = HAL_GetTick() - game_ctrl_ctx.pause_start_time;
 8000590:	f003 fa2c 	bl	80039ec <HAL_GetTick>
 8000594:	4602      	mov	r2, r0
 8000596:	4b10      	ldr	r3, [pc, #64]	@ (80005d8 <Game_Control_End+0x84>)
 8000598:	689b      	ldr	r3, [r3, #8]
 800059a:	1ad3      	subs	r3, r2, r3
 800059c:	60fb      	str	r3, [r7, #12]
        game_ctrl_ctx.total_pause_time += pause_duration;
 800059e:	4b0e      	ldr	r3, [pc, #56]	@ (80005d8 <Game_Control_End+0x84>)
 80005a0:	68da      	ldr	r2, [r3, #12]
 80005a2:	68fb      	ldr	r3, [r7, #12]
 80005a4:	4413      	add	r3, r2
 80005a6:	4a0c      	ldr	r2, [pc, #48]	@ (80005d8 <Game_Control_End+0x84>)
 80005a8:	60d3      	str	r3, [r2, #12]
        game_ctrl_ctx.pause_start_time = 0;
 80005aa:	4b0b      	ldr	r3, [pc, #44]	@ (80005d8 <Game_Control_End+0x84>)
 80005ac:	2200      	movs	r2, #0
 80005ae:	609a      	str	r2, [r3, #8]
    }

    // Mark game as ended
    if (game_state->status == GAME_STATUS_PLAYING) {
 80005b0:	687b      	ldr	r3, [r7, #4]
 80005b2:	f893 3043 	ldrb.w	r3, [r3, #67]	@ 0x43
 80005b6:	2b00      	cmp	r3, #0
 80005b8:	d103      	bne.n	80005c2 <Game_Control_End+0x6e>
        // Force game over if still playing
        game_state->status = GAME_STATUS_DRAW;
 80005ba:	687b      	ldr	r3, [r7, #4]
 80005bc:	2203      	movs	r2, #3
 80005be:	f883 2043 	strb.w	r2, [r3, #67]	@ 0x43
    }

    // Enter ENDED state
    Game_Control_EnterState(GAME_CTRL_STATE_ENDED);
 80005c2:	2003      	movs	r0, #3
 80005c4:	f000 f91a 	bl	80007fc <Game_Control_EnterState>

    // Send state update via protocol
    Game_Control_SendStateUpdate();
 80005c8:	f000 f930 	bl	800082c <Game_Control_SendStateUpdate>

    return GAME_CTRL_OK;
 80005cc:	2300      	movs	r3, #0
}
 80005ce:	4618      	mov	r0, r3
 80005d0:	3710      	adds	r7, #16
 80005d2:	46bd      	mov	sp, r7
 80005d4:	bd80      	pop	{r7, pc}
 80005d6:	bf00      	nop
 80005d8:	200000b4 	.word	0x200000b4

080005dc <Game_Control_Reset>:

/**
 * @brief Reset game (return to idle state)
 */
Game_Control_Status_t Game_Control_Reset(GameState_t* game_state)
{
 80005dc:	b580      	push	{r7, lr}
 80005de:	b082      	sub	sp, #8
 80005e0:	af00      	add	r7, sp, #0
 80005e2:	6078      	str	r0, [r7, #4]
    if (!game_ctrl_ctx.initialized || !game_state) {
 80005e4:	4b0f      	ldr	r3, [pc, #60]	@ (8000624 <Game_Control_Reset+0x48>)
 80005e6:	7c1b      	ldrb	r3, [r3, #16]
 80005e8:	f083 0301 	eor.w	r3, r3, #1
 80005ec:	b2db      	uxtb	r3, r3
 80005ee:	2b00      	cmp	r3, #0
 80005f0:	d102      	bne.n	80005f8 <Game_Control_Reset+0x1c>
 80005f2:	687b      	ldr	r3, [r7, #4]
 80005f4:	2b00      	cmp	r3, #0
 80005f6:	d101      	bne.n	80005fc <Game_Control_Reset+0x20>
        return GAME_CTRL_ERROR;
 80005f8:	2301      	movs	r3, #1
 80005fa:	e00e      	b.n	800061a <Game_Control_Reset+0x3e>
    }

    // Can reset from any state
    // Reset game state
    Othello_ResetState(game_state);
 80005fc:	6878      	ldr	r0, [r7, #4]
 80005fe:	f002 f8a6 	bl	800274e <Othello_ResetState>

    // Reset pause time tracking
    game_ctrl_ctx.total_pause_time = 0;
 8000602:	4b08      	ldr	r3, [pc, #32]	@ (8000624 <Game_Control_Reset+0x48>)
 8000604:	2200      	movs	r2, #0
 8000606:	60da      	str	r2, [r3, #12]
    game_ctrl_ctx.pause_start_time = 0;
 8000608:	4b06      	ldr	r3, [pc, #24]	@ (8000624 <Game_Control_Reset+0x48>)
 800060a:	2200      	movs	r2, #0
 800060c:	609a      	str	r2, [r3, #8]

    // Enter IDLE state
    Game_Control_EnterState(GAME_CTRL_STATE_IDLE);
 800060e:	2000      	movs	r0, #0
 8000610:	f000 f8f4 	bl	80007fc <Game_Control_EnterState>

    // Send state update via protocol
    Game_Control_SendStateUpdate();
 8000614:	f000 f90a 	bl	800082c <Game_Control_SendStateUpdate>

    return GAME_CTRL_OK;
 8000618:	2300      	movs	r3, #0
}
 800061a:	4618      	mov	r0, r3
 800061c:	3708      	adds	r7, #8
 800061e:	46bd      	mov	sp, r7
 8000620:	bd80      	pop	{r7, pc}
 8000622:	bf00      	nop
 8000624:	200000b4 	.word	0x200000b4

08000628 <Game_Control_HandleAction>:

/**
 * @brief Handle game control action
 */
Game_Control_Status_t Game_Control_HandleAction(Game_Control_Action_t action, GameState_t* game_state)
{
 8000628:	b580      	push	{r7, lr}
 800062a:	b084      	sub	sp, #16
 800062c:	af00      	add	r7, sp, #0
 800062e:	4603      	mov	r3, r0
 8000630:	6039      	str	r1, [r7, #0]
 8000632:	71fb      	strb	r3, [r7, #7]
    if (!game_ctrl_ctx.initialized || !game_state) {
 8000634:	4b21      	ldr	r3, [pc, #132]	@ (80006bc <Game_Control_HandleAction+0x94>)
 8000636:	7c1b      	ldrb	r3, [r3, #16]
 8000638:	f083 0301 	eor.w	r3, r3, #1
 800063c:	b2db      	uxtb	r3, r3
 800063e:	2b00      	cmp	r3, #0
 8000640:	d102      	bne.n	8000648 <Game_Control_HandleAction+0x20>
 8000642:	683b      	ldr	r3, [r7, #0]
 8000644:	2b00      	cmp	r3, #0
 8000646:	d101      	bne.n	800064c <Game_Control_HandleAction+0x24>
        return GAME_CTRL_ERROR;
 8000648:	2301      	movs	r3, #1
 800064a:	e033      	b.n	80006b4 <Game_Control_HandleAction+0x8c>
    }

    Game_Control_Status_t status = GAME_CTRL_OK;
 800064c:	2300      	movs	r3, #0
 800064e:	73fb      	strb	r3, [r7, #15]

    switch (action) {
 8000650:	79fb      	ldrb	r3, [r7, #7]
 8000652:	3b01      	subs	r3, #1
 8000654:	2b04      	cmp	r3, #4
 8000656:	d829      	bhi.n	80006ac <Game_Control_HandleAction+0x84>
 8000658:	a201      	add	r2, pc, #4	@ (adr r2, 8000660 <Game_Control_HandleAction+0x38>)
 800065a:	f852 f023 	ldr.w	pc, [r2, r3, lsl #2]
 800065e:	bf00      	nop
 8000660:	08000675 	.word	0x08000675
 8000664:	08000681 	.word	0x08000681
 8000668:	0800068b 	.word	0x0800068b
 800066c:	08000695 	.word	0x08000695
 8000670:	080006a1 	.word	0x080006a1
        case GAME_ACTION_START:
            status = Game_Control_Start(game_state);
 8000674:	6838      	ldr	r0, [r7, #0]
 8000676:	f7ff feef 	bl	8000458 <Game_Control_Start>
 800067a:	4603      	mov	r3, r0
 800067c:	73fb      	strb	r3, [r7, #15]
            break;
 800067e:	e018      	b.n	80006b2 <Game_Control_HandleAction+0x8a>

        case GAME_ACTION_PAUSE:
            status = Game_Control_Pause();
 8000680:	f7ff ff1a 	bl	80004b8 <Game_Control_Pause>
 8000684:	4603      	mov	r3, r0
 8000686:	73fb      	strb	r3, [r7, #15]
            break;
 8000688:	e013      	b.n	80006b2 <Game_Control_HandleAction+0x8a>

        case GAME_ACTION_RESUME:
            status = Game_Control_Resume();
 800068a:	f7ff ff35 	bl	80004f8 <Game_Control_Resume>
 800068e:	4603      	mov	r3, r0
 8000690:	73fb      	strb	r3, [r7, #15]
            break;
 8000692:	e00e      	b.n	80006b2 <Game_Control_HandleAction+0x8a>

        case GAME_ACTION_END:
            status = Game_Control_End(game_state);
 8000694:	6838      	ldr	r0, [r7, #0]
 8000696:	f7ff ff5d 	bl	8000554 <Game_Control_End>
 800069a:	4603      	mov	r3, r0
 800069c:	73fb      	strb	r3, [r7, #15]
            break;
 800069e:	e008      	b.n	80006b2 <Game_Control_HandleAction+0x8a>

        case GAME_ACTION_RESET:
            status = Game_Control_Reset(game_state);
 80006a0:	6838      	ldr	r0, [r7, #0]
 80006a2:	f7ff ff9b 	bl	80005dc <Game_Control_Reset>
 80006a6:	4603      	mov	r3, r0
 80006a8:	73fb      	strb	r3, [r7, #15]
            break;
 80006aa:	e002      	b.n	80006b2 <Game_Control_HandleAction+0x8a>

        default:
            status = GAME_CTRL_INVALID_ACTION;
 80006ac:	2303      	movs	r3, #3
 80006ae:	73fb      	strb	r3, [r7, #15]
            break;
 80006b0:	bf00      	nop
    }

    return status;
 80006b2:	7bfb      	ldrb	r3, [r7, #15]
}
 80006b4:	4618      	mov	r0, r3
 80006b6:	3710      	adds	r7, #16
 80006b8:	46bd      	mov	sp, r7
 80006ba:	bd80      	pop	{r7, pc}
 80006bc:	200000b4 	.word	0x200000b4

080006c0 <Game_Control_HandleKey>:

/**
 * @brief Handle keypad input for game control
 */
bool Game_Control_HandleKey(Keypad_LogicalKey_t key, GameState_t* game_state)
{
 80006c0:	b580      	push	{r7, lr}
 80006c2:	b084      	sub	sp, #16
 80006c4:	af00      	add	r7, sp, #0
 80006c6:	4603      	mov	r3, r0
 80006c8:	6039      	str	r1, [r7, #0]
 80006ca:	71fb      	strb	r3, [r7, #7]
    if (!game_ctrl_ctx.initialized || !game_state) {
 80006cc:	4b2f      	ldr	r3, [pc, #188]	@ (800078c <Game_Control_HandleKey+0xcc>)
 80006ce:	7c1b      	ldrb	r3, [r3, #16]
 80006d0:	f083 0301 	eor.w	r3, r3, #1
 80006d4:	b2db      	uxtb	r3, r3
 80006d6:	2b00      	cmp	r3, #0
 80006d8:	d102      	bne.n	80006e0 <Game_Control_HandleKey+0x20>
 80006da:	683b      	ldr	r3, [r7, #0]
 80006dc:	2b00      	cmp	r3, #0
 80006de:	d101      	bne.n	80006e4 <Game_Control_HandleKey+0x24>
        return false;
 80006e0:	2300      	movs	r3, #0
 80006e2:	e04e      	b.n	8000782 <Game_Control_HandleKey+0xc2>
    }

    Game_Control_Status_t status = GAME_CTRL_OK;
 80006e4:	2300      	movs	r3, #0
 80006e6:	73fb      	strb	r3, [r7, #15]
    bool handled = true;
 80006e8:	2301      	movs	r3, #1
 80006ea:	73bb      	strb	r3, [r7, #14]

    switch (key) {
 80006ec:	79fb      	ldrb	r3, [r7, #7]
 80006ee:	2b0f      	cmp	r3, #15
 80006f0:	d83e      	bhi.n	8000770 <Game_Control_HandleKey+0xb0>
 80006f2:	a201      	add	r2, pc, #4	@ (adr r2, 80006f8 <Game_Control_HandleKey+0x38>)
 80006f4:	f852 f023 	ldr.w	pc, [r2, r3, lsl #2]
 80006f8:	08000739 	.word	0x08000739
 80006fc:	08000771 	.word	0x08000771
 8000700:	08000771 	.word	0x08000771
 8000704:	08000771 	.word	0x08000771
 8000708:	08000771 	.word	0x08000771
 800070c:	08000771 	.word	0x08000771
 8000710:	08000771 	.word	0x08000771
 8000714:	08000771 	.word	0x08000771
 8000718:	08000771 	.word	0x08000771
 800071c:	08000771 	.word	0x08000771
 8000720:	08000771 	.word	0x08000771
 8000724:	08000771 	.word	0x08000771
 8000728:	08000745 	.word	0x08000745
 800072c:	08000765 	.word	0x08000765
 8000730:	0800074f 	.word	0x0800074f
 8000734:	08000759 	.word	0x08000759
        case GAME_CTRL_KEY_START:  // Key '1'
            status = Game_Control_Start(game_state);
 8000738:	6838      	ldr	r0, [r7, #0]
 800073a:	f7ff fe8d 	bl	8000458 <Game_Control_Start>
 800073e:	4603      	mov	r3, r0
 8000740:	73fb      	strb	r3, [r7, #15]
            break;
 8000742:	e018      	b.n	8000776 <Game_Control_HandleKey+0xb6>

        case GAME_CTRL_KEY_PAUSE:  // Key '*'
            status = Game_Control_Pause();
 8000744:	f7ff feb8 	bl	80004b8 <Game_Control_Pause>
 8000748:	4603      	mov	r3, r0
 800074a:	73fb      	strb	r3, [r7, #15]
            break;
 800074c:	e013      	b.n	8000776 <Game_Control_HandleKey+0xb6>

        case GAME_CTRL_KEY_RESUME: // Key '#'
            status = Game_Control_Resume();
 800074e:	f7ff fed3 	bl	80004f8 <Game_Control_Resume>
 8000752:	4603      	mov	r3, r0
 8000754:	73fb      	strb	r3, [r7, #15]
            break;
 8000756:	e00e      	b.n	8000776 <Game_Control_HandleKey+0xb6>

        case GAME_CTRL_KEY_END:    // Key 'D'
            status = Game_Control_End(game_state);
 8000758:	6838      	ldr	r0, [r7, #0]
 800075a:	f7ff fefb 	bl	8000554 <Game_Control_End>
 800075e:	4603      	mov	r3, r0
 8000760:	73fb      	strb	r3, [r7, #15]
            break;
 8000762:	e008      	b.n	8000776 <Game_Control_HandleKey+0xb6>

        case GAME_CTRL_KEY_RESET:  // Key '0'
            status = Game_Control_Reset(game_state);
 8000764:	6838      	ldr	r0, [r7, #0]
 8000766:	f7ff ff39 	bl	80005dc <Game_Control_Reset>
 800076a:	4603      	mov	r3, r0
 800076c:	73fb      	strb	r3, [r7, #15]
            break;
 800076e:	e002      	b.n	8000776 <Game_Control_HandleKey+0xb6>

        default:
            handled = false;
 8000770:	2300      	movs	r3, #0
 8000772:	73bb      	strb	r3, [r7, #14]
            break;
 8000774:	bf00      	nop
    }

    // If action failed due to invalid state, still consider key as handled
    // to prevent it from being processed by other handlers
    if (status == GAME_CTRL_INVALID_STATE) {
 8000776:	7bfb      	ldrb	r3, [r7, #15]
 8000778:	2b02      	cmp	r3, #2
 800077a:	d101      	bne.n	8000780 <Game_Control_HandleKey+0xc0>
        handled = true;
 800077c:	2301      	movs	r3, #1
 800077e:	73bb      	strb	r3, [r7, #14]
    }

    return handled;
 8000780:	7bbb      	ldrb	r3, [r7, #14]
}
 8000782:	4618      	mov	r0, r3
 8000784:	3710      	adds	r7, #16
 8000786:	46bd      	mov	sp, r7
 8000788:	bd80      	pop	{r7, pc}
 800078a:	bf00      	nop
 800078c:	200000b4 	.word	0x200000b4

08000790 <Game_Control_GetContext>:

/**
 * @brief Get game control context
 */
const Game_Control_Context_t* Game_Control_GetContext(void)
{
 8000790:	b480      	push	{r7}
 8000792:	af00      	add	r7, sp, #0
    return &game_ctrl_ctx;
 8000794:	4b02      	ldr	r3, [pc, #8]	@ (80007a0 <Game_Control_GetContext+0x10>)
}
 8000796:	4618      	mov	r0, r3
 8000798:	46bd      	mov	sp, r7
 800079a:	bc80      	pop	{r7}
 800079c:	4770      	bx	lr
 800079e:	bf00      	nop
 80007a0:	200000b4 	.word	0x200000b4

080007a4 <Game_Control_GetStateName>:

/**
 * @brief Get state name string (for debugging)
 */
const char* Game_Control_GetStateName(Game_Control_State_t state)
{
 80007a4:	b480      	push	{r7}
 80007a6:	b083      	sub	sp, #12
 80007a8:	af00      	add	r7, sp, #0
 80007aa:	4603      	mov	r3, r0
 80007ac:	71fb      	strb	r3, [r7, #7]
    switch (state) {
 80007ae:	79fb      	ldrb	r3, [r7, #7]
 80007b0:	2b03      	cmp	r3, #3
 80007b2:	d813      	bhi.n	80007dc <Game_Control_GetStateName+0x38>
 80007b4:	a201      	add	r2, pc, #4	@ (adr r2, 80007bc <Game_Control_GetStateName+0x18>)
 80007b6:	f852 f023 	ldr.w	pc, [r2, r3, lsl #2]
 80007ba:	bf00      	nop
 80007bc:	080007cd 	.word	0x080007cd
 80007c0:	080007d1 	.word	0x080007d1
 80007c4:	080007d5 	.word	0x080007d5
 80007c8:	080007d9 	.word	0x080007d9
        case GAME_CTRL_STATE_IDLE:    return "IDLE";
 80007cc:	4b06      	ldr	r3, [pc, #24]	@ (80007e8 <Game_Control_GetStateName+0x44>)
 80007ce:	e006      	b.n	80007de <Game_Control_GetStateName+0x3a>
        case GAME_CTRL_STATE_PLAYING: return "PLAYING";
 80007d0:	4b06      	ldr	r3, [pc, #24]	@ (80007ec <Game_Control_GetStateName+0x48>)
 80007d2:	e004      	b.n	80007de <Game_Control_GetStateName+0x3a>
        case GAME_CTRL_STATE_PAUSED:  return "PAUSED";
 80007d4:	4b06      	ldr	r3, [pc, #24]	@ (80007f0 <Game_Control_GetStateName+0x4c>)
 80007d6:	e002      	b.n	80007de <Game_Control_GetStateName+0x3a>
        case GAME_CTRL_STATE_ENDED:   return "ENDED";
 80007d8:	4b06      	ldr	r3, [pc, #24]	@ (80007f4 <Game_Control_GetStateName+0x50>)
 80007da:	e000      	b.n	80007de <Game_Control_GetStateName+0x3a>
        default:                      return "UNKNOWN";
 80007dc:	4b06      	ldr	r3, [pc, #24]	@ (80007f8 <Game_Control_GetStateName+0x54>)
    }
}
 80007de:	4618      	mov	r0, r3
 80007e0:	370c      	adds	r7, #12
 80007e2:	46bd      	mov	sp, r7
 80007e4:	bc80      	pop	{r7}
 80007e6:	4770      	bx	lr
 80007e8:	08007790 	.word	0x08007790
 80007ec:	08007798 	.word	0x08007798
 80007f0:	080077a0 	.word	0x080077a0
 80007f4:	080077a8 	.word	0x080077a8
 80007f8:	080077b0 	.word	0x080077b0

080007fc <Game_Control_EnterState>:

/**
 * @brief Enter new state (internal state transition)
 */
static void Game_Control_EnterState(Game_Control_State_t new_state)
{
 80007fc:	b580      	push	{r7, lr}
 80007fe:	b082      	sub	sp, #8
 8000800:	af00      	add	r7, sp, #0
 8000802:	4603      	mov	r3, r0
 8000804:	71fb      	strb	r3, [r7, #7]
    game_ctrl_ctx.prev_state = game_ctrl_ctx.state;
 8000806:	4b08      	ldr	r3, [pc, #32]	@ (8000828 <Game_Control_EnterState+0x2c>)
 8000808:	781a      	ldrb	r2, [r3, #0]
 800080a:	4b07      	ldr	r3, [pc, #28]	@ (8000828 <Game_Control_EnterState+0x2c>)
 800080c:	705a      	strb	r2, [r3, #1]
    game_ctrl_ctx.state = new_state;
 800080e:	4a06      	ldr	r2, [pc, #24]	@ (8000828 <Game_Control_EnterState+0x2c>)
 8000810:	79fb      	ldrb	r3, [r7, #7]
 8000812:	7013      	strb	r3, [r2, #0]
    game_ctrl_ctx.state_enter_time = HAL_GetTick();
 8000814:	f003 f8ea 	bl	80039ec <HAL_GetTick>
 8000818:	4603      	mov	r3, r0
 800081a:	4a03      	ldr	r2, [pc, #12]	@ (8000828 <Game_Control_EnterState+0x2c>)
 800081c:	6053      	str	r3, [r2, #4]
}
 800081e:	bf00      	nop
 8000820:	3708      	adds	r7, #8
 8000822:	46bd      	mov	sp, r7
 8000824:	bd80      	pop	{r7, pc}
 8000826:	bf00      	nop
 8000828:	200000b4 	.word	0x200000b4

0800082c <Game_Control_SendStateUpdate>:

/**
 * @brief Send state update via protocol
 */
static void Game_Control_SendStateUpdate(void)
{
 800082c:	b580      	push	{r7, lr}
 800082e:	b090      	sub	sp, #64	@ 0x40
 8000830:	af00      	add	r7, sp, #0
    // Send game control state as debug message
    // In future, can define a dedicated protocol command for state updates
    char msg[64];
    snprintf(msg, sizeof(msg), "Game State: %s", Game_Control_GetStateName(game_ctrl_ctx.state));
 8000832:	4b09      	ldr	r3, [pc, #36]	@ (8000858 <Game_Control_SendStateUpdate+0x2c>)
 8000834:	781b      	ldrb	r3, [r3, #0]
 8000836:	4618      	mov	r0, r3
 8000838:	f7ff ffb4 	bl	80007a4 <Game_Control_GetStateName>
 800083c:	4603      	mov	r3, r0
 800083e:	4638      	mov	r0, r7
 8000840:	4a06      	ldr	r2, [pc, #24]	@ (800085c <Game_Control_SendStateUpdate+0x30>)
 8000842:	2140      	movs	r1, #64	@ 0x40
 8000844:	f006 fa8e 	bl	8006d64 <sniprintf>
    Protocol_SendDebugMessage(msg);
 8000848:	463b      	mov	r3, r7
 800084a:	4618      	mov	r0, r3
 800084c:	f002 fe00 	bl	8003450 <Protocol_SendDebugMessage>
}
 8000850:	bf00      	nop
 8000852:	3740      	adds	r7, #64	@ 0x40
 8000854:	46bd      	mov	sp, r7
 8000856:	bd80      	pop	{r7, pc}
 8000858:	200000b4 	.word	0x200000b4
 800085c:	080077b8 	.word	0x080077b8

08000860 <Keypad_Init>:

/**
 * @brief Initialize keypad driver
 */
Keypad_Status_t Keypad_Init(void)
{
 8000860:	b580      	push	{r7, lr}
 8000862:	b082      	sub	sp, #8
 8000864:	af00      	add	r7, sp, #0
    // Check if already initialized
    if (keypad_driver.initialized) {
 8000866:	4b2c      	ldr	r3, [pc, #176]	@ (8000918 <Keypad_Init+0xb8>)
 8000868:	f893 319c 	ldrb.w	r3, [r3, #412]	@ 0x19c
 800086c:	2b00      	cmp	r3, #0
 800086e:	d001      	beq.n	8000874 <Keypad_Init+0x14>
        return KEYPAD_OK;
 8000870:	2300      	movs	r3, #0
 8000872:	e04c      	b.n	800090e <Keypad_Init+0xae>
    }

    // Initialize driver state
    memset(&keypad_driver, 0, sizeof(Keypad_Driver_t));
 8000874:	f44f 72d0 	mov.w	r2, #416	@ 0x1a0
 8000878:	2100      	movs	r1, #0
 800087a:	4827      	ldr	r0, [pc, #156]	@ (8000918 <Keypad_Init+0xb8>)
 800087c:	f006 faa8 	bl	8006dd0 <memset>

    // Set default configuration
    keypad_driver.debounce_time_ms = KEYPAD_DEBOUNCE_TIME_MS;
 8000880:	4b25      	ldr	r3, [pc, #148]	@ (8000918 <Keypad_Init+0xb8>)
 8000882:	220a      	movs	r2, #10
 8000884:	f8c3 2188 	str.w	r2, [r3, #392]	@ 0x188
    keypad_driver.longpress_time_ms = KEYPAD_LONG_PRESS_TIME_MS;
 8000888:	4b23      	ldr	r3, [pc, #140]	@ (8000918 <Keypad_Init+0xb8>)
 800088a:	f44f 727a 	mov.w	r2, #1000	@ 0x3e8
 800088e:	f8c3 218c 	str.w	r2, [r3, #396]	@ 0x18c

    // Initialize all keys
    for (uint8_t row = 0; row < KEYPAD_ROWS; row++) {
 8000892:	2300      	movs	r3, #0
 8000894:	71fb      	strb	r3, [r7, #7]
 8000896:	e01e      	b.n	80008d6 <Keypad_Init+0x76>
        for (uint8_t col = 0; col < KEYPAD_COLS; col++) {
 8000898:	2300      	movs	r3, #0
 800089a:	71bb      	strb	r3, [r7, #6]
 800089c:	e015      	b.n	80008ca <Keypad_Init+0x6a>
            Keypad_ResetKey(&keypad_driver.keys[row][col], row, col);
 800089e:	79f9      	ldrb	r1, [r7, #7]
 80008a0:	79bb      	ldrb	r3, [r7, #6]
 80008a2:	461a      	mov	r2, r3
 80008a4:	0052      	lsls	r2, r2, #1
 80008a6:	441a      	add	r2, r3
 80008a8:	0093      	lsls	r3, r2, #2
 80008aa:	461a      	mov	r2, r3
 80008ac:	460b      	mov	r3, r1
 80008ae:	005b      	lsls	r3, r3, #1
 80008b0:	440b      	add	r3, r1
 80008b2:	011b      	lsls	r3, r3, #4
 80008b4:	4413      	add	r3, r2
 80008b6:	4a18      	ldr	r2, [pc, #96]	@ (8000918 <Keypad_Init+0xb8>)
 80008b8:	4413      	add	r3, r2
 80008ba:	79ba      	ldrb	r2, [r7, #6]
 80008bc:	79f9      	ldrb	r1, [r7, #7]
 80008be:	4618      	mov	r0, r3
 80008c0:	f000 fa9c 	bl	8000dfc <Keypad_ResetKey>
        for (uint8_t col = 0; col < KEYPAD_COLS; col++) {
 80008c4:	79bb      	ldrb	r3, [r7, #6]
 80008c6:	3301      	adds	r3, #1
 80008c8:	71bb      	strb	r3, [r7, #6]
 80008ca:	79bb      	ldrb	r3, [r7, #6]
 80008cc:	2b03      	cmp	r3, #3
 80008ce:	d9e6      	bls.n	800089e <Keypad_Init+0x3e>
    for (uint8_t row = 0; row < KEYPAD_ROWS; row++) {
 80008d0:	79fb      	ldrb	r3, [r7, #7]
 80008d2:	3301      	adds	r3, #1
 80008d4:	71fb      	strb	r3, [r7, #7]
 80008d6:	79fb      	ldrb	r3, [r7, #7]
 80008d8:	2b03      	cmp	r3, #3
 80008da:	d9dd      	bls.n	8000898 <Keypad_Init+0x38>
        }
    }

    // Set all rows to high (inactive state)
    for (uint8_t row = 0; row < KEYPAD_ROWS; row++) {
 80008dc:	2300      	movs	r3, #0
 80008de:	717b      	strb	r3, [r7, #5]
 80008e0:	e007      	b.n	80008f2 <Keypad_Init+0x92>
        Keypad_SetRowState(row, GPIO_PIN_SET);
 80008e2:	797b      	ldrb	r3, [r7, #5]
 80008e4:	2101      	movs	r1, #1
 80008e6:	4618      	mov	r0, r3
 80008e8:	f000 f9b4 	bl	8000c54 <Keypad_SetRowState>
    for (uint8_t row = 0; row < KEYPAD_ROWS; row++) {
 80008ec:	797b      	ldrb	r3, [r7, #5]
 80008ee:	3301      	adds	r3, #1
 80008f0:	717b      	strb	r3, [r7, #5]
 80008f2:	797b      	ldrb	r3, [r7, #5]
 80008f4:	2b03      	cmp	r3, #3
 80008f6:	d9f4      	bls.n	80008e2 <Keypad_Init+0x82>
    }

    keypad_driver.last_scan_time = HAL_GetTick();
 80008f8:	f003 f878 	bl	80039ec <HAL_GetTick>
 80008fc:	4603      	mov	r3, r0
 80008fe:	4a06      	ldr	r2, [pc, #24]	@ (8000918 <Keypad_Init+0xb8>)
 8000900:	f8c2 3190 	str.w	r3, [r2, #400]	@ 0x190
    keypad_driver.initialized = true;
 8000904:	4b04      	ldr	r3, [pc, #16]	@ (8000918 <Keypad_Init+0xb8>)
 8000906:	2201      	movs	r2, #1
 8000908:	f883 219c 	strb.w	r2, [r3, #412]	@ 0x19c

    return KEYPAD_OK;
 800090c:	2300      	movs	r3, #0
}
 800090e:	4618      	mov	r0, r3
 8000910:	3708      	adds	r7, #8
 8000912:	46bd      	mov	sp, r7
 8000914:	bd80      	pop	{r7, pc}
 8000916:	bf00      	nop
 8000918:	200000c8 	.word	0x200000c8

0800091c <Keypad_Scan>:

/**
 * @brief Perform one keypad scan cycle
 */
void Keypad_Scan(void)
{
 800091c:	b580      	push	{r7, lr}
 800091e:	b086      	sub	sp, #24
 8000920:	af00      	add	r7, sp, #0
    if (!keypad_driver.initialized) {
 8000922:	4b62      	ldr	r3, [pc, #392]	@ (8000aac <Keypad_Scan+0x190>)
 8000924:	f893 319c 	ldrb.w	r3, [r3, #412]	@ 0x19c
 8000928:	f083 0301 	eor.w	r3, r3, #1
 800092c:	b2db      	uxtb	r3, r3
 800092e:	2b00      	cmp	r3, #0
 8000930:	f040 80b7 	bne.w	8000aa2 <Keypad_Scan+0x186>
        return;
    }

    uint32_t current_time = HAL_GetTick();
 8000934:	f003 f85a 	bl	80039ec <HAL_GetTick>
 8000938:	6138      	str	r0, [r7, #16]
    keypad_driver.total_scans++;
 800093a:	4b5c      	ldr	r3, [pc, #368]	@ (8000aac <Keypad_Scan+0x190>)
 800093c:	f8d3 3194 	ldr.w	r3, [r3, #404]	@ 0x194
 8000940:	3301      	adds	r3, #1
 8000942:	4a5a      	ldr	r2, [pc, #360]	@ (8000aac <Keypad_Scan+0x190>)
 8000944:	f8c2 3194 	str.w	r3, [r2, #404]	@ 0x194

    // Scan each row
    for (uint8_t row = 0; row < KEYPAD_ROWS; row++) {
 8000948:	2300      	movs	r3, #0
 800094a:	75fb      	strb	r3, [r7, #23]
 800094c:	e092      	b.n	8000a74 <Keypad_Scan+0x158>
        // Set current row low, others high
        for (uint8_t r = 0; r < KEYPAD_ROWS; r++) {
 800094e:	2300      	movs	r3, #0
 8000950:	75bb      	strb	r3, [r7, #22]
 8000952:	e00f      	b.n	8000974 <Keypad_Scan+0x58>
            Keypad_SetRowState(r, (r == row) ? GPIO_PIN_RESET : GPIO_PIN_SET);
 8000954:	7dba      	ldrb	r2, [r7, #22]
 8000956:	7dfb      	ldrb	r3, [r7, #23]
 8000958:	429a      	cmp	r2, r3
 800095a:	bf14      	ite	ne
 800095c:	2301      	movne	r3, #1
 800095e:	2300      	moveq	r3, #0
 8000960:	b2db      	uxtb	r3, r3
 8000962:	461a      	mov	r2, r3
 8000964:	7dbb      	ldrb	r3, [r7, #22]
 8000966:	4611      	mov	r1, r2
 8000968:	4618      	mov	r0, r3
 800096a:	f000 f973 	bl	8000c54 <Keypad_SetRowState>
        for (uint8_t r = 0; r < KEYPAD_ROWS; r++) {
 800096e:	7dbb      	ldrb	r3, [r7, #22]
 8000970:	3301      	adds	r3, #1
 8000972:	75bb      	strb	r3, [r7, #22]
 8000974:	7dbb      	ldrb	r3, [r7, #22]
 8000976:	2b03      	cmp	r3, #3
 8000978:	d9ec      	bls.n	8000954 <Keypad_Scan+0x38>
        }

        // Allow settling time
        Keypad_DelayUs(KEYPAD_ROW_SETUP_DELAY_US);
 800097a:	2002      	movs	r0, #2
 800097c:	f000 fa5e 	bl	8000e3c <Keypad_DelayUs>

        // Read all columns for this row
        for (uint8_t col = 0; col < KEYPAD_COLS; col++) {
 8000980:	2300      	movs	r3, #0
 8000982:	757b      	strb	r3, [r7, #21]
 8000984:	e070      	b.n	8000a68 <Keypad_Scan+0x14c>
            GPIO_PinState col_state = Keypad_ReadColumn(col);
 8000986:	7d7b      	ldrb	r3, [r7, #21]
 8000988:	4618      	mov	r0, r3
 800098a:	f000 f983 	bl	8000c94 <Keypad_ReadColumn>
 800098e:	4603      	mov	r3, r0
 8000990:	73fb      	strb	r3, [r7, #15]
            bool current_pressed = (col_state == GPIO_PIN_RESET); // Active low
 8000992:	7bfb      	ldrb	r3, [r7, #15]
 8000994:	2b00      	cmp	r3, #0
 8000996:	bf0c      	ite	eq
 8000998:	2301      	moveq	r3, #1
 800099a:	2300      	movne	r3, #0
 800099c:	73bb      	strb	r3, [r7, #14]

            Key_t* key = &keypad_driver.keys[row][col];
 800099e:	7df9      	ldrb	r1, [r7, #23]
 80009a0:	7d7b      	ldrb	r3, [r7, #21]
 80009a2:	461a      	mov	r2, r3
 80009a4:	0052      	lsls	r2, r2, #1
 80009a6:	441a      	add	r2, r3
 80009a8:	0093      	lsls	r3, r2, #2
 80009aa:	461a      	mov	r2, r3
 80009ac:	460b      	mov	r3, r1
 80009ae:	005b      	lsls	r3, r3, #1
 80009b0:	440b      	add	r3, r1
 80009b2:	011b      	lsls	r3, r3, #4
 80009b4:	4413      	add	r3, r2
 80009b6:	4a3d      	ldr	r2, [pc, #244]	@ (8000aac <Keypad_Scan+0x190>)
 80009b8:	4413      	add	r3, r2
 80009ba:	60bb      	str	r3, [r7, #8]

            // Process debouncing and state changes
            if (Keypad_ProcessDebounce(key, current_pressed)) {
 80009bc:	7bbb      	ldrb	r3, [r7, #14]
 80009be:	4619      	mov	r1, r3
 80009c0:	68b8      	ldr	r0, [r7, #8]
 80009c2:	f000 f987 	bl	8000cd4 <Keypad_ProcessDebounce>
 80009c6:	4603      	mov	r3, r0
 80009c8:	2b00      	cmp	r3, #0
 80009ca:	d016      	beq.n	80009fa <Keypad_Scan+0xde>
                // State change detected, add to event queue
                Keypad_AddEvent(key);
 80009cc:	68b8      	ldr	r0, [r7, #8]
 80009ce:	f000 f9c7 	bl	8000d60 <Keypad_AddEvent>
                keypad_driver.total_events++;
 80009d2:	4b36      	ldr	r3, [pc, #216]	@ (8000aac <Keypad_Scan+0x190>)
 80009d4:	f8d3 3198 	ldr.w	r3, [r3, #408]	@ 0x198
 80009d8:	3301      	adds	r3, #1
 80009da:	4a34      	ldr	r2, [pc, #208]	@ (8000aac <Keypad_Scan+0x190>)
 80009dc:	f8c2 3198 	str.w	r3, [r2, #408]	@ 0x198

                // Call user callback if registered
                if (keypad_driver.callback) {
 80009e0:	4b32      	ldr	r3, [pc, #200]	@ (8000aac <Keypad_Scan+0x190>)
 80009e2:	f8d3 3184 	ldr.w	r3, [r3, #388]	@ 0x184
 80009e6:	2b00      	cmp	r3, #0
 80009e8:	d007      	beq.n	80009fa <Keypad_Scan+0xde>
                    keypad_driver.callback(row, col, key->state);
 80009ea:	4b30      	ldr	r3, [pc, #192]	@ (8000aac <Keypad_Scan+0x190>)
 80009ec:	f8d3 3184 	ldr.w	r3, [r3, #388]	@ 0x184
 80009f0:	68ba      	ldr	r2, [r7, #8]
 80009f2:	7892      	ldrb	r2, [r2, #2]
 80009f4:	7d79      	ldrb	r1, [r7, #21]
 80009f6:	7df8      	ldrb	r0, [r7, #23]
 80009f8:	4798      	blx	r3
                }
            }

            // Update long press detection
            if (key->state == KEY_PRESSED && current_pressed) {
 80009fa:	68bb      	ldr	r3, [r7, #8]
 80009fc:	789b      	ldrb	r3, [r3, #2]
 80009fe:	2b01      	cmp	r3, #1
 8000a00:	d12f      	bne.n	8000a62 <Keypad_Scan+0x146>
 8000a02:	7bbb      	ldrb	r3, [r7, #14]
 8000a04:	2b00      	cmp	r3, #0
 8000a06:	d02c      	beq.n	8000a62 <Keypad_Scan+0x146>
                uint32_t press_duration = current_time - key->press_timestamp;
 8000a08:	68bb      	ldr	r3, [r7, #8]
 8000a0a:	685b      	ldr	r3, [r3, #4]
 8000a0c:	693a      	ldr	r2, [r7, #16]
 8000a0e:	1ad3      	subs	r3, r2, r3
 8000a10:	607b      	str	r3, [r7, #4]
                if (press_duration >= keypad_driver.longpress_time_ms &&
 8000a12:	4b26      	ldr	r3, [pc, #152]	@ (8000aac <Keypad_Scan+0x190>)
 8000a14:	f8d3 318c 	ldr.w	r3, [r3, #396]	@ 0x18c
 8000a18:	687a      	ldr	r2, [r7, #4]
 8000a1a:	429a      	cmp	r2, r3
 8000a1c:	d321      	bcc.n	8000a62 <Keypad_Scan+0x146>
                    key->state != KEY_LONG_PRESSED) {
 8000a1e:	68bb      	ldr	r3, [r7, #8]
 8000a20:	789b      	ldrb	r3, [r3, #2]
                if (press_duration >= keypad_driver.longpress_time_ms &&
 8000a22:	2b02      	cmp	r3, #2
 8000a24:	d01d      	beq.n	8000a62 <Keypad_Scan+0x146>

                    key->prev_state = key->state;
 8000a26:	68bb      	ldr	r3, [r7, #8]
 8000a28:	789a      	ldrb	r2, [r3, #2]
 8000a2a:	68bb      	ldr	r3, [r7, #8]
 8000a2c:	70da      	strb	r2, [r3, #3]
                    key->state = KEY_LONG_PRESSED;
 8000a2e:	68bb      	ldr	r3, [r7, #8]
 8000a30:	2202      	movs	r2, #2
 8000a32:	709a      	strb	r2, [r3, #2]

                    Keypad_AddEvent(key);
 8000a34:	68b8      	ldr	r0, [r7, #8]
 8000a36:	f000 f993 	bl	8000d60 <Keypad_AddEvent>
                    keypad_driver.total_events++;
 8000a3a:	4b1c      	ldr	r3, [pc, #112]	@ (8000aac <Keypad_Scan+0x190>)
 8000a3c:	f8d3 3198 	ldr.w	r3, [r3, #408]	@ 0x198
 8000a40:	3301      	adds	r3, #1
 8000a42:	4a1a      	ldr	r2, [pc, #104]	@ (8000aac <Keypad_Scan+0x190>)
 8000a44:	f8c2 3198 	str.w	r3, [r2, #408]	@ 0x198

                    if (keypad_driver.callback) {
 8000a48:	4b18      	ldr	r3, [pc, #96]	@ (8000aac <Keypad_Scan+0x190>)
 8000a4a:	f8d3 3184 	ldr.w	r3, [r3, #388]	@ 0x184
 8000a4e:	2b00      	cmp	r3, #0
 8000a50:	d007      	beq.n	8000a62 <Keypad_Scan+0x146>
                        keypad_driver.callback(row, col, key->state);
 8000a52:	4b16      	ldr	r3, [pc, #88]	@ (8000aac <Keypad_Scan+0x190>)
 8000a54:	f8d3 3184 	ldr.w	r3, [r3, #388]	@ 0x184
 8000a58:	68ba      	ldr	r2, [r7, #8]
 8000a5a:	7892      	ldrb	r2, [r2, #2]
 8000a5c:	7d79      	ldrb	r1, [r7, #21]
 8000a5e:	7df8      	ldrb	r0, [r7, #23]
 8000a60:	4798      	blx	r3
        for (uint8_t col = 0; col < KEYPAD_COLS; col++) {
 8000a62:	7d7b      	ldrb	r3, [r7, #21]
 8000a64:	3301      	adds	r3, #1
 8000a66:	757b      	strb	r3, [r7, #21]
 8000a68:	7d7b      	ldrb	r3, [r7, #21]
 8000a6a:	2b03      	cmp	r3, #3
 8000a6c:	d98b      	bls.n	8000986 <Keypad_Scan+0x6a>
    for (uint8_t row = 0; row < KEYPAD_ROWS; row++) {
 8000a6e:	7dfb      	ldrb	r3, [r7, #23]
 8000a70:	3301      	adds	r3, #1
 8000a72:	75fb      	strb	r3, [r7, #23]
 8000a74:	7dfb      	ldrb	r3, [r7, #23]
 8000a76:	2b03      	cmp	r3, #3
 8000a78:	f67f af69 	bls.w	800094e <Keypad_Scan+0x32>
            }
        }
    }

    // Restore all rows to high
    for (uint8_t row = 0; row < KEYPAD_ROWS; row++) {
 8000a7c:	2300      	movs	r3, #0
 8000a7e:	753b      	strb	r3, [r7, #20]
 8000a80:	e007      	b.n	8000a92 <Keypad_Scan+0x176>
        Keypad_SetRowState(row, GPIO_PIN_SET);
 8000a82:	7d3b      	ldrb	r3, [r7, #20]
 8000a84:	2101      	movs	r1, #1
 8000a86:	4618      	mov	r0, r3
 8000a88:	f000 f8e4 	bl	8000c54 <Keypad_SetRowState>
    for (uint8_t row = 0; row < KEYPAD_ROWS; row++) {
 8000a8c:	7d3b      	ldrb	r3, [r7, #20]
 8000a8e:	3301      	adds	r3, #1
 8000a90:	753b      	strb	r3, [r7, #20]
 8000a92:	7d3b      	ldrb	r3, [r7, #20]
 8000a94:	2b03      	cmp	r3, #3
 8000a96:	d9f4      	bls.n	8000a82 <Keypad_Scan+0x166>
    }

    keypad_driver.last_scan_time = current_time;
 8000a98:	4a04      	ldr	r2, [pc, #16]	@ (8000aac <Keypad_Scan+0x190>)
 8000a9a:	693b      	ldr	r3, [r7, #16]
 8000a9c:	f8c2 3190 	str.w	r3, [r2, #400]	@ 0x190
 8000aa0:	e000      	b.n	8000aa4 <Keypad_Scan+0x188>
        return;
 8000aa2:	bf00      	nop
}
 8000aa4:	3718      	adds	r7, #24
 8000aa6:	46bd      	mov	sp, r7
 8000aa8:	bd80      	pop	{r7, pc}
 8000aaa:	bf00      	nop
 8000aac:	200000c8 	.word	0x200000c8

08000ab0 <Keypad_GetKey>:

/**
 * @brief Get next key event from queue
 */
Key_t Keypad_GetKey(void)
{
 8000ab0:	b490      	push	{r4, r7}
 8000ab2:	b088      	sub	sp, #32
 8000ab4:	af00      	add	r7, sp, #0
 8000ab6:	6078      	str	r0, [r7, #4]
    Key_t empty_key = {0, 0, KEY_RELEASED, KEY_RELEASED, 0, 0};  /* 6 fields: row, col, state, prev_state, press_timestamp, debounce_timer */
 8000ab8:	f107 0314 	add.w	r3, r7, #20
 8000abc:	2200      	movs	r2, #0
 8000abe:	601a      	str	r2, [r3, #0]
 8000ac0:	605a      	str	r2, [r3, #4]
 8000ac2:	609a      	str	r2, [r3, #8]

    if (!keypad_driver.initialized || keypad_driver.queue_count == 0) {
 8000ac4:	4b25      	ldr	r3, [pc, #148]	@ (8000b5c <Keypad_GetKey+0xac>)
 8000ac6:	f893 319c 	ldrb.w	r3, [r3, #412]	@ 0x19c
 8000aca:	f083 0301 	eor.w	r3, r3, #1
 8000ace:	b2db      	uxtb	r3, r3
 8000ad0:	2b00      	cmp	r3, #0
 8000ad2:	d104      	bne.n	8000ade <Keypad_GetKey+0x2e>
 8000ad4:	4b21      	ldr	r3, [pc, #132]	@ (8000b5c <Keypad_GetKey+0xac>)
 8000ad6:	f893 3182 	ldrb.w	r3, [r3, #386]	@ 0x182
 8000ada:	2b00      	cmp	r3, #0
 8000adc:	d108      	bne.n	8000af0 <Keypad_GetKey+0x40>
        return empty_key;
 8000ade:	687b      	ldr	r3, [r7, #4]
 8000ae0:	461c      	mov	r4, r3
 8000ae2:	f107 0314 	add.w	r3, r7, #20
 8000ae6:	e893 0007 	ldmia.w	r3, {r0, r1, r2}
 8000aea:	e884 0007 	stmia.w	r4, {r0, r1, r2}
 8000aee:	e02f      	b.n	8000b50 <Keypad_GetKey+0xa0>
    }

    // Get event from queue
    Key_t event = keypad_driver.event_queue[keypad_driver.queue_tail];
 8000af0:	4b1a      	ldr	r3, [pc, #104]	@ (8000b5c <Keypad_GetKey+0xac>)
 8000af2:	f893 3181 	ldrb.w	r3, [r3, #385]	@ 0x181
 8000af6:	4619      	mov	r1, r3
 8000af8:	4a18      	ldr	r2, [pc, #96]	@ (8000b5c <Keypad_GetKey+0xac>)
 8000afa:	460b      	mov	r3, r1
 8000afc:	005b      	lsls	r3, r3, #1
 8000afe:	440b      	add	r3, r1
 8000b00:	009b      	lsls	r3, r3, #2
 8000b02:	4413      	add	r3, r2
 8000b04:	f103 02c0 	add.w	r2, r3, #192	@ 0xc0
 8000b08:	f107 0308 	add.w	r3, r7, #8
 8000b0c:	ca07      	ldmia	r2, {r0, r1, r2}
 8000b0e:	e883 0007 	stmia.w	r3, {r0, r1, r2}

    // Update queue pointers
    keypad_driver.queue_tail = (keypad_driver.queue_tail + 1) % KEYPAD_EVENT_QUEUE_SIZE;
 8000b12:	4b12      	ldr	r3, [pc, #72]	@ (8000b5c <Keypad_GetKey+0xac>)
 8000b14:	f893 3181 	ldrb.w	r3, [r3, #385]	@ 0x181
 8000b18:	3301      	adds	r3, #1
 8000b1a:	425a      	negs	r2, r3
 8000b1c:	f003 030f 	and.w	r3, r3, #15
 8000b20:	f002 020f 	and.w	r2, r2, #15
 8000b24:	bf58      	it	pl
 8000b26:	4253      	negpl	r3, r2
 8000b28:	b2da      	uxtb	r2, r3
 8000b2a:	4b0c      	ldr	r3, [pc, #48]	@ (8000b5c <Keypad_GetKey+0xac>)
 8000b2c:	f883 2181 	strb.w	r2, [r3, #385]	@ 0x181
    keypad_driver.queue_count--;
 8000b30:	4b0a      	ldr	r3, [pc, #40]	@ (8000b5c <Keypad_GetKey+0xac>)
 8000b32:	f893 3182 	ldrb.w	r3, [r3, #386]	@ 0x182
 8000b36:	3b01      	subs	r3, #1
 8000b38:	b2da      	uxtb	r2, r3
 8000b3a:	4b08      	ldr	r3, [pc, #32]	@ (8000b5c <Keypad_GetKey+0xac>)
 8000b3c:	f883 2182 	strb.w	r2, [r3, #386]	@ 0x182

    return event;
 8000b40:	687b      	ldr	r3, [r7, #4]
 8000b42:	461c      	mov	r4, r3
 8000b44:	f107 0308 	add.w	r3, r7, #8
 8000b48:	e893 0007 	ldmia.w	r3, {r0, r1, r2}
 8000b4c:	e884 0007 	stmia.w	r4, {r0, r1, r2}
}
 8000b50:	6878      	ldr	r0, [r7, #4]
 8000b52:	3720      	adds	r7, #32
 8000b54:	46bd      	mov	sp, r7
 8000b56:	bc90      	pop	{r4, r7}
 8000b58:	4770      	bx	lr
 8000b5a:	bf00      	nop
 8000b5c:	200000c8 	.word	0x200000c8

08000b60 <Keypad_Register_Callback>:

/**
 * @brief Register callback function for key events
 */
Keypad_Status_t Keypad_Register_Callback(Keypad_Callback_t callback)
{
 8000b60:	b480      	push	{r7}
 8000b62:	b083      	sub	sp, #12
 8000b64:	af00      	add	r7, sp, #0
 8000b66:	6078      	str	r0, [r7, #4]
    if (!keypad_driver.initialized) {
 8000b68:	4b09      	ldr	r3, [pc, #36]	@ (8000b90 <Keypad_Register_Callback+0x30>)
 8000b6a:	f893 319c 	ldrb.w	r3, [r3, #412]	@ 0x19c
 8000b6e:	f083 0301 	eor.w	r3, r3, #1
 8000b72:	b2db      	uxtb	r3, r3
 8000b74:	2b00      	cmp	r3, #0
 8000b76:	d001      	beq.n	8000b7c <Keypad_Register_Callback+0x1c>
        return KEYPAD_ERROR;
 8000b78:	2301      	movs	r3, #1
 8000b7a:	e004      	b.n	8000b86 <Keypad_Register_Callback+0x26>
    }

    keypad_driver.callback = callback;
 8000b7c:	4a04      	ldr	r2, [pc, #16]	@ (8000b90 <Keypad_Register_Callback+0x30>)
 8000b7e:	687b      	ldr	r3, [r7, #4]
 8000b80:	f8c2 3184 	str.w	r3, [r2, #388]	@ 0x184
    return KEYPAD_OK;
 8000b84:	2300      	movs	r3, #0
}
 8000b86:	4618      	mov	r0, r3
 8000b88:	370c      	adds	r7, #12
 8000b8a:	46bd      	mov	sp, r7
 8000b8c:	bc80      	pop	{r7}
 8000b8e:	4770      	bx	lr
 8000b90:	200000c8 	.word	0x200000c8

08000b94 <Keypad_Quick_Check>:

/**
 * @brief Quick check if any key is pressed
 */
bool Keypad_Quick_Check(void)
{
 8000b94:	b580      	push	{r7, lr}
 8000b96:	b082      	sub	sp, #8
 8000b98:	af00      	add	r7, sp, #0
    if (!keypad_driver.initialized) {
 8000b9a:	4b21      	ldr	r3, [pc, #132]	@ (8000c20 <Keypad_Quick_Check+0x8c>)
 8000b9c:	f893 319c 	ldrb.w	r3, [r3, #412]	@ 0x19c
 8000ba0:	f083 0301 	eor.w	r3, r3, #1
 8000ba4:	b2db      	uxtb	r3, r3
 8000ba6:	2b00      	cmp	r3, #0
 8000ba8:	d001      	beq.n	8000bae <Keypad_Quick_Check+0x1a>
        return false;
 8000baa:	2300      	movs	r3, #0
 8000bac:	e034      	b.n	8000c18 <Keypad_Quick_Check+0x84>
    }

    // Set all rows low
    for (uint8_t row = 0; row < KEYPAD_ROWS; row++) {
 8000bae:	2300      	movs	r3, #0
 8000bb0:	71fb      	strb	r3, [r7, #7]
 8000bb2:	e007      	b.n	8000bc4 <Keypad_Quick_Check+0x30>
        Keypad_SetRowState(row, GPIO_PIN_RESET);
 8000bb4:	79fb      	ldrb	r3, [r7, #7]
 8000bb6:	2100      	movs	r1, #0
 8000bb8:	4618      	mov	r0, r3
 8000bba:	f000 f84b 	bl	8000c54 <Keypad_SetRowState>
    for (uint8_t row = 0; row < KEYPAD_ROWS; row++) {
 8000bbe:	79fb      	ldrb	r3, [r7, #7]
 8000bc0:	3301      	adds	r3, #1
 8000bc2:	71fb      	strb	r3, [r7, #7]
 8000bc4:	79fb      	ldrb	r3, [r7, #7]
 8000bc6:	2b03      	cmp	r3, #3
 8000bc8:	d9f4      	bls.n	8000bb4 <Keypad_Quick_Check+0x20>
    }

    // Small delay for settling
    Keypad_DelayUs(5);
 8000bca:	2005      	movs	r0, #5
 8000bcc:	f000 f936 	bl	8000e3c <Keypad_DelayUs>

    // Check if any column is low
    bool any_pressed = false;
 8000bd0:	2300      	movs	r3, #0
 8000bd2:	71bb      	strb	r3, [r7, #6]
    for (uint8_t col = 0; col < KEYPAD_COLS; col++) {
 8000bd4:	2300      	movs	r3, #0
 8000bd6:	717b      	strb	r3, [r7, #5]
 8000bd8:	e00c      	b.n	8000bf4 <Keypad_Quick_Check+0x60>
        if (Keypad_ReadColumn(col) == GPIO_PIN_RESET) {
 8000bda:	797b      	ldrb	r3, [r7, #5]
 8000bdc:	4618      	mov	r0, r3
 8000bde:	f000 f859 	bl	8000c94 <Keypad_ReadColumn>
 8000be2:	4603      	mov	r3, r0
 8000be4:	2b00      	cmp	r3, #0
 8000be6:	d102      	bne.n	8000bee <Keypad_Quick_Check+0x5a>
            any_pressed = true;
 8000be8:	2301      	movs	r3, #1
 8000bea:	71bb      	strb	r3, [r7, #6]
            break;
 8000bec:	e005      	b.n	8000bfa <Keypad_Quick_Check+0x66>
    for (uint8_t col = 0; col < KEYPAD_COLS; col++) {
 8000bee:	797b      	ldrb	r3, [r7, #5]
 8000bf0:	3301      	adds	r3, #1
 8000bf2:	717b      	strb	r3, [r7, #5]
 8000bf4:	797b      	ldrb	r3, [r7, #5]
 8000bf6:	2b03      	cmp	r3, #3
 8000bf8:	d9ef      	bls.n	8000bda <Keypad_Quick_Check+0x46>
        }
    }

    // Restore all rows to high
    for (uint8_t row = 0; row < KEYPAD_ROWS; row++) {
 8000bfa:	2300      	movs	r3, #0
 8000bfc:	713b      	strb	r3, [r7, #4]
 8000bfe:	e007      	b.n	8000c10 <Keypad_Quick_Check+0x7c>
        Keypad_SetRowState(row, GPIO_PIN_SET);
 8000c00:	793b      	ldrb	r3, [r7, #4]
 8000c02:	2101      	movs	r1, #1
 8000c04:	4618      	mov	r0, r3
 8000c06:	f000 f825 	bl	8000c54 <Keypad_SetRowState>
    for (uint8_t row = 0; row < KEYPAD_ROWS; row++) {
 8000c0a:	793b      	ldrb	r3, [r7, #4]
 8000c0c:	3301      	adds	r3, #1
 8000c0e:	713b      	strb	r3, [r7, #4]
 8000c10:	793b      	ldrb	r3, [r7, #4]
 8000c12:	2b03      	cmp	r3, #3
 8000c14:	d9f4      	bls.n	8000c00 <Keypad_Quick_Check+0x6c>
    }

    return any_pressed;
 8000c16:	79bb      	ldrb	r3, [r7, #6]
}
 8000c18:	4618      	mov	r0, r3
 8000c1a:	3708      	adds	r7, #8
 8000c1c:	46bd      	mov	sp, r7
 8000c1e:	bd80      	pop	{r7, pc}
 8000c20:	200000c8 	.word	0x200000c8

08000c24 <Keypad_Scan_Task>:

/**
 * @brief Keypad scan task for interrupt-driven operation
 */
void Keypad_Scan_Task(void)
{
 8000c24:	b580      	push	{r7, lr}
 8000c26:	b082      	sub	sp, #8
 8000c28:	af00      	add	r7, sp, #0
    static uint32_t last_scan = 0;
    uint32_t current_time = HAL_GetTick();
 8000c2a:	f002 fedf 	bl	80039ec <HAL_GetTick>
 8000c2e:	6078      	str	r0, [r7, #4]

    // Check if enough time has passed since last scan
    if (current_time - last_scan >= KEYPAD_SCAN_INTERVAL_MS) {
 8000c30:	4b07      	ldr	r3, [pc, #28]	@ (8000c50 <Keypad_Scan_Task+0x2c>)
 8000c32:	681b      	ldr	r3, [r3, #0]
 8000c34:	687a      	ldr	r2, [r7, #4]
 8000c36:	1ad3      	subs	r3, r2, r3
 8000c38:	2b04      	cmp	r3, #4
 8000c3a:	d904      	bls.n	8000c46 <Keypad_Scan_Task+0x22>
        Keypad_Scan();
 8000c3c:	f7ff fe6e 	bl	800091c <Keypad_Scan>
        last_scan = current_time;
 8000c40:	4a03      	ldr	r2, [pc, #12]	@ (8000c50 <Keypad_Scan_Task+0x2c>)
 8000c42:	687b      	ldr	r3, [r7, #4]
 8000c44:	6013      	str	r3, [r2, #0]
    }
}
 8000c46:	bf00      	nop
 8000c48:	3708      	adds	r7, #8
 8000c4a:	46bd      	mov	sp, r7
 8000c4c:	bd80      	pop	{r7, pc}
 8000c4e:	bf00      	nop
 8000c50:	20000268 	.word	0x20000268

08000c54 <Keypad_SetRowState>:

/**
 * @brief Set row pin state
 */
static void Keypad_SetRowState(uint8_t row, GPIO_PinState state)
{
 8000c54:	b580      	push	{r7, lr}
 8000c56:	b082      	sub	sp, #8
 8000c58:	af00      	add	r7, sp, #0
 8000c5a:	4603      	mov	r3, r0
 8000c5c:	460a      	mov	r2, r1
 8000c5e:	71fb      	strb	r3, [r7, #7]
 8000c60:	4613      	mov	r3, r2
 8000c62:	71bb      	strb	r3, [r7, #6]
    if (row < KEYPAD_ROWS) {
 8000c64:	79fb      	ldrb	r3, [r7, #7]
 8000c66:	2b03      	cmp	r3, #3
 8000c68:	d80b      	bhi.n	8000c82 <Keypad_SetRowState+0x2e>
        HAL_GPIO_WritePin(row_ports[row], row_pins[row], state);
 8000c6a:	79fb      	ldrb	r3, [r7, #7]
 8000c6c:	4a07      	ldr	r2, [pc, #28]	@ (8000c8c <Keypad_SetRowState+0x38>)
 8000c6e:	f852 0023 	ldr.w	r0, [r2, r3, lsl #2]
 8000c72:	79fb      	ldrb	r3, [r7, #7]
 8000c74:	4a06      	ldr	r2, [pc, #24]	@ (8000c90 <Keypad_SetRowState+0x3c>)
 8000c76:	f832 3013 	ldrh.w	r3, [r2, r3, lsl #1]
 8000c7a:	79ba      	ldrb	r2, [r7, #6]
 8000c7c:	4619      	mov	r1, r3
 8000c7e:	f003 fc2e 	bl	80044de <HAL_GPIO_WritePin>
    }
}
 8000c82:	bf00      	nop
 8000c84:	3708      	adds	r7, #8
 8000c86:	46bd      	mov	sp, r7
 8000c88:	bd80      	pop	{r7, pc}
 8000c8a:	bf00      	nop
 8000c8c:	20000000 	.word	0x20000000
 8000c90:	0800788c 	.word	0x0800788c

08000c94 <Keypad_ReadColumn>:

/**
 * @brief Read column pin state
 */
static GPIO_PinState Keypad_ReadColumn(uint8_t col)
{
 8000c94:	b580      	push	{r7, lr}
 8000c96:	b082      	sub	sp, #8
 8000c98:	af00      	add	r7, sp, #0
 8000c9a:	4603      	mov	r3, r0
 8000c9c:	71fb      	strb	r3, [r7, #7]
    if (col < KEYPAD_COLS) {
 8000c9e:	79fb      	ldrb	r3, [r7, #7]
 8000ca0:	2b03      	cmp	r3, #3
 8000ca2:	d80d      	bhi.n	8000cc0 <Keypad_ReadColumn+0x2c>
        return HAL_GPIO_ReadPin(col_ports[col], col_pins[col]);
 8000ca4:	79fb      	ldrb	r3, [r7, #7]
 8000ca6:	4a09      	ldr	r2, [pc, #36]	@ (8000ccc <Keypad_ReadColumn+0x38>)
 8000ca8:	f852 2023 	ldr.w	r2, [r2, r3, lsl #2]
 8000cac:	79fb      	ldrb	r3, [r7, #7]
 8000cae:	4908      	ldr	r1, [pc, #32]	@ (8000cd0 <Keypad_ReadColumn+0x3c>)
 8000cb0:	f831 3013 	ldrh.w	r3, [r1, r3, lsl #1]
 8000cb4:	4619      	mov	r1, r3
 8000cb6:	4610      	mov	r0, r2
 8000cb8:	f003 fbfa 	bl	80044b0 <HAL_GPIO_ReadPin>
 8000cbc:	4603      	mov	r3, r0
 8000cbe:	e000      	b.n	8000cc2 <Keypad_ReadColumn+0x2e>
    }
    return GPIO_PIN_SET;
 8000cc0:	2301      	movs	r3, #1
}
 8000cc2:	4618      	mov	r0, r3
 8000cc4:	3708      	adds	r7, #8
 8000cc6:	46bd      	mov	sp, r7
 8000cc8:	bd80      	pop	{r7, pc}
 8000cca:	bf00      	nop
 8000ccc:	20000010 	.word	0x20000010
 8000cd0:	08007894 	.word	0x08007894

08000cd4 <Keypad_ProcessDebounce>:
/**
 * @brief Process debouncing for a key
 * @note Press: wait 10ms for stability, Release: immediate response
 */
static bool Keypad_ProcessDebounce(Key_t* key, bool current_pressed)
{
 8000cd4:	b580      	push	{r7, lr}
 8000cd6:	b084      	sub	sp, #16
 8000cd8:	af00      	add	r7, sp, #0
 8000cda:	6078      	str	r0, [r7, #4]
 8000cdc:	460b      	mov	r3, r1
 8000cde:	70fb      	strb	r3, [r7, #3]
    uint32_t current_time = HAL_GetTick();
 8000ce0:	f002 fe84 	bl	80039ec <HAL_GetTick>
 8000ce4:	60b8      	str	r0, [r7, #8]
    bool state_changed = false;
 8000ce6:	2300      	movs	r3, #0
 8000ce8:	73fb      	strb	r3, [r7, #15]

    if (current_pressed) {
 8000cea:	78fb      	ldrb	r3, [r7, #3]
 8000cec:	2b00      	cmp	r3, #0
 8000cee:	d01d      	beq.n	8000d2c <Keypad_ProcessDebounce+0x58>
        // Key is currently pressed
        if (key->state == KEY_RELEASED) {
 8000cf0:	687b      	ldr	r3, [r7, #4]
 8000cf2:	789b      	ldrb	r3, [r3, #2]
 8000cf4:	2b00      	cmp	r3, #0
 8000cf6:	d12d      	bne.n	8000d54 <Keypad_ProcessDebounce+0x80>
            // Transition from released to pressed
            if (key->debounce_timer == 0) {
 8000cf8:	687b      	ldr	r3, [r7, #4]
 8000cfa:	689b      	ldr	r3, [r3, #8]
 8000cfc:	2b00      	cmp	r3, #0
 8000cfe:	d103      	bne.n	8000d08 <Keypad_ProcessDebounce+0x34>
                // First detection of press, start timer
                key->debounce_timer = current_time;
 8000d00:	687b      	ldr	r3, [r7, #4]
 8000d02:	68ba      	ldr	r2, [r7, #8]
 8000d04:	609a      	str	r2, [r3, #8]
 8000d06:	e025      	b.n	8000d54 <Keypad_ProcessDebounce+0x80>
            } else if (current_time - key->debounce_timer >= 10) {
 8000d08:	687b      	ldr	r3, [r7, #4]
 8000d0a:	689b      	ldr	r3, [r3, #8]
 8000d0c:	68ba      	ldr	r2, [r7, #8]
 8000d0e:	1ad3      	subs	r3, r2, r3
 8000d10:	2b09      	cmp	r3, #9
 8000d12:	d91f      	bls.n	8000d54 <Keypad_ProcessDebounce+0x80>
                // Stable press for 10ms, confirm as valid key press
                key->prev_state = KEY_RELEASED;
 8000d14:	687b      	ldr	r3, [r7, #4]
 8000d16:	2200      	movs	r2, #0
 8000d18:	70da      	strb	r2, [r3, #3]
                key->state = KEY_PRESSED;
 8000d1a:	687b      	ldr	r3, [r7, #4]
 8000d1c:	2201      	movs	r2, #1
 8000d1e:	709a      	strb	r2, [r3, #2]
                key->press_timestamp = current_time;
 8000d20:	687b      	ldr	r3, [r7, #4]
 8000d22:	68ba      	ldr	r2, [r7, #8]
 8000d24:	605a      	str	r2, [r3, #4]
                state_changed = true;
 8000d26:	2301      	movs	r3, #1
 8000d28:	73fb      	strb	r3, [r7, #15]
 8000d2a:	e013      	b.n	8000d54 <Keypad_ProcessDebounce+0x80>
            // else: still within 10ms, continue waiting
        }
        // else: key->state is already PRESSED, no processing needed
    } else {
        // Key is currently released
        if (key->state != KEY_RELEASED) {
 8000d2c:	687b      	ldr	r3, [r7, #4]
 8000d2e:	789b      	ldrb	r3, [r3, #2]
 8000d30:	2b00      	cmp	r3, #0
 8000d32:	d00c      	beq.n	8000d4e <Keypad_ProcessDebounce+0x7a>
            // Transition from pressed to released, immediate confirm
            key->prev_state = key->state;
 8000d34:	687b      	ldr	r3, [r7, #4]
 8000d36:	789a      	ldrb	r2, [r3, #2]
 8000d38:	687b      	ldr	r3, [r7, #4]
 8000d3a:	70da      	strb	r2, [r3, #3]
            key->state = KEY_RELEASED;
 8000d3c:	687b      	ldr	r3, [r7, #4]
 8000d3e:	2200      	movs	r2, #0
 8000d40:	709a      	strb	r2, [r3, #2]
            key->debounce_timer = 0;
 8000d42:	687b      	ldr	r3, [r7, #4]
 8000d44:	2200      	movs	r2, #0
 8000d46:	609a      	str	r2, [r3, #8]
            state_changed = true;
 8000d48:	2301      	movs	r3, #1
 8000d4a:	73fb      	strb	r3, [r7, #15]
 8000d4c:	e002      	b.n	8000d54 <Keypad_ProcessDebounce+0x80>
        } else {
            // Continuously not pressed, reset timer
            key->debounce_timer = 0;
 8000d4e:	687b      	ldr	r3, [r7, #4]
 8000d50:	2200      	movs	r2, #0
 8000d52:	609a      	str	r2, [r3, #8]
        }
    }

    return state_changed;
 8000d54:	7bfb      	ldrb	r3, [r7, #15]
}
 8000d56:	4618      	mov	r0, r3
 8000d58:	3710      	adds	r7, #16
 8000d5a:	46bd      	mov	sp, r7
 8000d5c:	bd80      	pop	{r7, pc}
	...

08000d60 <Keypad_AddEvent>:

/**
 * @brief Add event to queue
 */
static void Keypad_AddEvent(Key_t* key)
{
 8000d60:	b480      	push	{r7}
 8000d62:	b083      	sub	sp, #12
 8000d64:	af00      	add	r7, sp, #0
 8000d66:	6078      	str	r0, [r7, #4]
    if (keypad_driver.queue_count >= KEYPAD_EVENT_QUEUE_SIZE) {
 8000d68:	4b23      	ldr	r3, [pc, #140]	@ (8000df8 <Keypad_AddEvent+0x98>)
 8000d6a:	f893 3182 	ldrb.w	r3, [r3, #386]	@ 0x182
 8000d6e:	2b0f      	cmp	r3, #15
 8000d70:	d916      	bls.n	8000da0 <Keypad_AddEvent+0x40>
        // Queue full, overwrite oldest event
        keypad_driver.queue_tail = (keypad_driver.queue_tail + 1) % KEYPAD_EVENT_QUEUE_SIZE;
 8000d72:	4b21      	ldr	r3, [pc, #132]	@ (8000df8 <Keypad_AddEvent+0x98>)
 8000d74:	f893 3181 	ldrb.w	r3, [r3, #385]	@ 0x181
 8000d78:	3301      	adds	r3, #1
 8000d7a:	425a      	negs	r2, r3
 8000d7c:	f003 030f 	and.w	r3, r3, #15
 8000d80:	f002 020f 	and.w	r2, r2, #15
 8000d84:	bf58      	it	pl
 8000d86:	4253      	negpl	r3, r2
 8000d88:	b2da      	uxtb	r2, r3
 8000d8a:	4b1b      	ldr	r3, [pc, #108]	@ (8000df8 <Keypad_AddEvent+0x98>)
 8000d8c:	f883 2181 	strb.w	r2, [r3, #385]	@ 0x181
        keypad_driver.queue_count--;
 8000d90:	4b19      	ldr	r3, [pc, #100]	@ (8000df8 <Keypad_AddEvent+0x98>)
 8000d92:	f893 3182 	ldrb.w	r3, [r3, #386]	@ 0x182
 8000d96:	3b01      	subs	r3, #1
 8000d98:	b2da      	uxtb	r2, r3
 8000d9a:	4b17      	ldr	r3, [pc, #92]	@ (8000df8 <Keypad_AddEvent+0x98>)
 8000d9c:	f883 2182 	strb.w	r2, [r3, #386]	@ 0x182
    }

    // Add new event
    keypad_driver.event_queue[keypad_driver.queue_head] = *key;
 8000da0:	4b15      	ldr	r3, [pc, #84]	@ (8000df8 <Keypad_AddEvent+0x98>)
 8000da2:	f893 3180 	ldrb.w	r3, [r3, #384]	@ 0x180
 8000da6:	4619      	mov	r1, r3
 8000da8:	4a13      	ldr	r2, [pc, #76]	@ (8000df8 <Keypad_AddEvent+0x98>)
 8000daa:	460b      	mov	r3, r1
 8000dac:	005b      	lsls	r3, r3, #1
 8000dae:	440b      	add	r3, r1
 8000db0:	009b      	lsls	r3, r3, #2
 8000db2:	4413      	add	r3, r2
 8000db4:	33c0      	adds	r3, #192	@ 0xc0
 8000db6:	687a      	ldr	r2, [r7, #4]
 8000db8:	ca07      	ldmia	r2, {r0, r1, r2}
 8000dba:	e883 0007 	stmia.w	r3, {r0, r1, r2}
    keypad_driver.queue_head = (keypad_driver.queue_head + 1) % KEYPAD_EVENT_QUEUE_SIZE;
 8000dbe:	4b0e      	ldr	r3, [pc, #56]	@ (8000df8 <Keypad_AddEvent+0x98>)
 8000dc0:	f893 3180 	ldrb.w	r3, [r3, #384]	@ 0x180
 8000dc4:	3301      	adds	r3, #1
 8000dc6:	425a      	negs	r2, r3
 8000dc8:	f003 030f 	and.w	r3, r3, #15
 8000dcc:	f002 020f 	and.w	r2, r2, #15
 8000dd0:	bf58      	it	pl
 8000dd2:	4253      	negpl	r3, r2
 8000dd4:	b2da      	uxtb	r2, r3
 8000dd6:	4b08      	ldr	r3, [pc, #32]	@ (8000df8 <Keypad_AddEvent+0x98>)
 8000dd8:	f883 2180 	strb.w	r2, [r3, #384]	@ 0x180
    keypad_driver.queue_count++;
 8000ddc:	4b06      	ldr	r3, [pc, #24]	@ (8000df8 <Keypad_AddEvent+0x98>)
 8000dde:	f893 3182 	ldrb.w	r3, [r3, #386]	@ 0x182
 8000de2:	3301      	adds	r3, #1
 8000de4:	b2da      	uxtb	r2, r3
 8000de6:	4b04      	ldr	r3, [pc, #16]	@ (8000df8 <Keypad_AddEvent+0x98>)
 8000de8:	f883 2182 	strb.w	r2, [r3, #386]	@ 0x182
}
 8000dec:	bf00      	nop
 8000dee:	370c      	adds	r7, #12
 8000df0:	46bd      	mov	sp, r7
 8000df2:	bc80      	pop	{r7}
 8000df4:	4770      	bx	lr
 8000df6:	bf00      	nop
 8000df8:	200000c8 	.word	0x200000c8

08000dfc <Keypad_ResetKey>:

/**
 * @brief Reset key to initial state
 */
static void Keypad_ResetKey(Key_t* key, uint8_t row, uint8_t col)
{
 8000dfc:	b480      	push	{r7}
 8000dfe:	b083      	sub	sp, #12
 8000e00:	af00      	add	r7, sp, #0
 8000e02:	6078      	str	r0, [r7, #4]
 8000e04:	460b      	mov	r3, r1
 8000e06:	70fb      	strb	r3, [r7, #3]
 8000e08:	4613      	mov	r3, r2
 8000e0a:	70bb      	strb	r3, [r7, #2]
    key->row = row;
 8000e0c:	687b      	ldr	r3, [r7, #4]
 8000e0e:	78fa      	ldrb	r2, [r7, #3]
 8000e10:	701a      	strb	r2, [r3, #0]
    key->col = col;
 8000e12:	687b      	ldr	r3, [r7, #4]
 8000e14:	78ba      	ldrb	r2, [r7, #2]
 8000e16:	705a      	strb	r2, [r3, #1]
    key->state = KEY_RELEASED;
 8000e18:	687b      	ldr	r3, [r7, #4]
 8000e1a:	2200      	movs	r2, #0
 8000e1c:	709a      	strb	r2, [r3, #2]
    key->prev_state = KEY_RELEASED;
 8000e1e:	687b      	ldr	r3, [r7, #4]
 8000e20:	2200      	movs	r2, #0
 8000e22:	70da      	strb	r2, [r3, #3]
    key->press_timestamp = 0;
 8000e24:	687b      	ldr	r3, [r7, #4]
 8000e26:	2200      	movs	r2, #0
 8000e28:	605a      	str	r2, [r3, #4]
    key->debounce_timer = 0;
 8000e2a:	687b      	ldr	r3, [r7, #4]
 8000e2c:	2200      	movs	r2, #0
 8000e2e:	609a      	str	r2, [r3, #8]
}
 8000e30:	bf00      	nop
 8000e32:	370c      	adds	r7, #12
 8000e34:	46bd      	mov	sp, r7
 8000e36:	bc80      	pop	{r7}
 8000e38:	4770      	bx	lr
	...

08000e3c <Keypad_DelayUs>:

/**
 * @brief Microsecond delay function
 */
static void Keypad_DelayUs(uint32_t microseconds)
{
 8000e3c:	b480      	push	{r7}
 8000e3e:	b085      	sub	sp, #20
 8000e40:	af00      	add	r7, sp, #0
 8000e42:	6078      	str	r0, [r7, #4]
    uint32_t start = DWT->CYCCNT;
 8000e44:	4b0d      	ldr	r3, [pc, #52]	@ (8000e7c <Keypad_DelayUs+0x40>)
 8000e46:	685b      	ldr	r3, [r3, #4]
 8000e48:	60fb      	str	r3, [r7, #12]
    uint32_t cycles = microseconds * (SystemCoreClock / 1000000);
 8000e4a:	4b0d      	ldr	r3, [pc, #52]	@ (8000e80 <Keypad_DelayUs+0x44>)
 8000e4c:	681b      	ldr	r3, [r3, #0]
 8000e4e:	4a0d      	ldr	r2, [pc, #52]	@ (8000e84 <Keypad_DelayUs+0x48>)
 8000e50:	fba2 2303 	umull	r2, r3, r2, r3
 8000e54:	0c9a      	lsrs	r2, r3, #18
 8000e56:	687b      	ldr	r3, [r7, #4]
 8000e58:	fb02 f303 	mul.w	r3, r2, r3
 8000e5c:	60bb      	str	r3, [r7, #8]
    while ((DWT->CYCCNT - start) < cycles);
 8000e5e:	bf00      	nop
 8000e60:	4b06      	ldr	r3, [pc, #24]	@ (8000e7c <Keypad_DelayUs+0x40>)
 8000e62:	685a      	ldr	r2, [r3, #4]
 8000e64:	68fb      	ldr	r3, [r7, #12]
 8000e66:	1ad3      	subs	r3, r2, r3
 8000e68:	68ba      	ldr	r2, [r7, #8]
 8000e6a:	429a      	cmp	r2, r3
 8000e6c:	d8f8      	bhi.n	8000e60 <Keypad_DelayUs+0x24>
}
 8000e6e:	bf00      	nop
 8000e70:	bf00      	nop
 8000e72:	3714      	adds	r7, #20
 8000e74:	46bd      	mov	sp, r7
 8000e76:	bc80      	pop	{r7}
 8000e78:	4770      	bx	lr
 8000e7a:	bf00      	nop
 8000e7c:	e0001000 	.word	0xe0001000
 8000e80:	20000024 	.word	0x20000024
 8000e84:	431bde83 	.word	0x431bde83

08000e88 <Keypad_PhysicalToLogical>:

/**
 * @brief Convert physical row,col to logical key
 */
Keypad_LogicalKey_t Keypad_PhysicalToLogical(uint8_t row, uint8_t col)
{
 8000e88:	b480      	push	{r7}
 8000e8a:	b083      	sub	sp, #12
 8000e8c:	af00      	add	r7, sp, #0
 8000e8e:	4603      	mov	r3, r0
 8000e90:	460a      	mov	r2, r1
 8000e92:	71fb      	strb	r3, [r7, #7]
 8000e94:	4613      	mov	r3, r2
 8000e96:	71bb      	strb	r3, [r7, #6]
    if (!KEYPAD_IS_VALID_COORD(row, col)) {
 8000e98:	79fb      	ldrb	r3, [r7, #7]
 8000e9a:	2b03      	cmp	r3, #3
 8000e9c:	d802      	bhi.n	8000ea4 <Keypad_PhysicalToLogical+0x1c>
 8000e9e:	79bb      	ldrb	r3, [r7, #6]
 8000ea0:	2b03      	cmp	r3, #3
 8000ea2:	d901      	bls.n	8000ea8 <Keypad_PhysicalToLogical+0x20>
        return KEYPAD_KEY_INVALID;
 8000ea4:	23ff      	movs	r3, #255	@ 0xff
 8000ea6:	e006      	b.n	8000eb6 <Keypad_PhysicalToLogical+0x2e>
    }
    return KEYPAD_COORD_TO_KEY(row, col);
 8000ea8:	79fa      	ldrb	r2, [r7, #7]
 8000eaa:	79bb      	ldrb	r3, [r7, #6]
 8000eac:	4904      	ldr	r1, [pc, #16]	@ (8000ec0 <Keypad_PhysicalToLogical+0x38>)
 8000eae:	0092      	lsls	r2, r2, #2
 8000eb0:	440a      	add	r2, r1
 8000eb2:	4413      	add	r3, r2
 8000eb4:	781b      	ldrb	r3, [r3, #0]
}
 8000eb6:	4618      	mov	r0, r3
 8000eb8:	370c      	adds	r7, #12
 8000eba:	46bd      	mov	sp, r7
 8000ebc:	bc80      	pop	{r7}
 8000ebe:	4770      	bx	lr
 8000ec0:	0800787c 	.word	0x0800787c

08000ec4 <LED_Text_Init>:

/**
 * @brief Initialize LED text display module
 */
LED_Text_Status_t LED_Text_Init(void)
{
 8000ec4:	b480      	push	{r7}
 8000ec6:	af00      	add	r7, sp, #0
    // LED driver should already be initialized
    return LED_TEXT_OK;
 8000ec8:	2300      	movs	r3, #0
}
 8000eca:	4618      	mov	r0, r3
 8000ecc:	46bd      	mov	sp, r7
 8000ece:	bc80      	pop	{r7}
 8000ed0:	4770      	bx	lr

08000ed2 <LED_Text_DisplayChar>:

/**
 * @brief Display single character on LED matrix
 */
LED_Text_Status_t LED_Text_DisplayChar(char c, uint8_t x, uint8_t y, RGB_Color_t color)
{
 8000ed2:	b580      	push	{r7, lr}
 8000ed4:	b084      	sub	sp, #16
 8000ed6:	af00      	add	r7, sp, #0
 8000ed8:	603b      	str	r3, [r7, #0]
 8000eda:	4603      	mov	r3, r0
 8000edc:	71fb      	strb	r3, [r7, #7]
 8000ede:	460b      	mov	r3, r1
 8000ee0:	71bb      	strb	r3, [r7, #6]
 8000ee2:	4613      	mov	r3, r2
 8000ee4:	717b      	strb	r3, [r7, #5]
    const uint8_t* bitmap = LED_Text_GetCharBitmap(c);
 8000ee6:	79fb      	ldrb	r3, [r7, #7]
 8000ee8:	4618      	mov	r0, r3
 8000eea:	f000 f84b 	bl	8000f84 <LED_Text_GetCharBitmap>
 8000eee:	60f8      	str	r0, [r7, #12]
    if (!bitmap) {
 8000ef0:	68fb      	ldr	r3, [r7, #12]
 8000ef2:	2b00      	cmp	r3, #0
 8000ef4:	d101      	bne.n	8000efa <LED_Text_DisplayChar+0x28>
        return LED_TEXT_INVALID_PARAM;
 8000ef6:	2302      	movs	r3, #2
 8000ef8:	e006      	b.n	8000f08 <LED_Text_DisplayChar+0x36>
    }

    LED_Text_DrawBitmap(bitmap, x, y, color);
 8000efa:	797a      	ldrb	r2, [r7, #5]
 8000efc:	79b9      	ldrb	r1, [r7, #6]
 8000efe:	683b      	ldr	r3, [r7, #0]
 8000f00:	68f8      	ldr	r0, [r7, #12]
 8000f02:	f000 f86d 	bl	8000fe0 <LED_Text_DrawBitmap>

    return LED_TEXT_OK;
 8000f06:	2300      	movs	r3, #0
}
 8000f08:	4618      	mov	r0, r3
 8000f0a:	3710      	adds	r7, #16
 8000f0c:	46bd      	mov	sp, r7
 8000f0e:	bd80      	pop	{r7, pc}

08000f10 <LED_Text_Display_Sequential>:
 * @note Each character is centered and displayed for the specified duration
 *       Example: "WIN" -> shows 'W' (1s), 'I' (1s), 'N' (1s)
 */
LED_Text_Status_t LED_Text_Display_Sequential(const char* text, RGB_Color_t color,
                                               uint16_t letter_duration_ms)
{
 8000f10:	b580      	push	{r7, lr}
 8000f12:	b086      	sub	sp, #24
 8000f14:	af00      	add	r7, sp, #0
 8000f16:	60f8      	str	r0, [r7, #12]
 8000f18:	60b9      	str	r1, [r7, #8]
 8000f1a:	4613      	mov	r3, r2
 8000f1c:	80fb      	strh	r3, [r7, #6]
    if (!text) {
 8000f1e:	68fb      	ldr	r3, [r7, #12]
 8000f20:	2b00      	cmp	r3, #0
 8000f22:	d101      	bne.n	8000f28 <LED_Text_Display_Sequential+0x18>
        return LED_TEXT_INVALID_PARAM;
 8000f24:	2302      	movs	r3, #2
 8000f26:	e029      	b.n	8000f7c <LED_Text_Display_Sequential+0x6c>
    }

    uint8_t text_len = strlen(text);
 8000f28:	68f8      	ldr	r0, [r7, #12]
 8000f2a:	f7ff f90f 	bl	800014c <strlen>
 8000f2e:	4603      	mov	r3, r0
 8000f30:	75bb      	strb	r3, [r7, #22]
    if (text_len == 0) {
 8000f32:	7dbb      	ldrb	r3, [r7, #22]
 8000f34:	2b00      	cmp	r3, #0
 8000f36:	d101      	bne.n	8000f3c <LED_Text_Display_Sequential+0x2c>
        return LED_TEXT_INVALID_PARAM;
 8000f38:	2302      	movs	r3, #2
 8000f3a:	e01f      	b.n	8000f7c <LED_Text_Display_Sequential+0x6c>
    }

    // Calculate center position for single character (5x7)
    int8_t center_x = (WS2812B_LED_COLS - LED_TEXT_CHAR_WIDTH) / 2;   // (8 - 5) / 2 = 1
 8000f3c:	2301      	movs	r3, #1
 8000f3e:	757b      	strb	r3, [r7, #21]
    int8_t center_y = (WS2812B_LED_ROWS - LED_TEXT_CHAR_HEIGHT) / 2;  // (8 - 7) / 2 = 0
 8000f40:	2300      	movs	r3, #0
 8000f42:	753b      	strb	r3, [r7, #20]

    // Display each character sequentially
    for (uint8_t i = 0; i < text_len; i++) {
 8000f44:	2300      	movs	r3, #0
 8000f46:	75fb      	strb	r3, [r7, #23]
 8000f48:	e013      	b.n	8000f72 <LED_Text_Display_Sequential+0x62>
        // Clear display
        WS2812B_Clear();
 8000f4a:	f002 fbcf 	bl	80036ec <WS2812B_Clear>

        // Display single character centered
        LED_Text_DisplayChar(text[i], center_x, center_y, color);
 8000f4e:	7dfb      	ldrb	r3, [r7, #23]
 8000f50:	68fa      	ldr	r2, [r7, #12]
 8000f52:	4413      	add	r3, r2
 8000f54:	7818      	ldrb	r0, [r3, #0]
 8000f56:	7d79      	ldrb	r1, [r7, #21]
 8000f58:	7d3a      	ldrb	r2, [r7, #20]
 8000f5a:	68bb      	ldr	r3, [r7, #8]
 8000f5c:	f7ff ffb9 	bl	8000ed2 <LED_Text_DisplayChar>

        // Update LED matrix
        WS2812B_Update();
 8000f60:	f002 fbd8 	bl	8003714 <WS2812B_Update>

        // Wait for specified duration
        HAL_Delay(letter_duration_ms);
 8000f64:	88fb      	ldrh	r3, [r7, #6]
 8000f66:	4618      	mov	r0, r3
 8000f68:	f002 fd4a 	bl	8003a00 <HAL_Delay>
    for (uint8_t i = 0; i < text_len; i++) {
 8000f6c:	7dfb      	ldrb	r3, [r7, #23]
 8000f6e:	3301      	adds	r3, #1
 8000f70:	75fb      	strb	r3, [r7, #23]
 8000f72:	7dfa      	ldrb	r2, [r7, #23]
 8000f74:	7dbb      	ldrb	r3, [r7, #22]
 8000f76:	429a      	cmp	r2, r3
 8000f78:	d3e7      	bcc.n	8000f4a <LED_Text_Display_Sequential+0x3a>
    }

    return LED_TEXT_OK;
 8000f7a:	2300      	movs	r3, #0
}
 8000f7c:	4618      	mov	r0, r3
 8000f7e:	3718      	adds	r7, #24
 8000f80:	46bd      	mov	sp, r7
 8000f82:	bd80      	pop	{r7, pc}

08000f84 <LED_Text_GetCharBitmap>:

/**
 * @brief Get character bitmap from font table
 */
static const uint8_t* LED_Text_GetCharBitmap(char c)
{
 8000f84:	b480      	push	{r7}
 8000f86:	b085      	sub	sp, #20
 8000f88:	af00      	add	r7, sp, #0
 8000f8a:	4603      	mov	r3, r0
 8000f8c:	71fb      	strb	r3, [r7, #7]
    // Convert to uppercase
    c = toupper(c);
 8000f8e:	79fb      	ldrb	r3, [r7, #7]
 8000f90:	73fb      	strb	r3, [r7, #15]
 8000f92:	7bfb      	ldrb	r3, [r7, #15]
 8000f94:	3301      	adds	r3, #1
 8000f96:	4a10      	ldr	r2, [pc, #64]	@ (8000fd8 <LED_Text_GetCharBitmap+0x54>)
 8000f98:	4413      	add	r3, r2
 8000f9a:	781b      	ldrb	r3, [r3, #0]
 8000f9c:	f003 0303 	and.w	r3, r3, #3
 8000fa0:	2b02      	cmp	r3, #2
 8000fa2:	d102      	bne.n	8000faa <LED_Text_GetCharBitmap+0x26>
 8000fa4:	7bfb      	ldrb	r3, [r7, #15]
 8000fa6:	3b20      	subs	r3, #32
 8000fa8:	e000      	b.n	8000fac <LED_Text_GetCharBitmap+0x28>
 8000faa:	7bfb      	ldrb	r3, [r7, #15]
 8000fac:	71fb      	strb	r3, [r7, #7]

    // Check if character is in font table
    if (c >= 0x20 && c <= 0x5A) {
 8000fae:	79fb      	ldrb	r3, [r7, #7]
 8000fb0:	2b1f      	cmp	r3, #31
 8000fb2:	d90b      	bls.n	8000fcc <LED_Text_GetCharBitmap+0x48>
 8000fb4:	79fb      	ldrb	r3, [r7, #7]
 8000fb6:	2b5a      	cmp	r3, #90	@ 0x5a
 8000fb8:	d808      	bhi.n	8000fcc <LED_Text_GetCharBitmap+0x48>
        return font_5x7[c - 0x20];
 8000fba:	79fb      	ldrb	r3, [r7, #7]
 8000fbc:	f1a3 0220 	sub.w	r2, r3, #32
 8000fc0:	4613      	mov	r3, r2
 8000fc2:	009b      	lsls	r3, r3, #2
 8000fc4:	4413      	add	r3, r2
 8000fc6:	4a05      	ldr	r2, [pc, #20]	@ (8000fdc <LED_Text_GetCharBitmap+0x58>)
 8000fc8:	4413      	add	r3, r2
 8000fca:	e000      	b.n	8000fce <LED_Text_GetCharBitmap+0x4a>
    }

    // Return space for unknown characters
    return font_5x7[0];
 8000fcc:	4b03      	ldr	r3, [pc, #12]	@ (8000fdc <LED_Text_GetCharBitmap+0x58>)
}
 8000fce:	4618      	mov	r0, r3
 8000fd0:	3714      	adds	r7, #20
 8000fd2:	46bd      	mov	sp, r7
 8000fd4:	bc80      	pop	{r7}
 8000fd6:	4770      	bx	lr
 8000fd8:	080079fe 	.word	0x080079fe
 8000fdc:	0800789c 	.word	0x0800789c

08000fe0 <LED_Text_DrawBitmap>:

/**
 * @brief Draw character bitmap on LED matrix
 */
static void LED_Text_DrawBitmap(const uint8_t* bitmap, uint8_t x, uint8_t y, RGB_Color_t color)
{
 8000fe0:	b580      	push	{r7, lr}
 8000fe2:	b086      	sub	sp, #24
 8000fe4:	af00      	add	r7, sp, #0
 8000fe6:	60f8      	str	r0, [r7, #12]
 8000fe8:	607b      	str	r3, [r7, #4]
 8000fea:	460b      	mov	r3, r1
 8000fec:	72fb      	strb	r3, [r7, #11]
 8000fee:	4613      	mov	r3, r2
 8000ff0:	72bb      	strb	r3, [r7, #10]
    for (uint8_t col = 0; col < LED_TEXT_CHAR_WIDTH; col++) {
 8000ff2:	2300      	movs	r3, #0
 8000ff4:	75fb      	strb	r3, [r7, #23]
 8000ff6:	e02c      	b.n	8001052 <LED_Text_DrawBitmap+0x72>
        uint8_t column_data = bitmap[col];
 8000ff8:	7dfb      	ldrb	r3, [r7, #23]
 8000ffa:	68fa      	ldr	r2, [r7, #12]
 8000ffc:	4413      	add	r3, r2
 8000ffe:	781b      	ldrb	r3, [r3, #0]
 8001000:	757b      	strb	r3, [r7, #21]

        for (uint8_t row = 0; row < LED_TEXT_CHAR_HEIGHT; row++) {
 8001002:	2300      	movs	r3, #0
 8001004:	75bb      	strb	r3, [r7, #22]
 8001006:	e01e      	b.n	8001046 <LED_Text_DrawBitmap+0x66>
            if (column_data & (1 << row)) {
 8001008:	7d7a      	ldrb	r2, [r7, #21]
 800100a:	7dbb      	ldrb	r3, [r7, #22]
 800100c:	fa42 f303 	asr.w	r3, r2, r3
 8001010:	f003 0301 	and.w	r3, r3, #1
 8001014:	2b00      	cmp	r3, #0
 8001016:	d013      	beq.n	8001040 <LED_Text_DrawBitmap+0x60>
                uint8_t pixel_x = x + col;
 8001018:	7afa      	ldrb	r2, [r7, #11]
 800101a:	7dfb      	ldrb	r3, [r7, #23]
 800101c:	4413      	add	r3, r2
 800101e:	753b      	strb	r3, [r7, #20]
                uint8_t pixel_y = y + row;
 8001020:	7aba      	ldrb	r2, [r7, #10]
 8001022:	7dbb      	ldrb	r3, [r7, #22]
 8001024:	4413      	add	r3, r2
 8001026:	74fb      	strb	r3, [r7, #19]

                if (pixel_x < WS2812B_LED_COLS && pixel_y < WS2812B_LED_ROWS) {
 8001028:	7d3b      	ldrb	r3, [r7, #20]
 800102a:	2b07      	cmp	r3, #7
 800102c:	d808      	bhi.n	8001040 <LED_Text_DrawBitmap+0x60>
 800102e:	7cfb      	ldrb	r3, [r7, #19]
 8001030:	2b07      	cmp	r3, #7
 8001032:	d805      	bhi.n	8001040 <LED_Text_DrawBitmap+0x60>
                    WS2812B_SetPixel(pixel_y, pixel_x, color);
 8001034:	7d39      	ldrb	r1, [r7, #20]
 8001036:	7cfb      	ldrb	r3, [r7, #19]
 8001038:	687a      	ldr	r2, [r7, #4]
 800103a:	4618      	mov	r0, r3
 800103c:	f002 fb24 	bl	8003688 <WS2812B_SetPixel>
        for (uint8_t row = 0; row < LED_TEXT_CHAR_HEIGHT; row++) {
 8001040:	7dbb      	ldrb	r3, [r7, #22]
 8001042:	3301      	adds	r3, #1
 8001044:	75bb      	strb	r3, [r7, #22]
 8001046:	7dbb      	ldrb	r3, [r7, #22]
 8001048:	2b06      	cmp	r3, #6
 800104a:	d9dd      	bls.n	8001008 <LED_Text_DrawBitmap+0x28>
    for (uint8_t col = 0; col < LED_TEXT_CHAR_WIDTH; col++) {
 800104c:	7dfb      	ldrb	r3, [r7, #23]
 800104e:	3301      	adds	r3, #1
 8001050:	75fb      	strb	r3, [r7, #23]
 8001052:	7dfb      	ldrb	r3, [r7, #23]
 8001054:	2b04      	cmp	r3, #4
 8001056:	d9cf      	bls.n	8000ff8 <LED_Text_DrawBitmap+0x18>
                }
            }
        }
    }
}
 8001058:	bf00      	nop
 800105a:	bf00      	nop
 800105c:	3718      	adds	r7, #24
 800105e:	46bd      	mov	sp, r7
 8001060:	bd80      	pop	{r7, pc}

08001062 <Convert_GameState_to_Protocol>:
 * @brief Convert GameState_t to Game_State_Data_t for protocol transmission
 * @param game_state Source game state
 * @param protocol_state Destination protocol state
 */
static void Convert_GameState_to_Protocol(const GameState_t* game_state, Game_State_Data_t* protocol_state)
{
 8001062:	b480      	push	{r7}
 8001064:	b085      	sub	sp, #20
 8001066:	af00      	add	r7, sp, #0
 8001068:	6078      	str	r0, [r7, #4]
 800106a:	6039      	str	r1, [r7, #0]
  if (!game_state || !protocol_state) {
 800106c:	687b      	ldr	r3, [r7, #4]
 800106e:	2b00      	cmp	r3, #0
 8001070:	d046      	beq.n	8001100 <Convert_GameState_to_Protocol+0x9e>
 8001072:	683b      	ldr	r3, [r7, #0]
 8001074:	2b00      	cmp	r3, #0
 8001076:	d043      	beq.n	8001100 <Convert_GameState_to_Protocol+0x9e>
    return;
  }

  // Copy board state (convert from PieceType_t to uint8_t)
  for (int row = 0; row < 8; row++) {
 8001078:	2300      	movs	r3, #0
 800107a:	60fb      	str	r3, [r7, #12]
 800107c:	e01a      	b.n	80010b4 <Convert_GameState_to_Protocol+0x52>
    for (int col = 0; col < 8; col++) {
 800107e:	2300      	movs	r3, #0
 8001080:	60bb      	str	r3, [r7, #8]
 8001082:	e011      	b.n	80010a8 <Convert_GameState_to_Protocol+0x46>
      protocol_state->board[row][col] = (uint8_t)game_state->board[row][col];
 8001084:	687a      	ldr	r2, [r7, #4]
 8001086:	68fb      	ldr	r3, [r7, #12]
 8001088:	00db      	lsls	r3, r3, #3
 800108a:	441a      	add	r2, r3
 800108c:	68bb      	ldr	r3, [r7, #8]
 800108e:	4413      	add	r3, r2
 8001090:	7819      	ldrb	r1, [r3, #0]
 8001092:	683a      	ldr	r2, [r7, #0]
 8001094:	68fb      	ldr	r3, [r7, #12]
 8001096:	00db      	lsls	r3, r3, #3
 8001098:	441a      	add	r2, r3
 800109a:	68bb      	ldr	r3, [r7, #8]
 800109c:	4413      	add	r3, r2
 800109e:	460a      	mov	r2, r1
 80010a0:	701a      	strb	r2, [r3, #0]
    for (int col = 0; col < 8; col++) {
 80010a2:	68bb      	ldr	r3, [r7, #8]
 80010a4:	3301      	adds	r3, #1
 80010a6:	60bb      	str	r3, [r7, #8]
 80010a8:	68bb      	ldr	r3, [r7, #8]
 80010aa:	2b07      	cmp	r3, #7
 80010ac:	ddea      	ble.n	8001084 <Convert_GameState_to_Protocol+0x22>
  for (int row = 0; row < 8; row++) {
 80010ae:	68fb      	ldr	r3, [r7, #12]
 80010b0:	3301      	adds	r3, #1
 80010b2:	60fb      	str	r3, [r7, #12]
 80010b4:	68fb      	ldr	r3, [r7, #12]
 80010b6:	2b07      	cmp	r3, #7
 80010b8:	dde1      	ble.n	800107e <Convert_GameState_to_Protocol+0x1c>
    }
  }

  protocol_state->current_player = (uint8_t)game_state->current_player;
 80010ba:	687b      	ldr	r3, [r7, #4]
 80010bc:	f893 2040 	ldrb.w	r2, [r3, #64]	@ 0x40
 80010c0:	683b      	ldr	r3, [r7, #0]
 80010c2:	f883 2040 	strb.w	r2, [r3, #64]	@ 0x40
  protocol_state->black_count = game_state->black_count;
 80010c6:	687b      	ldr	r3, [r7, #4]
 80010c8:	f893 2041 	ldrb.w	r2, [r3, #65]	@ 0x41
 80010cc:	683b      	ldr	r3, [r7, #0]
 80010ce:	f883 2041 	strb.w	r2, [r3, #65]	@ 0x41
  protocol_state->white_count = game_state->white_count;
 80010d2:	687b      	ldr	r3, [r7, #4]
 80010d4:	f893 2042 	ldrb.w	r2, [r3, #66]	@ 0x42
 80010d8:	683b      	ldr	r3, [r7, #0]
 80010da:	f883 2042 	strb.w	r2, [r3, #66]	@ 0x42
  protocol_state->game_over = (game_state->status != GAME_STATUS_PLAYING) ? 1 : 0;
 80010de:	687b      	ldr	r3, [r7, #4]
 80010e0:	f893 3043 	ldrb.w	r3, [r3, #67]	@ 0x43
 80010e4:	2b00      	cmp	r3, #0
 80010e6:	bf14      	ite	ne
 80010e8:	2301      	movne	r3, #1
 80010ea:	2300      	moveq	r3, #0
 80010ec:	b2db      	uxtb	r3, r3
 80010ee:	461a      	mov	r2, r3
 80010f0:	683b      	ldr	r3, [r7, #0]
 80010f2:	f883 2043 	strb.w	r2, [r3, #67]	@ 0x43
  protocol_state->move_count = game_state->move_count;
 80010f6:	687b      	ldr	r3, [r7, #4]
 80010f8:	6c5a      	ldr	r2, [r3, #68]	@ 0x44
 80010fa:	683b      	ldr	r3, [r7, #0]
 80010fc:	645a      	str	r2, [r3, #68]	@ 0x44
 80010fe:	e000      	b.n	8001102 <Convert_GameState_to_Protocol+0xa0>
    return;
 8001100:	bf00      	nop
}
 8001102:	3714      	adds	r7, #20
 8001104:	46bd      	mov	sp, r7
 8001106:	bc80      	pop	{r7}
 8001108:	4770      	bx	lr

0800110a <Send_GameState_Via_Protocol>:
 * @brief Send game state via protocol (wrapper function)
 * @param game_state Source game state
 * @return Protocol_Status_t Protocol status
 */
static Protocol_Status_t Send_GameState_Via_Protocol(const GameState_t* game_state)
{
 800110a:	b580      	push	{r7, lr}
 800110c:	b094      	sub	sp, #80	@ 0x50
 800110e:	af00      	add	r7, sp, #0
 8001110:	6078      	str	r0, [r7, #4]
  Game_State_Data_t protocol_state;
  Convert_GameState_to_Protocol(game_state, &protocol_state);
 8001112:	f107 0308 	add.w	r3, r7, #8
 8001116:	4619      	mov	r1, r3
 8001118:	6878      	ldr	r0, [r7, #4]
 800111a:	f7ff ffa2 	bl	8001062 <Convert_GameState_to_Protocol>
  return Protocol_SendGameState(&protocol_state);
 800111e:	f107 0308 	add.w	r3, r7, #8
 8001122:	4618      	mov	r0, r3
 8001124:	f002 f932 	bl	800338c <Protocol_SendGameState>
 8001128:	4603      	mov	r3, r0
}
 800112a:	4618      	mov	r0, r3
 800112c:	3750      	adds	r7, #80	@ 0x50
 800112e:	46bd      	mov	sp, r7
 8001130:	bd80      	pop	{r7, pc}
	...

08001134 <main>:
/**
  * @brief  The application entry point.
  * @retval int
  */
int main(void)
{
 8001134:	b580      	push	{r7, lr}
 8001136:	b082      	sub	sp, #8
 8001138:	af00      	add	r7, sp, #0
  /* USER CODE END 1 */

  /* MCU Configuration--------------------------------------------------------*/

  /* Reset of all peripherals, Initializes the Flash interface and the Systick. */
  HAL_Init();
 800113a:	f002 fbff 	bl	800393c <HAL_Init>
  /* USER CODE BEGIN Init */

  /* USER CODE END Init */

  /* Configure the system clock */
  SystemClock_Config();
 800113e:	f000 f879 	bl	8001234 <SystemClock_Config>
  /* USER CODE BEGIN SysInit */

  /* USER CODE END SysInit */

  /* Initialize all configured peripherals */
  MX_GPIO_Init();
 8001142:	f000 f979 	bl	8001438 <MX_GPIO_Init>
  MX_DMA_Init();
 8001146:	f000 f959 	bl	80013fc <MX_DMA_Init>
  MX_TIM2_Init();
 800114a:	f000 f8b9 	bl	80012c0 <MX_TIM2_Init>
  MX_USART1_UART_Init();
 800114e:	f000 f92b 	bl	80013a8 <MX_USART1_UART_Init>
  /* USER CODE BEGIN 2 */
  /* IMPORTANT: Debug output must be AFTER USART1 initialization */
  HAL_Delay(100);  // Small delay to allow UART to stabilize
 8001152:	2064      	movs	r0, #100	@ 0x64
 8001154:	f002 fc54 	bl	8003a00 <HAL_Delay>
  DEBUG_INFO("[INIT] DMA Initialized\r\n");
  DEBUG_INFO("[INIT] TIM2 Initialized\r\n");
  DEBUG_INFO("[INIT] USART1 Initialized\r\n");

  /* Enable DWT counter for microsecond delays */
  CoreDebug->DEMCR |= CoreDebug_DEMCR_TRCENA_Msk;
 8001158:	4b32      	ldr	r3, [pc, #200]	@ (8001224 <main+0xf0>)
 800115a:	68db      	ldr	r3, [r3, #12]
 800115c:	4a31      	ldr	r2, [pc, #196]	@ (8001224 <main+0xf0>)
 800115e:	f043 7380 	orr.w	r3, r3, #16777216	@ 0x1000000
 8001162:	60d3      	str	r3, [r2, #12]
  DWT->CTRL |= DWT_CTRL_CYCCNTENA_Msk;
 8001164:	4b30      	ldr	r3, [pc, #192]	@ (8001228 <main+0xf4>)
 8001166:	681b      	ldr	r3, [r3, #0]
 8001168:	4a2f      	ldr	r2, [pc, #188]	@ (8001228 <main+0xf4>)
 800116a:	f043 0301 	orr.w	r3, r3, #1
 800116e:	6013      	str	r3, [r2, #0]

  /* Initialize WS2812B driver */
  if (WS2812B_Init() != WS2812B_OK) {
 8001170:	f002 fa4e 	bl	8003610 <WS2812B_Init>
 8001174:	4603      	mov	r3, r0
 8001176:	2b00      	cmp	r3, #0
 8001178:	d001      	beq.n	800117e <main+0x4a>
    DEBUG_ERROR("[INIT] WS2812B Driver...FAILED\r\n");
    Error_Handler(); /* WS2812B initialization failed */
 800117a:	f001 f868 	bl	800224e <Error_Handler>
  }
  DEBUG_INFO("[INIT] WS2812B Driver...OK\r\n");

  /* Initialize Keypad driver */
  Keypad_Status_t keypad_status = Keypad_Init();
 800117e:	f7ff fb6f 	bl	8000860 <Keypad_Init>
 8001182:	4603      	mov	r3, r0
 8001184:	717b      	strb	r3, [r7, #5]
  if (keypad_status != KEYPAD_OK) {
 8001186:	797b      	ldrb	r3, [r7, #5]
 8001188:	2b00      	cmp	r3, #0
 800118a:	d001      	beq.n	8001190 <main+0x5c>
    DEBUG_ERROR("[INIT] Keypad Driver...FAILED (status=%d)\r\n", keypad_status);
    Error_Handler(); /* Keypad initialization failed */
 800118c:	f001 f85f 	bl	800224e <Error_Handler>
  /* Test keypad quick check (disabled when DEBUG is off) */
  #if ENABLE_DEBUG
  bool any_key = Keypad_Quick_Check();
  DEBUG_INFO("[INIT] Keypad Quick Check: %s\r\n", any_key ? "Keys detected" : "No keys");
  #else
  (void)Keypad_Quick_Check();  /* Run check but ignore result when debug disabled */
 8001190:	f7ff fd00 	bl	8000b94 <Keypad_Quick_Check>
  #endif

  /* Initialize UART Protocol (USART1 for PC communication) */
  if (Protocol_Init() != PROTOCOL_OK) {
 8001194:	f001 fdfe 	bl	8002d94 <Protocol_Init>
 8001198:	4603      	mov	r3, r0
 800119a:	2b00      	cmp	r3, #0
 800119c:	d021      	beq.n	80011e2 <main+0xae>
    /* Protocol initialization failed - indicate with LED */
    /* Flash all LEDs red as error indicator */
    for (uint8_t i = 0; i < 8; i++) {
 800119e:	2300      	movs	r3, #0
 80011a0:	71fb      	strb	r3, [r7, #7]
 80011a2:	e017      	b.n	80011d4 <main+0xa0>
      for (uint8_t j = 0; j < 8; j++) {
 80011a4:	2300      	movs	r3, #0
 80011a6:	71bb      	strb	r3, [r7, #6]
 80011a8:	e00e      	b.n	80011c8 <main+0x94>
        WS2812B_SetPixel(i, j, WS2812B_COLOR_RED);
 80011aa:	23ff      	movs	r3, #255	@ 0xff
 80011ac:	703b      	strb	r3, [r7, #0]
 80011ae:	2300      	movs	r3, #0
 80011b0:	707b      	strb	r3, [r7, #1]
 80011b2:	2300      	movs	r3, #0
 80011b4:	70bb      	strb	r3, [r7, #2]
 80011b6:	79b9      	ldrb	r1, [r7, #6]
 80011b8:	79fb      	ldrb	r3, [r7, #7]
 80011ba:	683a      	ldr	r2, [r7, #0]
 80011bc:	4618      	mov	r0, r3
 80011be:	f002 fa63 	bl	8003688 <WS2812B_SetPixel>
      for (uint8_t j = 0; j < 8; j++) {
 80011c2:	79bb      	ldrb	r3, [r7, #6]
 80011c4:	3301      	adds	r3, #1
 80011c6:	71bb      	strb	r3, [r7, #6]
 80011c8:	79bb      	ldrb	r3, [r7, #6]
 80011ca:	2b07      	cmp	r3, #7
 80011cc:	d9ed      	bls.n	80011aa <main+0x76>
    for (uint8_t i = 0; i < 8; i++) {
 80011ce:	79fb      	ldrb	r3, [r7, #7]
 80011d0:	3301      	adds	r3, #1
 80011d2:	71fb      	strb	r3, [r7, #7]
 80011d4:	79fb      	ldrb	r3, [r7, #7]
 80011d6:	2b07      	cmp	r3, #7
 80011d8:	d9e4      	bls.n	80011a4 <main+0x70>
      }
    }
    WS2812B_Update();
 80011da:	f002 fa9b 	bl	8003714 <WS2812B_Update>
    Error_Handler();
 80011de:	f001 f836 	bl	800224e <Error_Handler>
  }

  /* Protocol initialized successfully - send initial heartbeat */
  HAL_Delay(100);  /* Wait for UART to stabilize */
 80011e2:	2064      	movs	r0, #100	@ 0x64
 80011e4:	f002 fc0c 	bl	8003a00 <HAL_Delay>
  Protocol_SendHeartbeat();
 80011e8:	f002 f87c 	bl	80032e4 <Protocol_SendHeartbeat>

  /* Register keypad event callback */
  Keypad_Register_Callback(Keypad_Key_Event_Handler);
 80011ec:	480f      	ldr	r0, [pc, #60]	@ (800122c <main+0xf8>)
 80011ee:	f7ff fcb7 	bl	8000b60 <Keypad_Register_Callback>

  /* Register protocol command callback */
  Protocol_RegisterCallback(Protocol_Command_Handler);
 80011f2:	480f      	ldr	r0, [pc, #60]	@ (8001230 <main+0xfc>)
 80011f4:	f001 ffdc 	bl	80031b0 <Protocol_RegisterCallback>

  /* Initialize game engine */
  if (Othello_Init() != OTHELLO_OK) {
 80011f8:	f001 f830 	bl	800225c <Othello_Init>
 80011fc:	4603      	mov	r3, r0
 80011fe:	2b00      	cmp	r3, #0
 8001200:	d001      	beq.n	8001206 <main+0xd2>
    DEBUG_ERROR("[INIT] Othello Engine...FAILED\r\n");
    Error_Handler(); /* Game engine initialization failed */
 8001202:	f001 f824 	bl	800224e <Error_Handler>
  }
  DEBUG_INFO("[INIT] Othello Engine...OK\r\n");

  /* Application-specific initialization */
  App_Init();
 8001206:	f000 f981 	bl	800150c <App_Init>
  {
    /* USER CODE END WHILE */

    /* USER CODE BEGIN 3 */
    /* Main application loop */
    App_Main_Loop();
 800120a:	f000 f9b1 	bl	8001570 <App_Main_Loop>

    /* Keypad scanning (if not using interrupt-driven mode) */
    Keypad_Scan_Task();
 800120e:	f7ff fd09 	bl	8000c24 <Keypad_Scan_Task>

    /* Update cursor blinking */
    App_UpdateCursor();
 8001212:	f000 f9dd 	bl	80015d0 <App_UpdateCursor>

    /* Protocol maintenance tasks (heartbeat & timeout handling) */
    Protocol_Task();
 8001216:	f002 f87d 	bl	8003314 <Protocol_Task>

    /* Small delay to prevent excessive CPU usage */
    HAL_Delay(1);
 800121a:	2001      	movs	r0, #1
 800121c:	f002 fbf0 	bl	8003a00 <HAL_Delay>
    App_Main_Loop();
 8001220:	bf00      	nop
 8001222:	e7f2      	b.n	800120a <main+0xd6>
 8001224:	e000edf0 	.word	0xe000edf0
 8001228:	e0001000 	.word	0xe0001000
 800122c:	08001d35 	.word	0x08001d35
 8001230:	08001d99 	.word	0x08001d99

08001234 <SystemClock_Config>:
/**
  * @brief System Clock Configuration
  * @retval None
  */
void SystemClock_Config(void)
{
 8001234:	b580      	push	{r7, lr}
 8001236:	b090      	sub	sp, #64	@ 0x40
 8001238:	af00      	add	r7, sp, #0
  RCC_OscInitTypeDef RCC_OscInitStruct = {0};
 800123a:	f107 0318 	add.w	r3, r7, #24
 800123e:	2228      	movs	r2, #40	@ 0x28
 8001240:	2100      	movs	r1, #0
 8001242:	4618      	mov	r0, r3
 8001244:	f005 fdc4 	bl	8006dd0 <memset>
  RCC_ClkInitTypeDef RCC_ClkInitStruct = {0};
 8001248:	1d3b      	adds	r3, r7, #4
 800124a:	2200      	movs	r2, #0
 800124c:	601a      	str	r2, [r3, #0]
 800124e:	605a      	str	r2, [r3, #4]
 8001250:	609a      	str	r2, [r3, #8]
 8001252:	60da      	str	r2, [r3, #12]
 8001254:	611a      	str	r2, [r3, #16]

  /** Initializes the RCC Oscillators according to the specified parameters
  * in the RCC_OscInitTypeDef structure.
  */
  RCC_OscInitStruct.OscillatorType = RCC_OSCILLATORTYPE_HSE;
 8001256:	2301      	movs	r3, #1
 8001258:	61bb      	str	r3, [r7, #24]
  RCC_OscInitStruct.HSEState = RCC_HSE_ON;
 800125a:	f44f 3380 	mov.w	r3, #65536	@ 0x10000
 800125e:	61fb      	str	r3, [r7, #28]
  RCC_OscInitStruct.HSEPredivValue = RCC_HSE_PREDIV_DIV1;
 8001260:	2300      	movs	r3, #0
 8001262:	623b      	str	r3, [r7, #32]
  RCC_OscInitStruct.HSIState = RCC_HSI_ON;
 8001264:	2301      	movs	r3, #1
 8001266:	62bb      	str	r3, [r7, #40]	@ 0x28
  RCC_OscInitStruct.PLL.PLLState = RCC_PLL_ON;
 8001268:	2302      	movs	r3, #2
 800126a:	637b      	str	r3, [r7, #52]	@ 0x34
  RCC_OscInitStruct.PLL.PLLSource = RCC_PLLSOURCE_HSE;
 800126c:	f44f 3380 	mov.w	r3, #65536	@ 0x10000
 8001270:	63bb      	str	r3, [r7, #56]	@ 0x38
  RCC_OscInitStruct.PLL.PLLMUL = RCC_PLL_MUL9;
 8001272:	f44f 13e0 	mov.w	r3, #1835008	@ 0x1c0000
 8001276:	63fb      	str	r3, [r7, #60]	@ 0x3c
  if (HAL_RCC_OscConfig(&RCC_OscInitStruct) != HAL_OK)
 8001278:	f107 0318 	add.w	r3, r7, #24
 800127c:	4618      	mov	r0, r3
 800127e:	f003 f947 	bl	8004510 <HAL_RCC_OscConfig>
 8001282:	4603      	mov	r3, r0
 8001284:	2b00      	cmp	r3, #0
 8001286:	d001      	beq.n	800128c <SystemClock_Config+0x58>
  {
    Error_Handler();
 8001288:	f000 ffe1 	bl	800224e <Error_Handler>
  }

  /** Initializes the CPU, AHB and APB buses clocks
  */
  RCC_ClkInitStruct.ClockType = RCC_CLOCKTYPE_HCLK|RCC_CLOCKTYPE_SYSCLK
 800128c:	230f      	movs	r3, #15
 800128e:	607b      	str	r3, [r7, #4]
                              |RCC_CLOCKTYPE_PCLK1|RCC_CLOCKTYPE_PCLK2;
  RCC_ClkInitStruct.SYSCLKSource = RCC_SYSCLKSOURCE_PLLCLK;
 8001290:	2302      	movs	r3, #2
 8001292:	60bb      	str	r3, [r7, #8]
  RCC_ClkInitStruct.AHBCLKDivider = RCC_SYSCLK_DIV1;
 8001294:	2300      	movs	r3, #0
 8001296:	60fb      	str	r3, [r7, #12]
  RCC_ClkInitStruct.APB1CLKDivider = RCC_HCLK_DIV2;
 8001298:	f44f 6380 	mov.w	r3, #1024	@ 0x400
 800129c:	613b      	str	r3, [r7, #16]
  RCC_ClkInitStruct.APB2CLKDivider = RCC_HCLK_DIV1;
 800129e:	2300      	movs	r3, #0
 80012a0:	617b      	str	r3, [r7, #20]

  if (HAL_RCC_ClockConfig(&RCC_ClkInitStruct, FLASH_LATENCY_2) != HAL_OK)
 80012a2:	1d3b      	adds	r3, r7, #4
 80012a4:	2102      	movs	r1, #2
 80012a6:	4618      	mov	r0, r3
 80012a8:	f003 fbb4 	bl	8004a14 <HAL_RCC_ClockConfig>
 80012ac:	4603      	mov	r3, r0
 80012ae:	2b00      	cmp	r3, #0
 80012b0:	d001      	beq.n	80012b6 <SystemClock_Config+0x82>
  {
    Error_Handler();
 80012b2:	f000 ffcc 	bl	800224e <Error_Handler>
  }
}
 80012b6:	bf00      	nop
 80012b8:	3740      	adds	r7, #64	@ 0x40
 80012ba:	46bd      	mov	sp, r7
 80012bc:	bd80      	pop	{r7, pc}
	...

080012c0 <MX_TIM2_Init>:
  * @brief TIM2 Initialization Function
  * @param None
  * @retval None
  */
static void MX_TIM2_Init(void)
{
 80012c0:	b580      	push	{r7, lr}
 80012c2:	b08e      	sub	sp, #56	@ 0x38
 80012c4:	af00      	add	r7, sp, #0

  /* USER CODE BEGIN TIM2_Init 0 */

  /* USER CODE END TIM2_Init 0 */

  TIM_ClockConfigTypeDef sClockSourceConfig = {0};
 80012c6:	f107 0328 	add.w	r3, r7, #40	@ 0x28
 80012ca:	2200      	movs	r2, #0
 80012cc:	601a      	str	r2, [r3, #0]
 80012ce:	605a      	str	r2, [r3, #4]
 80012d0:	609a      	str	r2, [r3, #8]
 80012d2:	60da      	str	r2, [r3, #12]
  TIM_MasterConfigTypeDef sMasterConfig = {0};
 80012d4:	f107 0320 	add.w	r3, r7, #32
 80012d8:	2200      	movs	r2, #0
 80012da:	601a      	str	r2, [r3, #0]
 80012dc:	605a      	str	r2, [r3, #4]
  TIM_OC_InitTypeDef sConfigOC = {0};
 80012de:	1d3b      	adds	r3, r7, #4
 80012e0:	2200      	movs	r2, #0
 80012e2:	601a      	str	r2, [r3, #0]
 80012e4:	605a      	str	r2, [r3, #4]
 80012e6:	609a      	str	r2, [r3, #8]
 80012e8:	60da      	str	r2, [r3, #12]
 80012ea:	611a      	str	r2, [r3, #16]
 80012ec:	615a      	str	r2, [r3, #20]
 80012ee:	619a      	str	r2, [r3, #24]

  /* USER CODE BEGIN TIM2_Init 1 */

  /* USER CODE END TIM2_Init 1 */
  htim2.Instance = TIM2;
 80012f0:	4b2c      	ldr	r3, [pc, #176]	@ (80013a4 <MX_TIM2_Init+0xe4>)
 80012f2:	f04f 4280 	mov.w	r2, #1073741824	@ 0x40000000
 80012f6:	601a      	str	r2, [r3, #0]
  htim2.Init.Prescaler = 0;
 80012f8:	4b2a      	ldr	r3, [pc, #168]	@ (80013a4 <MX_TIM2_Init+0xe4>)
 80012fa:	2200      	movs	r2, #0
 80012fc:	605a      	str	r2, [r3, #4]
  htim2.Init.CounterMode = TIM_COUNTERMODE_UP;
 80012fe:	4b29      	ldr	r3, [pc, #164]	@ (80013a4 <MX_TIM2_Init+0xe4>)
 8001300:	2200      	movs	r2, #0
 8001302:	609a      	str	r2, [r3, #8]
  htim2.Init.Period = 90-1;
 8001304:	4b27      	ldr	r3, [pc, #156]	@ (80013a4 <MX_TIM2_Init+0xe4>)
 8001306:	2259      	movs	r2, #89	@ 0x59
 8001308:	60da      	str	r2, [r3, #12]
  htim2.Init.ClockDivision = TIM_CLOCKDIVISION_DIV1;
 800130a:	4b26      	ldr	r3, [pc, #152]	@ (80013a4 <MX_TIM2_Init+0xe4>)
 800130c:	2200      	movs	r2, #0
 800130e:	611a      	str	r2, [r3, #16]
  htim2.Init.AutoReloadPreload = TIM_AUTORELOAD_PRELOAD_DISABLE;
 8001310:	4b24      	ldr	r3, [pc, #144]	@ (80013a4 <MX_TIM2_Init+0xe4>)
 8001312:	2200      	movs	r2, #0
 8001314:	619a      	str	r2, [r3, #24]
  if (HAL_TIM_Base_Init(&htim2) != HAL_OK)
 8001316:	4823      	ldr	r0, [pc, #140]	@ (80013a4 <MX_TIM2_Init+0xe4>)
 8001318:	f003 fd0a 	bl	8004d30 <HAL_TIM_Base_Init>
 800131c:	4603      	mov	r3, r0
 800131e:	2b00      	cmp	r3, #0
 8001320:	d001      	beq.n	8001326 <MX_TIM2_Init+0x66>
  {
    Error_Handler();
 8001322:	f000 ff94 	bl	800224e <Error_Handler>
  }
  sClockSourceConfig.ClockSource = TIM_CLOCKSOURCE_INTERNAL;
 8001326:	f44f 5380 	mov.w	r3, #4096	@ 0x1000
 800132a:	62bb      	str	r3, [r7, #40]	@ 0x28
  if (HAL_TIM_ConfigClockSource(&htim2, &sClockSourceConfig) != HAL_OK)
 800132c:	f107 0328 	add.w	r3, r7, #40	@ 0x28
 8001330:	4619      	mov	r1, r3
 8001332:	481c      	ldr	r0, [pc, #112]	@ (80013a4 <MX_TIM2_Init+0xe4>)
 8001334:	f004 f9be 	bl	80056b4 <HAL_TIM_ConfigClockSource>
 8001338:	4603      	mov	r3, r0
 800133a:	2b00      	cmp	r3, #0
 800133c:	d001      	beq.n	8001342 <MX_TIM2_Init+0x82>
  {
    Error_Handler();
 800133e:	f000 ff86 	bl	800224e <Error_Handler>
  }
  if (HAL_TIM_PWM_Init(&htim2) != HAL_OK)
 8001342:	4818      	ldr	r0, [pc, #96]	@ (80013a4 <MX_TIM2_Init+0xe4>)
 8001344:	f003 fd43 	bl	8004dce <HAL_TIM_PWM_Init>
 8001348:	4603      	mov	r3, r0
 800134a:	2b00      	cmp	r3, #0
 800134c:	d001      	beq.n	8001352 <MX_TIM2_Init+0x92>
  {
    Error_Handler();
 800134e:	f000 ff7e 	bl	800224e <Error_Handler>
  }
  sMasterConfig.MasterOutputTrigger = TIM_TRGO_RESET;
 8001352:	2300      	movs	r3, #0
 8001354:	623b      	str	r3, [r7, #32]
  sMasterConfig.MasterSlaveMode = TIM_MASTERSLAVEMODE_DISABLE;
 8001356:	2300      	movs	r3, #0
 8001358:	627b      	str	r3, [r7, #36]	@ 0x24
  if (HAL_TIMEx_MasterConfigSynchronization(&htim2, &sMasterConfig) != HAL_OK)
 800135a:	f107 0320 	add.w	r3, r7, #32
 800135e:	4619      	mov	r1, r3
 8001360:	4810      	ldr	r0, [pc, #64]	@ (80013a4 <MX_TIM2_Init+0xe4>)
 8001362:	f004 fe25 	bl	8005fb0 <HAL_TIMEx_MasterConfigSynchronization>
 8001366:	4603      	mov	r3, r0
 8001368:	2b00      	cmp	r3, #0
 800136a:	d001      	beq.n	8001370 <MX_TIM2_Init+0xb0>
  {
    Error_Handler();
 800136c:	f000 ff6f 	bl	800224e <Error_Handler>
  }
  sConfigOC.OCMode = TIM_OCMODE_PWM1;
 8001370:	2360      	movs	r3, #96	@ 0x60
 8001372:	607b      	str	r3, [r7, #4]
  sConfigOC.Pulse = 0;
 8001374:	2300      	movs	r3, #0
 8001376:	60bb      	str	r3, [r7, #8]
  sConfigOC.OCPolarity = TIM_OCPOLARITY_HIGH;
 8001378:	2300      	movs	r3, #0
 800137a:	60fb      	str	r3, [r7, #12]
  sConfigOC.OCFastMode = TIM_OCFAST_DISABLE;
 800137c:	2300      	movs	r3, #0
 800137e:	617b      	str	r3, [r7, #20]
  if (HAL_TIM_PWM_ConfigChannel(&htim2, &sConfigOC, TIM_CHANNEL_1) != HAL_OK)
 8001380:	1d3b      	adds	r3, r7, #4
 8001382:	2200      	movs	r2, #0
 8001384:	4619      	mov	r1, r3
 8001386:	4807      	ldr	r0, [pc, #28]	@ (80013a4 <MX_TIM2_Init+0xe4>)
 8001388:	f004 f8d2 	bl	8005530 <HAL_TIM_PWM_ConfigChannel>
 800138c:	4603      	mov	r3, r0
 800138e:	2b00      	cmp	r3, #0
 8001390:	d001      	beq.n	8001396 <MX_TIM2_Init+0xd6>
  {
    Error_Handler();
 8001392:	f000 ff5c 	bl	800224e <Error_Handler>
  }
  /* USER CODE BEGIN TIM2_Init 2 */

  /* USER CODE END TIM2_Init 2 */
  HAL_TIM_MspPostInit(&htim2);
 8001396:	4803      	ldr	r0, [pc, #12]	@ (80013a4 <MX_TIM2_Init+0xe4>)
 8001398:	f001 fbf2 	bl	8002b80 <HAL_TIM_MspPostInit>

}
 800139c:	bf00      	nop
 800139e:	3738      	adds	r7, #56	@ 0x38
 80013a0:	46bd      	mov	sp, r7
 80013a2:	bd80      	pop	{r7, pc}
 80013a4:	2000026c 	.word	0x2000026c

080013a8 <MX_USART1_UART_Init>:
  * @brief USART1 Initialization Function
  * @param None
  * @retval None
  */
static void MX_USART1_UART_Init(void)
{
 80013a8:	b580      	push	{r7, lr}
 80013aa:	af00      	add	r7, sp, #0
  /* USER CODE END USART1_Init 0 */

  /* USER CODE BEGIN USART1_Init 1 */

  /* USER CODE END USART1_Init 1 */
  huart1.Instance = USART1;
 80013ac:	4b11      	ldr	r3, [pc, #68]	@ (80013f4 <MX_USART1_UART_Init+0x4c>)
 80013ae:	4a12      	ldr	r2, [pc, #72]	@ (80013f8 <MX_USART1_UART_Init+0x50>)
 80013b0:	601a      	str	r2, [r3, #0]
  huart1.Init.BaudRate = 115200;
 80013b2:	4b10      	ldr	r3, [pc, #64]	@ (80013f4 <MX_USART1_UART_Init+0x4c>)
 80013b4:	f44f 32e1 	mov.w	r2, #115200	@ 0x1c200
 80013b8:	605a      	str	r2, [r3, #4]
  huart1.Init.WordLength = UART_WORDLENGTH_8B;
 80013ba:	4b0e      	ldr	r3, [pc, #56]	@ (80013f4 <MX_USART1_UART_Init+0x4c>)
 80013bc:	2200      	movs	r2, #0
 80013be:	609a      	str	r2, [r3, #8]
  huart1.Init.StopBits = UART_STOPBITS_1;
 80013c0:	4b0c      	ldr	r3, [pc, #48]	@ (80013f4 <MX_USART1_UART_Init+0x4c>)
 80013c2:	2200      	movs	r2, #0
 80013c4:	60da      	str	r2, [r3, #12]
  huart1.Init.Parity = UART_PARITY_NONE;
 80013c6:	4b0b      	ldr	r3, [pc, #44]	@ (80013f4 <MX_USART1_UART_Init+0x4c>)
 80013c8:	2200      	movs	r2, #0
 80013ca:	611a      	str	r2, [r3, #16]
  huart1.Init.Mode = UART_MODE_TX_RX;
 80013cc:	4b09      	ldr	r3, [pc, #36]	@ (80013f4 <MX_USART1_UART_Init+0x4c>)
 80013ce:	220c      	movs	r2, #12
 80013d0:	615a      	str	r2, [r3, #20]
  huart1.Init.HwFlowCtl = UART_HWCONTROL_NONE;
 80013d2:	4b08      	ldr	r3, [pc, #32]	@ (80013f4 <MX_USART1_UART_Init+0x4c>)
 80013d4:	2200      	movs	r2, #0
 80013d6:	619a      	str	r2, [r3, #24]
  huart1.Init.OverSampling = UART_OVERSAMPLING_16;
 80013d8:	4b06      	ldr	r3, [pc, #24]	@ (80013f4 <MX_USART1_UART_Init+0x4c>)
 80013da:	2200      	movs	r2, #0
 80013dc:	61da      	str	r2, [r3, #28]
  if (HAL_UART_Init(&huart1) != HAL_OK)
 80013de:	4805      	ldr	r0, [pc, #20]	@ (80013f4 <MX_USART1_UART_Init+0x4c>)
 80013e0:	f004 fe56 	bl	8006090 <HAL_UART_Init>
 80013e4:	4603      	mov	r3, r0
 80013e6:	2b00      	cmp	r3, #0
 80013e8:	d001      	beq.n	80013ee <MX_USART1_UART_Init+0x46>
  {
    Error_Handler();
 80013ea:	f000 ff30 	bl	800224e <Error_Handler>
  }
  /* USER CODE BEGIN USART1_Init 2 */

  /* USER CODE END USART1_Init 2 */

}
 80013ee:	bf00      	nop
 80013f0:	bd80      	pop	{r7, pc}
 80013f2:	bf00      	nop
 80013f4:	200002f8 	.word	0x200002f8
 80013f8:	40013800 	.word	0x40013800

080013fc <MX_DMA_Init>:

/**
  * Enable DMA controller clock
  */
static void MX_DMA_Init(void)
{
 80013fc:	b580      	push	{r7, lr}
 80013fe:	b082      	sub	sp, #8
 8001400:	af00      	add	r7, sp, #0

  /* DMA controller clock enable */
  __HAL_RCC_DMA1_CLK_ENABLE();
 8001402:	4b0c      	ldr	r3, [pc, #48]	@ (8001434 <MX_DMA_Init+0x38>)
 8001404:	695b      	ldr	r3, [r3, #20]
 8001406:	4a0b      	ldr	r2, [pc, #44]	@ (8001434 <MX_DMA_Init+0x38>)
 8001408:	f043 0301 	orr.w	r3, r3, #1
 800140c:	6153      	str	r3, [r2, #20]
 800140e:	4b09      	ldr	r3, [pc, #36]	@ (8001434 <MX_DMA_Init+0x38>)
 8001410:	695b      	ldr	r3, [r3, #20]
 8001412:	f003 0301 	and.w	r3, r3, #1
 8001416:	607b      	str	r3, [r7, #4]
 8001418:	687b      	ldr	r3, [r7, #4]

  /* DMA interrupt init */
  /* DMA1_Channel5_IRQn interrupt configuration */
  HAL_NVIC_SetPriority(DMA1_Channel5_IRQn, 2, 0);
 800141a:	2200      	movs	r2, #0
 800141c:	2102      	movs	r1, #2
 800141e:	200f      	movs	r0, #15
 8001420:	f002 fbe9 	bl	8003bf6 <HAL_NVIC_SetPriority>
  HAL_NVIC_EnableIRQ(DMA1_Channel5_IRQn);
 8001424:	200f      	movs	r0, #15
 8001426:	f002 fc02 	bl	8003c2e <HAL_NVIC_EnableIRQ>

}
 800142a:	bf00      	nop
 800142c:	3708      	adds	r7, #8
 800142e:	46bd      	mov	sp, r7
 8001430:	bd80      	pop	{r7, pc}
 8001432:	bf00      	nop
 8001434:	40021000 	.word	0x40021000

08001438 <MX_GPIO_Init>:
  * @brief GPIO Initialization Function
  * @param None
  * @retval None
  */
static void MX_GPIO_Init(void)
{
 8001438:	b580      	push	{r7, lr}
 800143a:	b088      	sub	sp, #32
 800143c:	af00      	add	r7, sp, #0
  GPIO_InitTypeDef GPIO_InitStruct = {0};
 800143e:	f107 0310 	add.w	r3, r7, #16
 8001442:	2200      	movs	r2, #0
 8001444:	601a      	str	r2, [r3, #0]
 8001446:	605a      	str	r2, [r3, #4]
 8001448:	609a      	str	r2, [r3, #8]
 800144a:	60da      	str	r2, [r3, #12]
  /* USER CODE BEGIN MX_GPIO_Init_1 */

  /* USER CODE END MX_GPIO_Init_1 */

  /* GPIO Ports Clock Enable */
  __HAL_RCC_GPIOD_CLK_ENABLE();
 800144c:	4b24      	ldr	r3, [pc, #144]	@ (80014e0 <MX_GPIO_Init+0xa8>)
 800144e:	699b      	ldr	r3, [r3, #24]
 8001450:	4a23      	ldr	r2, [pc, #140]	@ (80014e0 <MX_GPIO_Init+0xa8>)
 8001452:	f043 0320 	orr.w	r3, r3, #32
 8001456:	6193      	str	r3, [r2, #24]
 8001458:	4b21      	ldr	r3, [pc, #132]	@ (80014e0 <MX_GPIO_Init+0xa8>)
 800145a:	699b      	ldr	r3, [r3, #24]
 800145c:	f003 0320 	and.w	r3, r3, #32
 8001460:	60fb      	str	r3, [r7, #12]
 8001462:	68fb      	ldr	r3, [r7, #12]
  __HAL_RCC_GPIOA_CLK_ENABLE();
 8001464:	4b1e      	ldr	r3, [pc, #120]	@ (80014e0 <MX_GPIO_Init+0xa8>)
 8001466:	699b      	ldr	r3, [r3, #24]
 8001468:	4a1d      	ldr	r2, [pc, #116]	@ (80014e0 <MX_GPIO_Init+0xa8>)
 800146a:	f043 0304 	orr.w	r3, r3, #4
 800146e:	6193      	str	r3, [r2, #24]
 8001470:	4b1b      	ldr	r3, [pc, #108]	@ (80014e0 <MX_GPIO_Init+0xa8>)
 8001472:	699b      	ldr	r3, [r3, #24]
 8001474:	f003 0304 	and.w	r3, r3, #4
 8001478:	60bb      	str	r3, [r7, #8]
 800147a:	68bb      	ldr	r3, [r7, #8]
  __HAL_RCC_GPIOB_CLK_ENABLE();
 800147c:	4b18      	ldr	r3, [pc, #96]	@ (80014e0 <MX_GPIO_Init+0xa8>)
 800147e:	699b      	ldr	r3, [r3, #24]
 8001480:	4a17      	ldr	r2, [pc, #92]	@ (80014e0 <MX_GPIO_Init+0xa8>)
 8001482:	f043 0308 	orr.w	r3, r3, #8
 8001486:	6193      	str	r3, [r2, #24]
 8001488:	4b15      	ldr	r3, [pc, #84]	@ (80014e0 <MX_GPIO_Init+0xa8>)
 800148a:	699b      	ldr	r3, [r3, #24]
 800148c:	f003 0308 	and.w	r3, r3, #8
 8001490:	607b      	str	r3, [r7, #4]
 8001492:	687b      	ldr	r3, [r7, #4]

  /*Configure GPIO pin Output Level */
  HAL_GPIO_WritePin(GPIOB, KEY_R1_Pin|KEY_R2_Pin|KEY_R3_Pin|KEY_R4_Pin, GPIO_PIN_SET);
 8001494:	2201      	movs	r2, #1
 8001496:	f44f 4170 	mov.w	r1, #61440	@ 0xf000
 800149a:	4812      	ldr	r0, [pc, #72]	@ (80014e4 <MX_GPIO_Init+0xac>)
 800149c:	f003 f81f 	bl	80044de <HAL_GPIO_WritePin>

  /*Configure GPIO pins : KEY_R1_Pin KEY_R2_Pin KEY_R3_Pin KEY_R4_Pin */
  GPIO_InitStruct.Pin = KEY_R1_Pin|KEY_R2_Pin|KEY_R3_Pin|KEY_R4_Pin;
 80014a0:	f44f 4370 	mov.w	r3, #61440	@ 0xf000
 80014a4:	613b      	str	r3, [r7, #16]
  GPIO_InitStruct.Mode = GPIO_MODE_OUTPUT_PP;
 80014a6:	2301      	movs	r3, #1
 80014a8:	617b      	str	r3, [r7, #20]
  GPIO_InitStruct.Pull = GPIO_NOPULL;
 80014aa:	2300      	movs	r3, #0
 80014ac:	61bb      	str	r3, [r7, #24]
  GPIO_InitStruct.Speed = GPIO_SPEED_FREQ_LOW;
 80014ae:	2302      	movs	r3, #2
 80014b0:	61fb      	str	r3, [r7, #28]
  HAL_GPIO_Init(GPIOB, &GPIO_InitStruct);
 80014b2:	f107 0310 	add.w	r3, r7, #16
 80014b6:	4619      	mov	r1, r3
 80014b8:	480a      	ldr	r0, [pc, #40]	@ (80014e4 <MX_GPIO_Init+0xac>)
 80014ba:	f002 fe75 	bl	80041a8 <HAL_GPIO_Init>

  /*Configure GPIO pins : KEY_C1_Pin KEY_C2_Pin KEY_C3_Pin KEY_C4_Pin */
  GPIO_InitStruct.Pin = KEY_C1_Pin|KEY_C2_Pin|KEY_C3_Pin|KEY_C4_Pin;
 80014be:	f44f 73f0 	mov.w	r3, #480	@ 0x1e0
 80014c2:	613b      	str	r3, [r7, #16]
  GPIO_InitStruct.Mode = GPIO_MODE_INPUT;
 80014c4:	2300      	movs	r3, #0
 80014c6:	617b      	str	r3, [r7, #20]
  GPIO_InitStruct.Pull = GPIO_PULLUP;
 80014c8:	2301      	movs	r3, #1
 80014ca:	61bb      	str	r3, [r7, #24]
  HAL_GPIO_Init(GPIOB, &GPIO_InitStruct);
 80014cc:	f107 0310 	add.w	r3, r7, #16
 80014d0:	4619      	mov	r1, r3
 80014d2:	4804      	ldr	r0, [pc, #16]	@ (80014e4 <MX_GPIO_Init+0xac>)
 80014d4:	f002 fe68 	bl	80041a8 <HAL_GPIO_Init>

  /* USER CODE BEGIN MX_GPIO_Init_2 */

  /* USER CODE END MX_GPIO_Init_2 */
}
 80014d8:	bf00      	nop
 80014da:	3720      	adds	r7, #32
 80014dc:	46bd      	mov	sp, r7
 80014de:	bd80      	pop	{r7, pc}
 80014e0:	40021000 	.word	0x40021000
 80014e4:	40010c00 	.word	0x40010c00

080014e8 <HAL_TIM_PWM_PulseFinishedCallback>:
 * @brief DMA transfer complete callback for WS2812B
 * @param hdma: DMA handle
 * @retval None
 */
void HAL_TIM_PWM_PulseFinishedCallback(TIM_HandleTypeDef *htim)
{
 80014e8:	b580      	push	{r7, lr}
 80014ea:	b082      	sub	sp, #8
 80014ec:	af00      	add	r7, sp, #0
 80014ee:	6078      	str	r0, [r7, #4]
  /* Check if this is TIM2 channel 1 */
  if (htim->Instance == TIM2) {
 80014f0:	687b      	ldr	r3, [r7, #4]
 80014f2:	681b      	ldr	r3, [r3, #0]
 80014f4:	f1b3 4f80 	cmp.w	r3, #1073741824	@ 0x40000000
 80014f8:	d102      	bne.n	8001500 <HAL_TIM_PWM_PulseFinishedCallback+0x18>
    WS2812B_DMA_Complete_Callback(&hdma_tim2_ch1);
 80014fa:	4803      	ldr	r0, [pc, #12]	@ (8001508 <HAL_TIM_PWM_PulseFinishedCallback+0x20>)
 80014fc:	f002 f960 	bl	80037c0 <WS2812B_DMA_Complete_Callback>
  }
}
 8001500:	bf00      	nop
 8001502:	3708      	adds	r7, #8
 8001504:	46bd      	mov	sp, r7
 8001506:	bd80      	pop	{r7, pc}
 8001508:	200002b4 	.word	0x200002b4

0800150c <App_Init>:
/**
 * @brief Application initialization function
 * @retval None
 */
void App_Init(void)
{
 800150c:	b580      	push	{r7, lr}
 800150e:	af00      	add	r7, sp, #0
  /* Initialize game statistics */
  memset(&game_stats, 0, sizeof(GameStats_t));
 8001510:	2220      	movs	r2, #32
 8001512:	2100      	movs	r1, #0
 8001514:	4813      	ldr	r0, [pc, #76]	@ (8001564 <App_Init+0x58>)
 8001516:	f005 fc5b 	bl	8006dd0 <memset>

  /* Initialize game control module */
  if (Game_Control_Init() != GAME_CTRL_OK) {
 800151a:	f7fe ff7d 	bl	8000418 <Game_Control_Init>
 800151e:	4603      	mov	r3, r0
 8001520:	2b00      	cmp	r3, #0
 8001522:	d001      	beq.n	8001528 <App_Init+0x1c>
    DEBUG_ERROR("[INIT] Game Control...FAILED\r\n");
    Error_Handler();
 8001524:	f000 fe93 	bl	800224e <Error_Handler>
  }
  DEBUG_INFO("[INIT] Game Control...OK\r\n");

  /* Initialize challenge mode module */
  if (Challenge_Init() != CHALLENGE_OK) {
 8001528:	f7fe fe18 	bl	800015c <Challenge_Init>
 800152c:	4603      	mov	r3, r0
 800152e:	2b00      	cmp	r3, #0
 8001530:	d001      	beq.n	8001536 <App_Init+0x2a>
    DEBUG_ERROR("[INIT] Challenge Mode...FAILED\r\n");
    Error_Handler();
 8001532:	f000 fe8c 	bl	800224e <Error_Handler>
  }
  DEBUG_INFO("[INIT] Challenge Mode...OK\r\n");

  /* Initialize LED text display module */
  if (LED_Text_Init() != LED_TEXT_OK) {
 8001536:	f7ff fcc5 	bl	8000ec4 <LED_Text_Init>
 800153a:	4603      	mov	r3, r0
 800153c:	2b00      	cmp	r3, #0
 800153e:	d001      	beq.n	8001544 <App_Init+0x38>
    DEBUG_ERROR("[INIT] LED Text...FAILED\r\n");
    Error_Handler();
 8001540:	f000 fe85 	bl	800224e <Error_Handler>
  }
  DEBUG_INFO("[INIT] LED Text...OK\r\n");

  /* Start new game */
  if (Othello_NewGame(&game_state) == OTHELLO_OK) {
 8001544:	4808      	ldr	r0, [pc, #32]	@ (8001568 <App_Init+0x5c>)
 8001546:	f000 fe9f 	bl	8002288 <Othello_NewGame>
 800154a:	4603      	mov	r3, r0
 800154c:	2b00      	cmp	r3, #0
 800154e:	d102      	bne.n	8001556 <App_Init+0x4a>
    game_initialized = true;
 8001550:	4b06      	ldr	r3, [pc, #24]	@ (800156c <App_Init+0x60>)
 8001552:	2201      	movs	r2, #1
 8001554:	701a      	strb	r2, [r3, #0]
  }

  /* Initialize LED display */
  WS2812B_Clear();
 8001556:	f002 f8c9 	bl	80036ec <WS2812B_Clear>

  /* Display initial game board */
  App_DisplayGameBoard();
 800155a:	f000 f86d 	bl	8001638 <App_DisplayGameBoard>
}
 800155e:	bf00      	nop
 8001560:	bd80      	pop	{r7, pc}
 8001562:	bf00      	nop
 8001564:	200003dc 	.word	0x200003dc
 8001568:	20000340 	.word	0x20000340
 800156c:	200003fc 	.word	0x200003fc

08001570 <App_Main_Loop>:
/**
 * @brief Main application loop function
 * @retval None
 */
void App_Main_Loop(void)
{
 8001570:	b580      	push	{r7, lr}
 8001572:	b084      	sub	sp, #16
 8001574:	af00      	add	r7, sp, #0
  /* === Priority 1: Process pending game end (set from interrupt context) === */
  if (game_end_pending) {
 8001576:	4b13      	ldr	r3, [pc, #76]	@ (80015c4 <App_Main_Loop+0x54>)
 8001578:	781b      	ldrb	r3, [r3, #0]
 800157a:	b2db      	uxtb	r3, r3
 800157c:	2b00      	cmp	r3, #0
 800157e:	d005      	beq.n	800158c <App_Main_Loop+0x1c>
    game_end_pending = false;  // Clear flag
 8001580:	4b10      	ldr	r3, [pc, #64]	@ (80015c4 <App_Main_Loop+0x54>)
 8001582:	2200      	movs	r2, #0
 8001584:	701a      	strb	r2, [r3, #0]
    DEBUG_INFO("[APP_LOOP] Processing pending game end from interrupt...\r\n");
    App_HandleGameOver();  // Safe to call in main loop context
 8001586:	f000 fa57 	bl	8001a38 <App_HandleGameOver>
 800158a:	e018      	b.n	80015be <App_Main_Loop+0x4e>
    DEBUG_INFO("[APP_LOOP] Game end processing completed\r\n");
    return;  // Process only game end in this iteration
  }

  /* Process keypad events */
  Key_t key_event = Keypad_GetKey();
 800158c:	1d3b      	adds	r3, r7, #4
 800158e:	4618      	mov	r0, r3
 8001590:	f7ff fa8e 	bl	8000ab0 <Keypad_GetKey>
  if (key_event.state != KEY_RELEASED) {
 8001594:	79bb      	ldrb	r3, [r7, #6]
 8001596:	2b00      	cmp	r3, #0
 8001598:	d003      	beq.n	80015a2 <App_Main_Loop+0x32>
    /* Key event occurred, process it */
    App_ProcessKeyEvent(&key_event);
 800159a:	1d3b      	adds	r3, r7, #4
 800159c:	4618      	mov	r0, r3
 800159e:	f000 f8c9 	bl	8001734 <App_ProcessKeyEvent>
  }

  /* Update game board display */
  App_UpdateGameDisplay();
 80015a2:	f000 fa2b 	bl	80019fc <App_UpdateGameDisplay>

  /* Check for game over conditions (local game end) */
  if (game_initialized && Othello_IsGameOver(&game_state)) {
 80015a6:	4b08      	ldr	r3, [pc, #32]	@ (80015c8 <App_Main_Loop+0x58>)
 80015a8:	781b      	ldrb	r3, [r3, #0]
 80015aa:	2b00      	cmp	r3, #0
 80015ac:	d007      	beq.n	80015be <App_Main_Loop+0x4e>
 80015ae:	4807      	ldr	r0, [pc, #28]	@ (80015cc <App_Main_Loop+0x5c>)
 80015b0:	f000 ffc2 	bl	8002538 <Othello_IsGameOver>
 80015b4:	4603      	mov	r3, r0
 80015b6:	2b00      	cmp	r3, #0
 80015b8:	d001      	beq.n	80015be <App_Main_Loop+0x4e>
    App_HandleGameOver();
 80015ba:	f000 fa3d 	bl	8001a38 <App_HandleGameOver>
  }
}
 80015be:	3710      	adds	r7, #16
 80015c0:	46bd      	mov	sp, r7
 80015c2:	bd80      	pop	{r7, pc}
 80015c4:	20000405 	.word	0x20000405
 80015c8:	200003fc 	.word	0x200003fc
 80015cc:	20000340 	.word	0x20000340

080015d0 <App_UpdateCursor>:
/**
 * @brief Update cursor display with blinking effect
 * @retval None
 */
void App_UpdateCursor(void)
{
 80015d0:	b580      	push	{r7, lr}
 80015d2:	b082      	sub	sp, #8
 80015d4:	af00      	add	r7, sp, #0
  if (!game_initialized) {
 80015d6:	4b15      	ldr	r3, [pc, #84]	@ (800162c <App_UpdateCursor+0x5c>)
 80015d8:	781b      	ldrb	r3, [r3, #0]
 80015da:	f083 0301 	eor.w	r3, r3, #1
 80015de:	b2db      	uxtb	r3, r3
 80015e0:	2b00      	cmp	r3, #0
 80015e2:	d11e      	bne.n	8001622 <App_UpdateCursor+0x52>
    return;
  }

  uint32_t current_time = HAL_GetTick();
 80015e4:	f002 fa02 	bl	80039ec <HAL_GetTick>
 80015e8:	6078      	str	r0, [r7, #4]

  // Toggle cursor visibility every 500ms
  if (current_time - cursor_blink_timer >= 500) {
 80015ea:	4b11      	ldr	r3, [pc, #68]	@ (8001630 <App_UpdateCursor+0x60>)
 80015ec:	681b      	ldr	r3, [r3, #0]
 80015ee:	687a      	ldr	r2, [r7, #4]
 80015f0:	1ad3      	subs	r3, r2, r3
 80015f2:	f5b3 7ffa 	cmp.w	r3, #500	@ 0x1f4
 80015f6:	d315      	bcc.n	8001624 <App_UpdateCursor+0x54>
    cursor_blink_timer = current_time;
 80015f8:	4a0d      	ldr	r2, [pc, #52]	@ (8001630 <App_UpdateCursor+0x60>)
 80015fa:	687b      	ldr	r3, [r7, #4]
 80015fc:	6013      	str	r3, [r2, #0]
    cursor_visible = !cursor_visible;
 80015fe:	4b0d      	ldr	r3, [pc, #52]	@ (8001634 <App_UpdateCursor+0x64>)
 8001600:	781b      	ldrb	r3, [r3, #0]
 8001602:	2b00      	cmp	r3, #0
 8001604:	bf14      	ite	ne
 8001606:	2301      	movne	r3, #1
 8001608:	2300      	moveq	r3, #0
 800160a:	b2db      	uxtb	r3, r3
 800160c:	f083 0301 	eor.w	r3, r3, #1
 8001610:	b2db      	uxtb	r3, r3
 8001612:	f003 0301 	and.w	r3, r3, #1
 8001616:	b2da      	uxtb	r2, r3
 8001618:	4b06      	ldr	r3, [pc, #24]	@ (8001634 <App_UpdateCursor+0x64>)
 800161a:	701a      	strb	r2, [r3, #0]

    // Redraw board to update cursor
    App_DisplayGameBoard();
 800161c:	f000 f80c 	bl	8001638 <App_DisplayGameBoard>
 8001620:	e000      	b.n	8001624 <App_UpdateCursor+0x54>
    return;
 8001622:	bf00      	nop
  }
}
 8001624:	3708      	adds	r7, #8
 8001626:	46bd      	mov	sp, r7
 8001628:	bd80      	pop	{r7, pc}
 800162a:	bf00      	nop
 800162c:	200003fc 	.word	0x200003fc
 8001630:	20000400 	.word	0x20000400
 8001634:	20000022 	.word	0x20000022

08001638 <App_DisplayGameBoard>:
/**
 * @brief Display game board on LED matrix
 * @retval None
 */
void App_DisplayGameBoard(void)
{
 8001638:	b580      	push	{r7, lr}
 800163a:	b084      	sub	sp, #16
 800163c:	af00      	add	r7, sp, #0
  if (!game_initialized) {
 800163e:	4b36      	ldr	r3, [pc, #216]	@ (8001718 <App_DisplayGameBoard+0xe0>)
 8001640:	781b      	ldrb	r3, [r3, #0]
 8001642:	f083 0301 	eor.w	r3, r3, #1
 8001646:	b2db      	uxtb	r3, r3
 8001648:	2b00      	cmp	r3, #0
 800164a:	d161      	bne.n	8001710 <App_DisplayGameBoard+0xd8>
    return;
  }

  WS2812B_Clear();
 800164c:	f002 f84e 	bl	80036ec <WS2812B_Clear>

  /* Display game pieces on LED matrix */
  for (uint8_t row = 0; row < 8; row++) {
 8001650:	2300      	movs	r3, #0
 8001652:	73fb      	strb	r3, [r7, #15]
 8001654:	e037      	b.n	80016c6 <App_DisplayGameBoard+0x8e>
    for (uint8_t col = 0; col < 8; col++) {
 8001656:	2300      	movs	r3, #0
 8001658:	73bb      	strb	r3, [r7, #14]
 800165a:	e02e      	b.n	80016ba <App_DisplayGameBoard+0x82>
      PieceType_t piece = Othello_GetPiece(&game_state, row, col);
 800165c:	7bba      	ldrb	r2, [r7, #14]
 800165e:	7bfb      	ldrb	r3, [r7, #15]
 8001660:	4619      	mov	r1, r3
 8001662:	482e      	ldr	r0, [pc, #184]	@ (800171c <App_DisplayGameBoard+0xe4>)
 8001664:	f001 f854 	bl	8002710 <Othello_GetPiece>
 8001668:	4603      	mov	r3, r0
 800166a:	733b      	strb	r3, [r7, #12]

      if (piece == PIECE_BLACK) {
 800166c:	7b3b      	ldrb	r3, [r7, #12]
 800166e:	2b01      	cmp	r3, #1
 8001670:	d10f      	bne.n	8001692 <App_DisplayGameBoard+0x5a>
        WS2812B_SetPixel(row, col, WS2812B_COLOR_ORANGE);  // Black piece (Orange for visibility)
 8001672:	4a2b      	ldr	r2, [pc, #172]	@ (8001720 <App_DisplayGameBoard+0xe8>)
 8001674:	f107 0308 	add.w	r3, r7, #8
 8001678:	6812      	ldr	r2, [r2, #0]
 800167a:	4611      	mov	r1, r2
 800167c:	8019      	strh	r1, [r3, #0]
 800167e:	3302      	adds	r3, #2
 8001680:	0c12      	lsrs	r2, r2, #16
 8001682:	701a      	strb	r2, [r3, #0]
 8001684:	7bb9      	ldrb	r1, [r7, #14]
 8001686:	7bfb      	ldrb	r3, [r7, #15]
 8001688:	68ba      	ldr	r2, [r7, #8]
 800168a:	4618      	mov	r0, r3
 800168c:	f001 fffc 	bl	8003688 <WS2812B_SetPixel>
 8001690:	e010      	b.n	80016b4 <App_DisplayGameBoard+0x7c>
      } else if (piece == PIECE_WHITE) {
 8001692:	7b3b      	ldrb	r3, [r7, #12]
 8001694:	2b02      	cmp	r3, #2
 8001696:	d10d      	bne.n	80016b4 <App_DisplayGameBoard+0x7c>
        WS2812B_SetPixel(row, col, WS2812B_COLOR_WHITE);  // White piece
 8001698:	4a22      	ldr	r2, [pc, #136]	@ (8001724 <App_DisplayGameBoard+0xec>)
 800169a:	1d3b      	adds	r3, r7, #4
 800169c:	6812      	ldr	r2, [r2, #0]
 800169e:	4611      	mov	r1, r2
 80016a0:	8019      	strh	r1, [r3, #0]
 80016a2:	3302      	adds	r3, #2
 80016a4:	0c12      	lsrs	r2, r2, #16
 80016a6:	701a      	strb	r2, [r3, #0]
 80016a8:	7bb9      	ldrb	r1, [r7, #14]
 80016aa:	7bfb      	ldrb	r3, [r7, #15]
 80016ac:	687a      	ldr	r2, [r7, #4]
 80016ae:	4618      	mov	r0, r3
 80016b0:	f001 ffea 	bl	8003688 <WS2812B_SetPixel>
    for (uint8_t col = 0; col < 8; col++) {
 80016b4:	7bbb      	ldrb	r3, [r7, #14]
 80016b6:	3301      	adds	r3, #1
 80016b8:	73bb      	strb	r3, [r7, #14]
 80016ba:	7bbb      	ldrb	r3, [r7, #14]
 80016bc:	2b07      	cmp	r3, #7
 80016be:	d9cd      	bls.n	800165c <App_DisplayGameBoard+0x24>
  for (uint8_t row = 0; row < 8; row++) {
 80016c0:	7bfb      	ldrb	r3, [r7, #15]
 80016c2:	3301      	adds	r3, #1
 80016c4:	73fb      	strb	r3, [r7, #15]
 80016c6:	7bfb      	ldrb	r3, [r7, #15]
 80016c8:	2b07      	cmp	r3, #7
 80016ca:	d9c4      	bls.n	8001656 <App_DisplayGameBoard+0x1e>
      /* Empty positions remain off */
    }
  }

  /* Display cursor (green blinking) */
  if (cursor_visible) {
 80016cc:	4b16      	ldr	r3, [pc, #88]	@ (8001728 <App_DisplayGameBoard+0xf0>)
 80016ce:	781b      	ldrb	r3, [r3, #0]
 80016d0:	2b00      	cmp	r3, #0
 80016d2:	d01a      	beq.n	800170a <App_DisplayGameBoard+0xd2>
    PieceType_t cursor_piece = Othello_GetPiece(&game_state, cursor_row, cursor_col);
 80016d4:	4b15      	ldr	r3, [pc, #84]	@ (800172c <App_DisplayGameBoard+0xf4>)
 80016d6:	781b      	ldrb	r3, [r3, #0]
 80016d8:	4a15      	ldr	r2, [pc, #84]	@ (8001730 <App_DisplayGameBoard+0xf8>)
 80016da:	7812      	ldrb	r2, [r2, #0]
 80016dc:	4619      	mov	r1, r3
 80016de:	480f      	ldr	r0, [pc, #60]	@ (800171c <App_DisplayGameBoard+0xe4>)
 80016e0:	f001 f816 	bl	8002710 <Othello_GetPiece>
 80016e4:	4603      	mov	r3, r0
 80016e6:	737b      	strb	r3, [r7, #13]
    if (cursor_piece == PIECE_EMPTY) {
 80016e8:	7b7b      	ldrb	r3, [r7, #13]
 80016ea:	2b00      	cmp	r3, #0
 80016ec:	d10d      	bne.n	800170a <App_DisplayGameBoard+0xd2>
      // Empty position: show green cursor
      WS2812B_SetPixel(cursor_row, cursor_col, WS2812B_COLOR_GREEN);
 80016ee:	4b0f      	ldr	r3, [pc, #60]	@ (800172c <App_DisplayGameBoard+0xf4>)
 80016f0:	781b      	ldrb	r3, [r3, #0]
 80016f2:	4a0f      	ldr	r2, [pc, #60]	@ (8001730 <App_DisplayGameBoard+0xf8>)
 80016f4:	7811      	ldrb	r1, [r2, #0]
 80016f6:	2200      	movs	r2, #0
 80016f8:	703a      	strb	r2, [r7, #0]
 80016fa:	22ff      	movs	r2, #255	@ 0xff
 80016fc:	707a      	strb	r2, [r7, #1]
 80016fe:	2200      	movs	r2, #0
 8001700:	70ba      	strb	r2, [r7, #2]
 8001702:	683a      	ldr	r2, [r7, #0]
 8001704:	4618      	mov	r0, r3
 8001706:	f001 ffbf 	bl	8003688 <WS2812B_SetPixel>
    }
    // If there's a piece at cursor position, don't show cursor (or could use dimmed green)
  }

  WS2812B_Update();
 800170a:	f002 f803 	bl	8003714 <WS2812B_Update>
 800170e:	e000      	b.n	8001712 <App_DisplayGameBoard+0xda>
    return;
 8001710:	bf00      	nop
}
 8001712:	3710      	adds	r7, #16
 8001714:	46bd      	mov	sp, r7
 8001716:	bd80      	pop	{r7, pc}
 8001718:	200003fc 	.word	0x200003fc
 800171c:	20000340 	.word	0x20000340
 8001720:	08007848 	.word	0x08007848
 8001724:	0800784c 	.word	0x0800784c
 8001728:	20000022 	.word	0x20000022
 800172c:	20000020 	.word	0x20000020
 8001730:	20000021 	.word	0x20000021

08001734 <App_ProcessKeyEvent>:
 * @brief Process key event for game controls
 * @param key_event Pointer to key event structure
 * @retval None
 */
void App_ProcessKeyEvent(Key_t* key_event)
{
 8001734:	b580      	push	{r7, lr}
 8001736:	b084      	sub	sp, #16
 8001738:	af00      	add	r7, sp, #0
 800173a:	6078      	str	r0, [r7, #4]
  if (!game_initialized || !key_event) {
 800173c:	4b99      	ldr	r3, [pc, #612]	@ (80019a4 <App_ProcessKeyEvent+0x270>)
 800173e:	781b      	ldrb	r3, [r3, #0]
 8001740:	f083 0301 	eor.w	r3, r3, #1
 8001744:	b2db      	uxtb	r3, r3
 8001746:	2b00      	cmp	r3, #0
 8001748:	f040 811a 	bne.w	8001980 <App_ProcessKeyEvent+0x24c>
 800174c:	687b      	ldr	r3, [r7, #4]
 800174e:	2b00      	cmp	r3, #0
 8001750:	f000 8116 	beq.w	8001980 <App_ProcessKeyEvent+0x24c>
    return;
  }

  Keypad_LogicalKey_t logical_key = Keypad_PhysicalToLogical(key_event->row, key_event->col);
 8001754:	687b      	ldr	r3, [r7, #4]
 8001756:	781a      	ldrb	r2, [r3, #0]
 8001758:	687b      	ldr	r3, [r7, #4]
 800175a:	785b      	ldrb	r3, [r3, #1]
 800175c:	4619      	mov	r1, r3
 800175e:	4610      	mov	r0, r2
 8001760:	f7ff fb92 	bl	8000e88 <Keypad_PhysicalToLogical>
 8001764:	4603      	mov	r3, r0
 8001766:	73fb      	strb	r3, [r7, #15]

  DEBUG_INFO("[APP] ProcessKey: R%d C%d Logical=%d State=%d\r\n",
             key_event->row, key_event->col, logical_key, key_event->state);

  /* Handle key press */
  if (key_event->state == KEY_PRESSED) {
 8001768:	687b      	ldr	r3, [r7, #4]
 800176a:	789b      	ldrb	r3, [r3, #2]
 800176c:	2b01      	cmp	r3, #1
 800176e:	f040 8116 	bne.w	800199e <App_ProcessKeyEvent+0x26a>
    // First, try to handle as game control key
    if (Game_Control_HandleKey(logical_key, &game_state)) {
 8001772:	7bfb      	ldrb	r3, [r7, #15]
 8001774:	498c      	ldr	r1, [pc, #560]	@ (80019a8 <App_ProcessKeyEvent+0x274>)
 8001776:	4618      	mov	r0, r3
 8001778:	f7fe ffa2 	bl	80006c0 <Game_Control_HandleKey>
 800177c:	4603      	mov	r3, r0
 800177e:	2b00      	cmp	r3, #0
 8001780:	d005      	beq.n	800178e <App_ProcessKeyEvent+0x5a>
      DEBUG_INFO("[APP] Game control key handled: %d\r\n", logical_key);
      App_DisplayGameBoard();
 8001782:	f7ff ff59 	bl	8001638 <App_DisplayGameBoard>
      Send_GameState_Via_Protocol(&game_state);
 8001786:	4888      	ldr	r0, [pc, #544]	@ (80019a8 <App_ProcessKeyEvent+0x274>)
 8001788:	f7ff fcbf 	bl	800110a <Send_GameState_Via_Protocol>
      return;  // Key was handled by game control
 800178c:	e107      	b.n	800199e <App_ProcessKeyEvent+0x26a>
    }

    // Handle 'C' key for cheat mode toggle
    if (logical_key == KEYPAD_KEY_C) {
 800178e:	7bfb      	ldrb	r3, [r7, #15]
 8001790:	2b0b      	cmp	r3, #11
 8001792:	d11f      	bne.n	80017d4 <App_ProcessKeyEvent+0xa0>
      // Toggle cheat mode
      if (current_game_mode == GAME_MODE_CHEAT) {
 8001794:	4b85      	ldr	r3, [pc, #532]	@ (80019ac <App_ProcessKeyEvent+0x278>)
 8001796:	781b      	ldrb	r3, [r3, #0]
 8001798:	2b04      	cmp	r3, #4
 800179a:	d10b      	bne.n	80017b4 <App_ProcessKeyEvent+0x80>
        // Exit cheat mode, return to normal mode
        current_game_mode = GAME_MODE_NORMAL;
 800179c:	4b83      	ldr	r3, [pc, #524]	@ (80019ac <App_ProcessKeyEvent+0x278>)
 800179e:	2201      	movs	r2, #1
 80017a0:	701a      	strb	r2, [r3, #0]
        game_state.game_mode = GAME_MODE_NORMAL;
 80017a2:	4b81      	ldr	r3, [pc, #516]	@ (80019a8 <App_ProcessKeyEvent+0x274>)
 80017a4:	2201      	movs	r2, #1
 80017a6:	f883 2099 	strb.w	r2, [r3, #153]	@ 0x99
        game_state.current_player = PIECE_BLACK;
 80017aa:	4b7f      	ldr	r3, [pc, #508]	@ (80019a8 <App_ProcessKeyEvent+0x274>)
 80017ac:	2201      	movs	r2, #1
 80017ae:	f883 2040 	strb.w	r2, [r3, #64]	@ 0x40
 80017b2:	e009      	b.n	80017c8 <App_ProcessKeyEvent+0x94>
        DEBUG_INFO("[APP] Exited cheat mode -> Normal mode\r\n");
      } else {
        // Enter cheat mode
        current_game_mode = GAME_MODE_CHEAT;
 80017b4:	4b7d      	ldr	r3, [pc, #500]	@ (80019ac <App_ProcessKeyEvent+0x278>)
 80017b6:	2204      	movs	r2, #4
 80017b8:	701a      	strb	r2, [r3, #0]
        Othello_ResetState(&game_state);
 80017ba:	487b      	ldr	r0, [pc, #492]	@ (80019a8 <App_ProcessKeyEvent+0x274>)
 80017bc:	f000 ffc7 	bl	800274e <Othello_ResetState>
        game_state.game_mode = GAME_MODE_CHEAT;
 80017c0:	4b79      	ldr	r3, [pc, #484]	@ (80019a8 <App_ProcessKeyEvent+0x274>)
 80017c2:	2204      	movs	r2, #4
 80017c4:	f883 2099 	strb.w	r2, [r3, #153]	@ 0x99
        // Keep current_player as is (will be set by PC or default BLACK)
        DEBUG_INFO("[APP] Entered cheat mode\r\n");
      }

      App_DisplayGameBoard();
 80017c8:	f7ff ff36 	bl	8001638 <App_DisplayGameBoard>
      Send_GameState_Via_Protocol(&game_state);
 80017cc:	4876      	ldr	r0, [pc, #472]	@ (80019a8 <App_ProcessKeyEvent+0x274>)
 80017ce:	f7ff fc9c 	bl	800110a <Send_GameState_Via_Protocol>
      return;
 80017d2:	e0e4      	b.n	800199e <App_ProcessKeyEvent+0x26a>
    }

    // Check if game is in playing state before processing game keys
    if (!GAME_CTRL_IS_PLAYING(Game_Control_GetContext())) {
 80017d4:	f7fe ffdc 	bl	8000790 <Game_Control_GetContext>
 80017d8:	4603      	mov	r3, r0
 80017da:	781b      	ldrb	r3, [r3, #0]
 80017dc:	2b01      	cmp	r3, #1
 80017de:	f040 80d1 	bne.w	8001984 <App_ProcessKeyEvent+0x250>
      DEBUG_INFO("[APP] Game not in PLAYING state, ignoring key\r\n");
      return;
    }

    switch (logical_key) {
 80017e2:	7bfb      	ldrb	r3, [r7, #15]
 80017e4:	2b0f      	cmp	r3, #15
 80017e6:	f200 80cf 	bhi.w	8001988 <App_ProcessKeyEvent+0x254>
 80017ea:	a201      	add	r2, pc, #4	@ (adr r2, 80017f0 <App_ProcessKeyEvent+0xbc>)
 80017ec:	f852 f023 	ldr.w	pc, [r2, r3, lsl #2]
 80017f0:	08001989 	.word	0x08001989
 80017f4:	08001831 	.word	0x08001831
 80017f8:	08001989 	.word	0x08001989
 80017fc:	08001989 	.word	0x08001989
 8001800:	0800185d 	.word	0x0800185d
 8001804:	08001889 	.word	0x08001889
 8001808:	08001907 	.word	0x08001907
 800180c:	08001989 	.word	0x08001989
 8001810:	08001989 	.word	0x08001989
 8001814:	08001931 	.word	0x08001931
 8001818:	08001979 	.word	0x08001979
 800181c:	08001989 	.word	0x08001989
 8001820:	08001989 	.word	0x08001989
 8001824:	0800195b 	.word	0x0800195b
 8001828:	08001989 	.word	0x08001989
 800182c:	08001989 	.word	0x08001989
      case KEYPAD_KEY_1: // Start Game (handled by game control above)
        // This case is now handled by Game_Control_HandleKey
        break;

      case KEYPAD_KEY_2: // Move Up
        if (cursor_row > 0) {
 8001830:	4b5f      	ldr	r3, [pc, #380]	@ (80019b0 <App_ProcessKeyEvent+0x27c>)
 8001832:	781b      	ldrb	r3, [r3, #0]
 8001834:	2b00      	cmp	r3, #0
 8001836:	f000 80a9 	beq.w	800198c <App_ProcessKeyEvent+0x258>
          cursor_row--;
 800183a:	4b5d      	ldr	r3, [pc, #372]	@ (80019b0 <App_ProcessKeyEvent+0x27c>)
 800183c:	781b      	ldrb	r3, [r3, #0]
 800183e:	3b01      	subs	r3, #1
 8001840:	b2da      	uxtb	r2, r3
 8001842:	4b5b      	ldr	r3, [pc, #364]	@ (80019b0 <App_ProcessKeyEvent+0x27c>)
 8001844:	701a      	strb	r2, [r3, #0]
          DEBUG_INFO("[APP] Cursor UP: (%d,%d)\r\n", cursor_row, cursor_col);
          cursor_visible = true;  // Show cursor immediately when moving
 8001846:	4b5b      	ldr	r3, [pc, #364]	@ (80019b4 <App_ProcessKeyEvent+0x280>)
 8001848:	2201      	movs	r2, #1
 800184a:	701a      	strb	r2, [r3, #0]
          cursor_blink_timer = HAL_GetTick();  // Reset blink timer
 800184c:	f002 f8ce 	bl	80039ec <HAL_GetTick>
 8001850:	4603      	mov	r3, r0
 8001852:	4a59      	ldr	r2, [pc, #356]	@ (80019b8 <App_ProcessKeyEvent+0x284>)
 8001854:	6013      	str	r3, [r2, #0]
          App_DisplayGameBoard();
 8001856:	f7ff feef 	bl	8001638 <App_DisplayGameBoard>
        } else {
          DEBUG_INFO("[APP] Cursor at top edge\r\n");
        }
        break;
 800185a:	e097      	b.n	800198c <App_ProcessKeyEvent+0x258>

      case KEYPAD_KEY_4: // Move Left
        if (cursor_col > 0) {
 800185c:	4b57      	ldr	r3, [pc, #348]	@ (80019bc <App_ProcessKeyEvent+0x288>)
 800185e:	781b      	ldrb	r3, [r3, #0]
 8001860:	2b00      	cmp	r3, #0
 8001862:	f000 8095 	beq.w	8001990 <App_ProcessKeyEvent+0x25c>
          cursor_col--;
 8001866:	4b55      	ldr	r3, [pc, #340]	@ (80019bc <App_ProcessKeyEvent+0x288>)
 8001868:	781b      	ldrb	r3, [r3, #0]
 800186a:	3b01      	subs	r3, #1
 800186c:	b2da      	uxtb	r2, r3
 800186e:	4b53      	ldr	r3, [pc, #332]	@ (80019bc <App_ProcessKeyEvent+0x288>)
 8001870:	701a      	strb	r2, [r3, #0]
          DEBUG_INFO("[APP] Cursor LEFT: (%d,%d)\r\n", cursor_row, cursor_col);
          cursor_visible = true;
 8001872:	4b50      	ldr	r3, [pc, #320]	@ (80019b4 <App_ProcessKeyEvent+0x280>)
 8001874:	2201      	movs	r2, #1
 8001876:	701a      	strb	r2, [r3, #0]
          cursor_blink_timer = HAL_GetTick();
 8001878:	f002 f8b8 	bl	80039ec <HAL_GetTick>
 800187c:	4603      	mov	r3, r0
 800187e:	4a4e      	ldr	r2, [pc, #312]	@ (80019b8 <App_ProcessKeyEvent+0x284>)
 8001880:	6013      	str	r3, [r2, #0]
          App_DisplayGameBoard();
 8001882:	f7ff fed9 	bl	8001638 <App_DisplayGameBoard>
        } else {
          DEBUG_INFO("[APP] Cursor at left edge\r\n");
        }
        break;
 8001886:	e083      	b.n	8001990 <App_ProcessKeyEvent+0x25c>

      case KEYPAD_KEY_5: // Place Piece at Cursor
        DEBUG_INFO("[APP] Place piece at cursor (%d,%d)\r\n", cursor_row, cursor_col);
        if (Othello_IsValidMove(&game_state, cursor_row, cursor_col, game_state.current_player)) {
 8001888:	4b49      	ldr	r3, [pc, #292]	@ (80019b0 <App_ProcessKeyEvent+0x27c>)
 800188a:	7819      	ldrb	r1, [r3, #0]
 800188c:	4b4b      	ldr	r3, [pc, #300]	@ (80019bc <App_ProcessKeyEvent+0x288>)
 800188e:	781a      	ldrb	r2, [r3, #0]
 8001890:	4b45      	ldr	r3, [pc, #276]	@ (80019a8 <App_ProcessKeyEvent+0x274>)
 8001892:	f893 3040 	ldrb.w	r3, [r3, #64]	@ 0x40
 8001896:	4844      	ldr	r0, [pc, #272]	@ (80019a8 <App_ProcessKeyEvent+0x274>)
 8001898:	f000 fd58 	bl	800234c <Othello_IsValidMove>
 800189c:	4603      	mov	r3, r0
 800189e:	2b00      	cmp	r3, #0
 80018a0:	d01b      	beq.n	80018da <App_ProcessKeyEvent+0x1a6>
          uint8_t flipped = Othello_MakeMove(&game_state, cursor_row, cursor_col, game_state.current_player);
 80018a2:	4b43      	ldr	r3, [pc, #268]	@ (80019b0 <App_ProcessKeyEvent+0x27c>)
 80018a4:	7819      	ldrb	r1, [r3, #0]
 80018a6:	4b45      	ldr	r3, [pc, #276]	@ (80019bc <App_ProcessKeyEvent+0x288>)
 80018a8:	781a      	ldrb	r2, [r3, #0]
 80018aa:	4b3f      	ldr	r3, [pc, #252]	@ (80019a8 <App_ProcessKeyEvent+0x274>)
 80018ac:	f893 3040 	ldrb.w	r3, [r3, #64]	@ 0x40
 80018b0:	483d      	ldr	r0, [pc, #244]	@ (80019a8 <App_ProcessKeyEvent+0x274>)
 80018b2:	f000 fd85 	bl	80023c0 <Othello_MakeMove>
 80018b6:	4603      	mov	r3, r0
 80018b8:	73bb      	strb	r3, [r7, #14]
          if (flipped > 0) {
 80018ba:	7bbb      	ldrb	r3, [r7, #14]
 80018bc:	2b00      	cmp	r3, #0
 80018be:	d069      	beq.n	8001994 <App_ProcessKeyEvent+0x260>
            DEBUG_INFO("[APP] Move SUCCESS: flipped %d pieces\r\n", flipped);
            App_DisplayGameBoard();
 80018c0:	f7ff feba 	bl	8001638 <App_DisplayGameBoard>
            Send_GameState_Via_Protocol(&game_state);
 80018c4:	4838      	ldr	r0, [pc, #224]	@ (80019a8 <App_ProcessKeyEvent+0x274>)
 80018c6:	f7ff fc20 	bl	800110a <Send_GameState_Via_Protocol>

            // Check if game is over
            if (game_state.status != GAME_STATUS_PLAYING) {
 80018ca:	4b37      	ldr	r3, [pc, #220]	@ (80019a8 <App_ProcessKeyEvent+0x274>)
 80018cc:	f893 3043 	ldrb.w	r3, [r3, #67]	@ 0x43
 80018d0:	2b00      	cmp	r3, #0
 80018d2:	d05f      	beq.n	8001994 <App_ProcessKeyEvent+0x260>
              DEBUG_INFO("[APP] Game Over! Winner: %d\r\n",
                        Othello_GetWinner(&game_state));
              // Print game history to debug console
              App_PrintGameHistory();
 80018d4:	f000 f874 	bl	80019c0 <App_PrintGameHistory>
          WS2812B_SetPixel(cursor_row, cursor_col, WS2812B_COLOR_RED);
          WS2812B_Update();
          HAL_Delay(200);
          App_DisplayGameBoard();
        }
        break;
 80018d8:	e05c      	b.n	8001994 <App_ProcessKeyEvent+0x260>
          WS2812B_SetPixel(cursor_row, cursor_col, WS2812B_COLOR_RED);
 80018da:	4b35      	ldr	r3, [pc, #212]	@ (80019b0 <App_ProcessKeyEvent+0x27c>)
 80018dc:	781b      	ldrb	r3, [r3, #0]
 80018de:	4a37      	ldr	r2, [pc, #220]	@ (80019bc <App_ProcessKeyEvent+0x288>)
 80018e0:	7811      	ldrb	r1, [r2, #0]
 80018e2:	22ff      	movs	r2, #255	@ 0xff
 80018e4:	723a      	strb	r2, [r7, #8]
 80018e6:	2200      	movs	r2, #0
 80018e8:	727a      	strb	r2, [r7, #9]
 80018ea:	2200      	movs	r2, #0
 80018ec:	72ba      	strb	r2, [r7, #10]
 80018ee:	68ba      	ldr	r2, [r7, #8]
 80018f0:	4618      	mov	r0, r3
 80018f2:	f001 fec9 	bl	8003688 <WS2812B_SetPixel>
          WS2812B_Update();
 80018f6:	f001 ff0d 	bl	8003714 <WS2812B_Update>
          HAL_Delay(200);
 80018fa:	20c8      	movs	r0, #200	@ 0xc8
 80018fc:	f002 f880 	bl	8003a00 <HAL_Delay>
          App_DisplayGameBoard();
 8001900:	f7ff fe9a 	bl	8001638 <App_DisplayGameBoard>
        break;
 8001904:	e046      	b.n	8001994 <App_ProcessKeyEvent+0x260>

      case KEYPAD_KEY_6: // Move Right
        if (cursor_col < 7) {
 8001906:	4b2d      	ldr	r3, [pc, #180]	@ (80019bc <App_ProcessKeyEvent+0x288>)
 8001908:	781b      	ldrb	r3, [r3, #0]
 800190a:	2b06      	cmp	r3, #6
 800190c:	d844      	bhi.n	8001998 <App_ProcessKeyEvent+0x264>
          cursor_col++;
 800190e:	4b2b      	ldr	r3, [pc, #172]	@ (80019bc <App_ProcessKeyEvent+0x288>)
 8001910:	781b      	ldrb	r3, [r3, #0]
 8001912:	3301      	adds	r3, #1
 8001914:	b2da      	uxtb	r2, r3
 8001916:	4b29      	ldr	r3, [pc, #164]	@ (80019bc <App_ProcessKeyEvent+0x288>)
 8001918:	701a      	strb	r2, [r3, #0]
          DEBUG_INFO("[APP] Cursor RIGHT: (%d,%d)\r\n", cursor_row, cursor_col);
          cursor_visible = true;
 800191a:	4b26      	ldr	r3, [pc, #152]	@ (80019b4 <App_ProcessKeyEvent+0x280>)
 800191c:	2201      	movs	r2, #1
 800191e:	701a      	strb	r2, [r3, #0]
          cursor_blink_timer = HAL_GetTick();
 8001920:	f002 f864 	bl	80039ec <HAL_GetTick>
 8001924:	4603      	mov	r3, r0
 8001926:	4a24      	ldr	r2, [pc, #144]	@ (80019b8 <App_ProcessKeyEvent+0x284>)
 8001928:	6013      	str	r3, [r2, #0]
          App_DisplayGameBoard();
 800192a:	f7ff fe85 	bl	8001638 <App_DisplayGameBoard>
        } else {
          DEBUG_INFO("[APP] Cursor at right edge\r\n");
        }
        break;
 800192e:	e033      	b.n	8001998 <App_ProcessKeyEvent+0x264>

      case KEYPAD_KEY_8: // Move Down
        if (cursor_row < 7) {
 8001930:	4b1f      	ldr	r3, [pc, #124]	@ (80019b0 <App_ProcessKeyEvent+0x27c>)
 8001932:	781b      	ldrb	r3, [r3, #0]
 8001934:	2b06      	cmp	r3, #6
 8001936:	d831      	bhi.n	800199c <App_ProcessKeyEvent+0x268>
          cursor_row++;
 8001938:	4b1d      	ldr	r3, [pc, #116]	@ (80019b0 <App_ProcessKeyEvent+0x27c>)
 800193a:	781b      	ldrb	r3, [r3, #0]
 800193c:	3301      	adds	r3, #1
 800193e:	b2da      	uxtb	r2, r3
 8001940:	4b1b      	ldr	r3, [pc, #108]	@ (80019b0 <App_ProcessKeyEvent+0x27c>)
 8001942:	701a      	strb	r2, [r3, #0]
          DEBUG_INFO("[APP] Cursor DOWN: (%d,%d)\r\n", cursor_row, cursor_col);
          cursor_visible = true;
 8001944:	4b1b      	ldr	r3, [pc, #108]	@ (80019b4 <App_ProcessKeyEvent+0x280>)
 8001946:	2201      	movs	r2, #1
 8001948:	701a      	strb	r2, [r3, #0]
          cursor_blink_timer = HAL_GetTick();
 800194a:	f002 f84f 	bl	80039ec <HAL_GetTick>
 800194e:	4603      	mov	r3, r0
 8001950:	4a19      	ldr	r2, [pc, #100]	@ (80019b8 <App_ProcessKeyEvent+0x284>)
 8001952:	6013      	str	r3, [r2, #0]
          App_DisplayGameBoard();
 8001954:	f7ff fe70 	bl	8001638 <App_DisplayGameBoard>
        } else {
          DEBUG_INFO("[APP] Cursor at bottom edge\r\n");
        }
        break;
 8001958:	e020      	b.n	800199c <App_ProcessKeyEvent+0x268>

      case KEYPAD_KEY_0: // Reset Game
        DEBUG_INFO("[APP] Reset Game\r\n");
        Othello_NewGame(&game_state);
 800195a:	4813      	ldr	r0, [pc, #76]	@ (80019a8 <App_ProcessKeyEvent+0x274>)
 800195c:	f000 fc94 	bl	8002288 <Othello_NewGame>
        cursor_row = 3;
 8001960:	4b13      	ldr	r3, [pc, #76]	@ (80019b0 <App_ProcessKeyEvent+0x27c>)
 8001962:	2203      	movs	r2, #3
 8001964:	701a      	strb	r2, [r3, #0]
        cursor_col = 3;
 8001966:	4b15      	ldr	r3, [pc, #84]	@ (80019bc <App_ProcessKeyEvent+0x288>)
 8001968:	2203      	movs	r2, #3
 800196a:	701a      	strb	r2, [r3, #0]
        cursor_visible = true;
 800196c:	4b11      	ldr	r3, [pc, #68]	@ (80019b4 <App_ProcessKeyEvent+0x280>)
 800196e:	2201      	movs	r2, #1
 8001970:	701a      	strb	r2, [r3, #0]
        App_DisplayGameBoard();
 8001972:	f7ff fe61 	bl	8001638 <App_DisplayGameBoard>
        break;
 8001976:	e012      	b.n	800199e <App_ProcessKeyEvent+0x26a>

      case KEYPAD_KEY_9: // Send Board State to PC
        DEBUG_INFO("[APP] Send board state to PC\r\n");
        Send_GameState_Via_Protocol(&game_state);
 8001978:	480b      	ldr	r0, [pc, #44]	@ (80019a8 <App_ProcessKeyEvent+0x274>)
 800197a:	f7ff fbc6 	bl	800110a <Send_GameState_Via_Protocol>
        break;
 800197e:	e00e      	b.n	800199e <App_ProcessKeyEvent+0x26a>
    return;
 8001980:	bf00      	nop
 8001982:	e00c      	b.n	800199e <App_ProcessKeyEvent+0x26a>
      return;
 8001984:	bf00      	nop
 8001986:	e00a      	b.n	800199e <App_ProcessKeyEvent+0x26a>
        DEBUG_INFO("[APP] Key D - Reserved\r\n");
        break;

      default:
        DEBUG_INFO("[APP] Unknown key: %d\r\n", logical_key);
        break;
 8001988:	bf00      	nop
 800198a:	e008      	b.n	800199e <App_ProcessKeyEvent+0x26a>
        break;
 800198c:	bf00      	nop
 800198e:	e006      	b.n	800199e <App_ProcessKeyEvent+0x26a>
        break;
 8001990:	bf00      	nop
 8001992:	e004      	b.n	800199e <App_ProcessKeyEvent+0x26a>
        break;
 8001994:	bf00      	nop
 8001996:	e002      	b.n	800199e <App_ProcessKeyEvent+0x26a>
        break;
 8001998:	bf00      	nop
 800199a:	e000      	b.n	800199e <App_ProcessKeyEvent+0x26a>
        break;
 800199c:	bf00      	nop
    }
  }
}
 800199e:	3710      	adds	r7, #16
 80019a0:	46bd      	mov	sp, r7
 80019a2:	bd80      	pop	{r7, pc}
 80019a4:	200003fc 	.word	0x200003fc
 80019a8:	20000340 	.word	0x20000340
 80019ac:	20000023 	.word	0x20000023
 80019b0:	20000020 	.word	0x20000020
 80019b4:	20000022 	.word	0x20000022
 80019b8:	20000400 	.word	0x20000400
 80019bc:	20000021 	.word	0x20000021

080019c0 <App_PrintGameHistory>:
 * @brief Print game history to debug console
 * @retval None
 * @note Since full move history is not stored, we print summary statistics
 */
void App_PrintGameHistory(void)
{
 80019c0:	b580      	push	{r7, lr}
 80019c2:	b082      	sub	sp, #8
 80019c4:	af00      	add	r7, sp, #0
  if (!game_initialized) {
 80019c6:	4b0b      	ldr	r3, [pc, #44]	@ (80019f4 <App_PrintGameHistory+0x34>)
 80019c8:	781b      	ldrb	r3, [r3, #0]
 80019ca:	f083 0301 	eor.w	r3, r3, #1
 80019ce:	b2db      	uxtb	r3, r3
 80019d0:	2b00      	cmp	r3, #0
 80019d2:	d10a      	bne.n	80019ea <App_PrintGameHistory+0x2a>
               game_state.last_move.row,
               game_state.last_move.col,
               game_state.last_move.flipped_count);
  }

  if (game_state.status != GAME_STATUS_PLAYING) {
 80019d4:	4b08      	ldr	r3, [pc, #32]	@ (80019f8 <App_PrintGameHistory+0x38>)
 80019d6:	f893 3043 	ldrb.w	r3, [r3, #67]	@ 0x43
 80019da:	2b00      	cmp	r3, #0
 80019dc:	d006      	beq.n	80019ec <App_PrintGameHistory+0x2c>
    PieceType_t winner = Othello_GetWinner(&game_state);
 80019de:	4806      	ldr	r0, [pc, #24]	@ (80019f8 <App_PrintGameHistory+0x38>)
 80019e0:	f000 fdc1 	bl	8002566 <Othello_GetWinner>
 80019e4:	4603      	mov	r3, r0
 80019e6:	71fb      	strb	r3, [r7, #7]
 80019e8:	e000      	b.n	80019ec <App_PrintGameHistory+0x2c>
    return;
 80019ea:	bf00      	nop
      DEBUG_INFO("  Result: DRAW\r\n");
    }
  }

  DEBUG_INFO("==================================\r\n\r\n");
}
 80019ec:	3708      	adds	r7, #8
 80019ee:	46bd      	mov	sp, r7
 80019f0:	bd80      	pop	{r7, pc}
 80019f2:	bf00      	nop
 80019f4:	200003fc 	.word	0x200003fc
 80019f8:	20000340 	.word	0x20000340

080019fc <App_UpdateGameDisplay>:
/**
 * @brief Update game display (animations, status indicators)
 * @retval None
 */
void App_UpdateGameDisplay(void)
{
 80019fc:	b580      	push	{r7, lr}
 80019fe:	b082      	sub	sp, #8
 8001a00:	af00      	add	r7, sp, #0
  static uint32_t last_update = 0;
  uint32_t current_time = HAL_GetTick();
 8001a02:	f001 fff3 	bl	80039ec <HAL_GetTick>
 8001a06:	6078      	str	r0, [r7, #4]

  /* Update display every 100ms */
  if (current_time - last_update >= 100) {
 8001a08:	4b09      	ldr	r3, [pc, #36]	@ (8001a30 <App_UpdateGameDisplay+0x34>)
 8001a0a:	681b      	ldr	r3, [r3, #0]
 8001a0c:	687a      	ldr	r2, [r7, #4]
 8001a0e:	1ad3      	subs	r3, r2, r3
 8001a10:	2b63      	cmp	r3, #99	@ 0x63
 8001a12:	d908      	bls.n	8001a26 <App_UpdateGameDisplay+0x2a>
    last_update = current_time;
 8001a14:	4a06      	ldr	r2, [pc, #24]	@ (8001a30 <App_UpdateGameDisplay+0x34>)
 8001a16:	687b      	ldr	r3, [r7, #4]
 8001a18:	6013      	str	r3, [r2, #0]

    /* Could add animations here, like cursor blinking */
    /* For now, just ensure board is current */
    if (game_initialized) {
 8001a1a:	4b06      	ldr	r3, [pc, #24]	@ (8001a34 <App_UpdateGameDisplay+0x38>)
 8001a1c:	781b      	ldrb	r3, [r3, #0]
 8001a1e:	2b00      	cmp	r3, #0
 8001a20:	d001      	beq.n	8001a26 <App_UpdateGameDisplay+0x2a>
      App_DisplayGameBoard();
 8001a22:	f7ff fe09 	bl	8001638 <App_DisplayGameBoard>
    }
  }
}
 8001a26:	bf00      	nop
 8001a28:	3708      	adds	r7, #8
 8001a2a:	46bd      	mov	sp, r7
 8001a2c:	bd80      	pop	{r7, pc}
 8001a2e:	bf00      	nop
 8001a30:	20000408 	.word	0x20000408
 8001a34:	200003fc 	.word	0x200003fc

08001a38 <App_HandleGameOver>:
/**
 * @brief Handle game over state
 * @retval None
 */
void App_HandleGameOver(void)
{
 8001a38:	b580      	push	{r7, lr}
 8001a3a:	b092      	sub	sp, #72	@ 0x48
 8001a3c:	af00      	add	r7, sp, #0
  static uint32_t last_handled_move_count = 0;

  // move_count
  if (game_state.move_count == last_handled_move_count) {
 8001a3e:	4bac      	ldr	r3, [pc, #688]	@ (8001cf0 <App_HandleGameOver+0x2b8>)
 8001a40:	6c5a      	ldr	r2, [r3, #68]	@ 0x44
 8001a42:	4bac      	ldr	r3, [pc, #688]	@ (8001cf4 <App_HandleGameOver+0x2bc>)
 8001a44:	681b      	ldr	r3, [r3, #0]
 8001a46:	429a      	cmp	r2, r3
 8001a48:	f000 814d 	beq.w	8001ce6 <App_HandleGameOver+0x2ae>
    DEBUG_INFO("[GAME_OVER] Already handled move_count=%lu, skipping\r\n", game_state.move_count);
    return;  // 
  }

  // move_count
  last_handled_move_count = game_state.move_count;
 8001a4c:	4ba8      	ldr	r3, [pc, #672]	@ (8001cf0 <App_HandleGameOver+0x2b8>)
 8001a4e:	6c5b      	ldr	r3, [r3, #68]	@ 0x44
 8001a50:	4aa8      	ldr	r2, [pc, #672]	@ (8001cf4 <App_HandleGameOver+0x2bc>)
 8001a52:	6013      	str	r3, [r2, #0]
             current_game_mode, GAME_MODE_CHALLENGE);
  DEBUG_INFO("[GAME_OVER] Winner: BLACK=%d WHITE=%d status=%d\r\n",
             game_state.black_count, game_state.white_count, game_state.status);

  // 
  is_displaying_result = true;
 8001a54:	4ba8      	ldr	r3, [pc, #672]	@ (8001cf8 <App_HandleGameOver+0x2c0>)
 8001a56:	2201      	movs	r2, #1
 8001a58:	701a      	strb	r2, [r3, #0]
  DEBUG_INFO("[GAME_OVER] Set is_displaying_result = TRUE\r\n");

  /* Update statistics */
  Othello_UpdateStats(&game_stats, &game_state);
 8001a5a:	49a5      	ldr	r1, [pc, #660]	@ (8001cf0 <App_HandleGameOver+0x2b8>)
 8001a5c:	48a7      	ldr	r0, [pc, #668]	@ (8001cfc <App_HandleGameOver+0x2c4>)
 8001a5e:	f000 fe8f 	bl	8002780 <Othello_UpdateStats>

  /* ===  === */
  PieceType_t winner = Othello_GetWinner(&game_state);
 8001a62:	48a3      	ldr	r0, [pc, #652]	@ (8001cf0 <App_HandleGameOver+0x2b8>)
 8001a64:	f000 fd7f 	bl	8002566 <Othello_GetWinner>
 8001a68:	4603      	mov	r3, r0
 8001a6a:	f887 3045 	strb.w	r3, [r7, #69]	@ 0x45

  DEBUG_INFO("[GAME_OVER] Displaying game result: Winner=%d (BLACK=%d, WHITE=%d)\r\n",
             winner, PIECE_BLACK, PIECE_WHITE);

  if (winner == PIECE_BLACK) {
 8001a6e:	f897 3045 	ldrb.w	r3, [r7, #69]	@ 0x45
 8001a72:	2b01      	cmp	r3, #1
 8001a74:	d12d      	bne.n	8001ad2 <App_HandleGameOver+0x9a>
    // Player (BLACK) wins - show WIN (letter by letter)
    DEBUG_INFO("[GAME_OVER] Displaying 'WIN' letter by letter...\r\n");
    LED_Text_Display_Sequential("W", WS2812B_COLOR_GREEN, 1000);
 8001a76:	2300      	movs	r3, #0
 8001a78:	f887 3040 	strb.w	r3, [r7, #64]	@ 0x40
 8001a7c:	23ff      	movs	r3, #255	@ 0xff
 8001a7e:	f887 3041 	strb.w	r3, [r7, #65]	@ 0x41
 8001a82:	2300      	movs	r3, #0
 8001a84:	f887 3042 	strb.w	r3, [r7, #66]	@ 0x42
 8001a88:	f44f 727a 	mov.w	r2, #1000	@ 0x3e8
 8001a8c:	6c39      	ldr	r1, [r7, #64]	@ 0x40
 8001a8e:	489c      	ldr	r0, [pc, #624]	@ (8001d00 <App_HandleGameOver+0x2c8>)
 8001a90:	f7ff fa3e 	bl	8000f10 <LED_Text_Display_Sequential>
    LED_Text_Display_Sequential("I", WS2812B_COLOR_GREEN, 1000);
 8001a94:	2300      	movs	r3, #0
 8001a96:	f887 303c 	strb.w	r3, [r7, #60]	@ 0x3c
 8001a9a:	23ff      	movs	r3, #255	@ 0xff
 8001a9c:	f887 303d 	strb.w	r3, [r7, #61]	@ 0x3d
 8001aa0:	2300      	movs	r3, #0
 8001aa2:	f887 303e 	strb.w	r3, [r7, #62]	@ 0x3e
 8001aa6:	f44f 727a 	mov.w	r2, #1000	@ 0x3e8
 8001aaa:	6bf9      	ldr	r1, [r7, #60]	@ 0x3c
 8001aac:	4895      	ldr	r0, [pc, #596]	@ (8001d04 <App_HandleGameOver+0x2cc>)
 8001aae:	f7ff fa2f 	bl	8000f10 <LED_Text_Display_Sequential>
    LED_Text_Display_Sequential("N", WS2812B_COLOR_GREEN, 1000);
 8001ab2:	2300      	movs	r3, #0
 8001ab4:	f887 3038 	strb.w	r3, [r7, #56]	@ 0x38
 8001ab8:	23ff      	movs	r3, #255	@ 0xff
 8001aba:	f887 3039 	strb.w	r3, [r7, #57]	@ 0x39
 8001abe:	2300      	movs	r3, #0
 8001ac0:	f887 303a 	strb.w	r3, [r7, #58]	@ 0x3a
 8001ac4:	f44f 727a 	mov.w	r2, #1000	@ 0x3e8
 8001ac8:	6bb9      	ldr	r1, [r7, #56]	@ 0x38
 8001aca:	488f      	ldr	r0, [pc, #572]	@ (8001d08 <App_HandleGameOver+0x2d0>)
 8001acc:	f7ff fa20 	bl	8000f10 <LED_Text_Display_Sequential>
 8001ad0:	e07c      	b.n	8001bcc <App_HandleGameOver+0x194>
    DEBUG_INFO("[GAME_OVER] 'WIN' display completed\r\n");
  } else if (winner == PIECE_WHITE) {
 8001ad2:	f897 3045 	ldrb.w	r3, [r7, #69]	@ 0x45
 8001ad6:	2b02      	cmp	r3, #2
 8001ad8:	d13c      	bne.n	8001b54 <App_HandleGameOver+0x11c>
    // AI/Opponent (WHITE) wins - show LOSE (letter by letter)
    DEBUG_INFO("[GAME_OVER] Displaying 'LOSE' letter by letter...\r\n");
    LED_Text_Display_Sequential("L", WS2812B_COLOR_RED, 1000);
 8001ada:	23ff      	movs	r3, #255	@ 0xff
 8001adc:	f887 3034 	strb.w	r3, [r7, #52]	@ 0x34
 8001ae0:	2300      	movs	r3, #0
 8001ae2:	f887 3035 	strb.w	r3, [r7, #53]	@ 0x35
 8001ae6:	2300      	movs	r3, #0
 8001ae8:	f887 3036 	strb.w	r3, [r7, #54]	@ 0x36
 8001aec:	f44f 727a 	mov.w	r2, #1000	@ 0x3e8
 8001af0:	6b79      	ldr	r1, [r7, #52]	@ 0x34
 8001af2:	4886      	ldr	r0, [pc, #536]	@ (8001d0c <App_HandleGameOver+0x2d4>)
 8001af4:	f7ff fa0c 	bl	8000f10 <LED_Text_Display_Sequential>
    LED_Text_Display_Sequential("O", WS2812B_COLOR_RED, 1000);
 8001af8:	23ff      	movs	r3, #255	@ 0xff
 8001afa:	f887 3030 	strb.w	r3, [r7, #48]	@ 0x30
 8001afe:	2300      	movs	r3, #0
 8001b00:	f887 3031 	strb.w	r3, [r7, #49]	@ 0x31
 8001b04:	2300      	movs	r3, #0
 8001b06:	f887 3032 	strb.w	r3, [r7, #50]	@ 0x32
 8001b0a:	f44f 727a 	mov.w	r2, #1000	@ 0x3e8
 8001b0e:	6b39      	ldr	r1, [r7, #48]	@ 0x30
 8001b10:	487f      	ldr	r0, [pc, #508]	@ (8001d10 <App_HandleGameOver+0x2d8>)
 8001b12:	f7ff f9fd 	bl	8000f10 <LED_Text_Display_Sequential>
    LED_Text_Display_Sequential("S", WS2812B_COLOR_RED, 1000);
 8001b16:	23ff      	movs	r3, #255	@ 0xff
 8001b18:	f887 302c 	strb.w	r3, [r7, #44]	@ 0x2c
 8001b1c:	2300      	movs	r3, #0
 8001b1e:	f887 302d 	strb.w	r3, [r7, #45]	@ 0x2d
 8001b22:	2300      	movs	r3, #0
 8001b24:	f887 302e 	strb.w	r3, [r7, #46]	@ 0x2e
 8001b28:	f44f 727a 	mov.w	r2, #1000	@ 0x3e8
 8001b2c:	6af9      	ldr	r1, [r7, #44]	@ 0x2c
 8001b2e:	4879      	ldr	r0, [pc, #484]	@ (8001d14 <App_HandleGameOver+0x2dc>)
 8001b30:	f7ff f9ee 	bl	8000f10 <LED_Text_Display_Sequential>
    LED_Text_Display_Sequential("E", WS2812B_COLOR_RED, 1000);
 8001b34:	23ff      	movs	r3, #255	@ 0xff
 8001b36:	f887 3028 	strb.w	r3, [r7, #40]	@ 0x28
 8001b3a:	2300      	movs	r3, #0
 8001b3c:	f887 3029 	strb.w	r3, [r7, #41]	@ 0x29
 8001b40:	2300      	movs	r3, #0
 8001b42:	f887 302a 	strb.w	r3, [r7, #42]	@ 0x2a
 8001b46:	f44f 727a 	mov.w	r2, #1000	@ 0x3e8
 8001b4a:	6ab9      	ldr	r1, [r7, #40]	@ 0x28
 8001b4c:	4872      	ldr	r0, [pc, #456]	@ (8001d18 <App_HandleGameOver+0x2e0>)
 8001b4e:	f7ff f9df 	bl	8000f10 <LED_Text_Display_Sequential>
 8001b52:	e03b      	b.n	8001bcc <App_HandleGameOver+0x194>
    DEBUG_INFO("[GAME_OVER] 'LOSE' display completed\r\n");
  } else {
    // Draw game - show DRAW (letter by letter)
    DEBUG_INFO("[GAME_OVER] Displaying 'DRAW' letter by letter...\r\n");
    LED_Text_Display_Sequential("D", WS2812B_COLOR_YELLOW, 1000);
 8001b54:	4a71      	ldr	r2, [pc, #452]	@ (8001d1c <App_HandleGameOver+0x2e4>)
 8001b56:	f107 0324 	add.w	r3, r7, #36	@ 0x24
 8001b5a:	6812      	ldr	r2, [r2, #0]
 8001b5c:	4611      	mov	r1, r2
 8001b5e:	8019      	strh	r1, [r3, #0]
 8001b60:	3302      	adds	r3, #2
 8001b62:	0c12      	lsrs	r2, r2, #16
 8001b64:	701a      	strb	r2, [r3, #0]
 8001b66:	f44f 727a 	mov.w	r2, #1000	@ 0x3e8
 8001b6a:	6a79      	ldr	r1, [r7, #36]	@ 0x24
 8001b6c:	486c      	ldr	r0, [pc, #432]	@ (8001d20 <App_HandleGameOver+0x2e8>)
 8001b6e:	f7ff f9cf 	bl	8000f10 <LED_Text_Display_Sequential>
    LED_Text_Display_Sequential("R", WS2812B_COLOR_YELLOW, 1000);
 8001b72:	4a6a      	ldr	r2, [pc, #424]	@ (8001d1c <App_HandleGameOver+0x2e4>)
 8001b74:	f107 0320 	add.w	r3, r7, #32
 8001b78:	6812      	ldr	r2, [r2, #0]
 8001b7a:	4611      	mov	r1, r2
 8001b7c:	8019      	strh	r1, [r3, #0]
 8001b7e:	3302      	adds	r3, #2
 8001b80:	0c12      	lsrs	r2, r2, #16
 8001b82:	701a      	strb	r2, [r3, #0]
 8001b84:	f44f 727a 	mov.w	r2, #1000	@ 0x3e8
 8001b88:	6a39      	ldr	r1, [r7, #32]
 8001b8a:	4866      	ldr	r0, [pc, #408]	@ (8001d24 <App_HandleGameOver+0x2ec>)
 8001b8c:	f7ff f9c0 	bl	8000f10 <LED_Text_Display_Sequential>
    LED_Text_Display_Sequential("A", WS2812B_COLOR_YELLOW, 1000);
 8001b90:	4a62      	ldr	r2, [pc, #392]	@ (8001d1c <App_HandleGameOver+0x2e4>)
 8001b92:	f107 031c 	add.w	r3, r7, #28
 8001b96:	6812      	ldr	r2, [r2, #0]
 8001b98:	4611      	mov	r1, r2
 8001b9a:	8019      	strh	r1, [r3, #0]
 8001b9c:	3302      	adds	r3, #2
 8001b9e:	0c12      	lsrs	r2, r2, #16
 8001ba0:	701a      	strb	r2, [r3, #0]
 8001ba2:	f44f 727a 	mov.w	r2, #1000	@ 0x3e8
 8001ba6:	69f9      	ldr	r1, [r7, #28]
 8001ba8:	485f      	ldr	r0, [pc, #380]	@ (8001d28 <App_HandleGameOver+0x2f0>)
 8001baa:	f7ff f9b1 	bl	8000f10 <LED_Text_Display_Sequential>
    LED_Text_Display_Sequential("W", WS2812B_COLOR_YELLOW, 1000);
 8001bae:	4a5b      	ldr	r2, [pc, #364]	@ (8001d1c <App_HandleGameOver+0x2e4>)
 8001bb0:	f107 0318 	add.w	r3, r7, #24
 8001bb4:	6812      	ldr	r2, [r2, #0]
 8001bb6:	4611      	mov	r1, r2
 8001bb8:	8019      	strh	r1, [r3, #0]
 8001bba:	3302      	adds	r3, #2
 8001bbc:	0c12      	lsrs	r2, r2, #16
 8001bbe:	701a      	strb	r2, [r3, #0]
 8001bc0:	f44f 727a 	mov.w	r2, #1000	@ 0x3e8
 8001bc4:	69b9      	ldr	r1, [r7, #24]
 8001bc6:	484e      	ldr	r0, [pc, #312]	@ (8001d00 <App_HandleGameOver+0x2c8>)
 8001bc8:	f7ff f9a2 	bl	8000f10 <LED_Text_Display_Sequential>
    DEBUG_INFO("[GAME_OVER] 'DRAW' display completed\r\n");
  }

  // Clear display after text sequence
  DEBUG_INFO("[GAME_OVER] Clearing display...\r\n");
  WS2812B_Clear();
 8001bcc:	f001 fd8e 	bl	80036ec <WS2812B_Clear>
  WS2812B_Update();
 8001bd0:	f001 fda0 	bl	8003714 <WS2812B_Update>
  HAL_Delay(500);  // Brief pause before final board display
 8001bd4:	f44f 70fa 	mov.w	r0, #500	@ 0x1f4
 8001bd8:	f001 ff12 	bl	8003a00 <HAL_Delay>

  /* Process challenge mode if active */
  if (current_game_mode == GAME_MODE_CHALLENGE) {
 8001bdc:	4b53      	ldr	r3, [pc, #332]	@ (8001d2c <App_HandleGameOver+0x2f4>)
 8001bde:	781b      	ldrb	r3, [r3, #0]
 8001be0:	2b02      	cmp	r3, #2
 8001be2:	d116      	bne.n	8001c12 <App_HandleGameOver+0x1da>
    DEBUG_INFO("[CHALLENGE] Processing challenge mode results...\r\n");

    /* === Process overall challenge status === */
    Challenge_Status_t challenge_status = Challenge_ProcessGameResult(&game_state);
 8001be4:	4842      	ldr	r0, [pc, #264]	@ (8001cf0 <App_HandleGameOver+0x2b8>)
 8001be6:	f7fe fb0d 	bl	8000204 <Challenge_ProcessGameResult>
 8001bea:	4603      	mov	r3, r0
 8001bec:	f887 3044 	strb.w	r3, [r7, #68]	@ 0x44

    DEBUG_INFO("[CHALLENGE] Challenge status after processing: %d\r\n", challenge_status);

    if (challenge_status == CHALLENGE_WIN) {
 8001bf0:	f897 3044 	ldrb.w	r3, [r7, #68]	@ 0x44
 8001bf4:	2b02      	cmp	r3, #2
 8001bf6:	d104      	bne.n	8001c02 <App_HandleGameOver+0x1ca>
      DEBUG_INFO("[CHALLENGE] WIN condition met! Total score: %d\r\n",
                 Challenge_GetTotalScore());
      DEBUG_INFO("[CHALLENGE] Displaying 'WIN' animation (3 seconds)...\r\n");
      // LED text display is handled by Challenge_ProcessGameResult
      HAL_Delay(3000);  // Display WIN for 3 seconds
 8001bf8:	f640 30b8 	movw	r0, #3000	@ 0xbb8
 8001bfc:	f001 ff00 	bl	8003a00 <HAL_Delay>
 8001c00:	e007      	b.n	8001c12 <App_HandleGameOver+0x1da>
      DEBUG_INFO("[CHALLENGE] WIN animation completed\r\n");
    } else if (challenge_status == CHALLENGE_GAME_OVER) {
 8001c02:	f897 3044 	ldrb.w	r3, [r7, #68]	@ 0x44
 8001c06:	2b03      	cmp	r3, #3
 8001c08:	d103      	bne.n	8001c12 <App_HandleGameOver+0x1da>
      DEBUG_INFO("[CHALLENGE] GAME OVER! Consecutive losses: %d\r\n",
                 Challenge_GetConsecutiveLosses());
      DEBUG_INFO("[CHALLENGE] Displaying 'OVER' animation (3 seconds)...\r\n");
      // LED text display is handled by Challenge_ProcessGameResult
      HAL_Delay(3000);  // Display OVER for 3 seconds
 8001c0a:	f640 30b8 	movw	r0, #3000	@ 0xbb8
 8001c0e:	f001 fef7 	bl	8003a00 <HAL_Delay>
    }
  }

  /* Show winner on board */
  DEBUG_INFO("[GAME_OVER] Displaying final board state...\r\n");
  WS2812B_Clear();
 8001c12:	f001 fd6b 	bl	80036ec <WS2812B_Clear>

  if (winner == PIECE_BLACK) {
 8001c16:	f897 3045 	ldrb.w	r3, [r7, #69]	@ 0x45
 8001c1a:	2b01      	cmp	r3, #1
 8001c1c:	d109      	bne.n	8001c32 <App_HandleGameOver+0x1fa>
    /* Display black wins - fill with black */
    WS2812B_Fill(WS2812B_COLOR_BLACK);
 8001c1e:	2300      	movs	r3, #0
 8001c20:	753b      	strb	r3, [r7, #20]
 8001c22:	2300      	movs	r3, #0
 8001c24:	757b      	strb	r3, [r7, #21]
 8001c26:	2300      	movs	r3, #0
 8001c28:	75bb      	strb	r3, [r7, #22]
 8001c2a:	6978      	ldr	r0, [r7, #20]
 8001c2c:	f001 fd9e 	bl	800376c <WS2812B_Fill>
 8001c30:	e04c      	b.n	8001ccc <App_HandleGameOver+0x294>
  } else if (winner == PIECE_WHITE) {
 8001c32:	f897 3045 	ldrb.w	r3, [r7, #69]	@ 0x45
 8001c36:	2b02      	cmp	r3, #2
 8001c38:	d10c      	bne.n	8001c54 <App_HandleGameOver+0x21c>
    /* Display white wins - fill with white */
    WS2812B_Fill(WS2812B_COLOR_WHITE);
 8001c3a:	4a3d      	ldr	r2, [pc, #244]	@ (8001d30 <App_HandleGameOver+0x2f8>)
 8001c3c:	f107 0310 	add.w	r3, r7, #16
 8001c40:	6812      	ldr	r2, [r2, #0]
 8001c42:	4611      	mov	r1, r2
 8001c44:	8019      	strh	r1, [r3, #0]
 8001c46:	3302      	adds	r3, #2
 8001c48:	0c12      	lsrs	r2, r2, #16
 8001c4a:	701a      	strb	r2, [r3, #0]
 8001c4c:	6938      	ldr	r0, [r7, #16]
 8001c4e:	f001 fd8d 	bl	800376c <WS2812B_Fill>
 8001c52:	e03b      	b.n	8001ccc <App_HandleGameOver+0x294>
  } else {
    /* Display draw - alternate black/white pattern */
    for (uint8_t row = 0; row < 8; row++) {
 8001c54:	2300      	movs	r3, #0
 8001c56:	f887 3047 	strb.w	r3, [r7, #71]	@ 0x47
 8001c5a:	e033      	b.n	8001cc4 <App_HandleGameOver+0x28c>
      for (uint8_t col = 0; col < 8; col++) {
 8001c5c:	2300      	movs	r3, #0
 8001c5e:	f887 3046 	strb.w	r3, [r7, #70]	@ 0x46
 8001c62:	e026      	b.n	8001cb2 <App_HandleGameOver+0x27a>
        RGB_Color_t color = ((row + col) % 2 == 0) ? WS2812B_COLOR_BLACK : WS2812B_COLOR_WHITE;
 8001c64:	f897 2047 	ldrb.w	r2, [r7, #71]	@ 0x47
 8001c68:	f897 3046 	ldrb.w	r3, [r7, #70]	@ 0x46
 8001c6c:	4413      	add	r3, r2
 8001c6e:	b2db      	uxtb	r3, r3
 8001c70:	f003 0301 	and.w	r3, r3, #1
 8001c74:	2b00      	cmp	r3, #0
 8001c76:	d106      	bne.n	8001c86 <App_HandleGameOver+0x24e>
 8001c78:	2300      	movs	r3, #0
 8001c7a:	733b      	strb	r3, [r7, #12]
 8001c7c:	2300      	movs	r3, #0
 8001c7e:	737b      	strb	r3, [r7, #13]
 8001c80:	2300      	movs	r3, #0
 8001c82:	73bb      	strb	r3, [r7, #14]
 8001c84:	e008      	b.n	8001c98 <App_HandleGameOver+0x260>
 8001c86:	4a2a      	ldr	r2, [pc, #168]	@ (8001d30 <App_HandleGameOver+0x2f8>)
 8001c88:	f107 030c 	add.w	r3, r7, #12
 8001c8c:	6812      	ldr	r2, [r2, #0]
 8001c8e:	4611      	mov	r1, r2
 8001c90:	8019      	strh	r1, [r3, #0]
 8001c92:	3302      	adds	r3, #2
 8001c94:	0c12      	lsrs	r2, r2, #16
 8001c96:	701a      	strb	r2, [r3, #0]
        WS2812B_SetPixel(row, col, color);
 8001c98:	f897 1046 	ldrb.w	r1, [r7, #70]	@ 0x46
 8001c9c:	f897 3047 	ldrb.w	r3, [r7, #71]	@ 0x47
 8001ca0:	68fa      	ldr	r2, [r7, #12]
 8001ca2:	4618      	mov	r0, r3
 8001ca4:	f001 fcf0 	bl	8003688 <WS2812B_SetPixel>
      for (uint8_t col = 0; col < 8; col++) {
 8001ca8:	f897 3046 	ldrb.w	r3, [r7, #70]	@ 0x46
 8001cac:	3301      	adds	r3, #1
 8001cae:	f887 3046 	strb.w	r3, [r7, #70]	@ 0x46
 8001cb2:	f897 3046 	ldrb.w	r3, [r7, #70]	@ 0x46
 8001cb6:	2b07      	cmp	r3, #7
 8001cb8:	d9d4      	bls.n	8001c64 <App_HandleGameOver+0x22c>
    for (uint8_t row = 0; row < 8; row++) {
 8001cba:	f897 3047 	ldrb.w	r3, [r7, #71]	@ 0x47
 8001cbe:	3301      	adds	r3, #1
 8001cc0:	f887 3047 	strb.w	r3, [r7, #71]	@ 0x47
 8001cc4:	f897 3047 	ldrb.w	r3, [r7, #71]	@ 0x47
 8001cc8:	2b07      	cmp	r3, #7
 8001cca:	d9c7      	bls.n	8001c5c <App_HandleGameOver+0x224>
      }
    }
  }

  WS2812B_Update();
 8001ccc:	f001 fd22 	bl	8003714 <WS2812B_Update>

  /* Send final game state */
  DEBUG_INFO("[GAME_OVER] Sending final game state to PC...\r\n");
  Send_GameState_Via_Protocol(&game_state);
 8001cd0:	4807      	ldr	r0, [pc, #28]	@ (8001cf0 <App_HandleGameOver+0x2b8>)
 8001cd2:	f7ff fa1a 	bl	800110a <Send_GameState_Via_Protocol>

  /* Show result for 5 seconds */
  DEBUG_INFO("[GAME_OVER] Displaying result for 5 seconds...\r\n");
  HAL_Delay(5000);
 8001cd6:	f241 3088 	movw	r0, #5000	@ 0x1388
 8001cda:	f001 fe91 	bl	8003a00 <HAL_Delay>

  // 
  is_displaying_result = false;
 8001cde:	4b06      	ldr	r3, [pc, #24]	@ (8001cf8 <App_HandleGameOver+0x2c0>)
 8001ce0:	2200      	movs	r2, #0
 8001ce2:	701a      	strb	r2, [r3, #0]
 8001ce4:	e000      	b.n	8001ce8 <App_HandleGameOver+0x2b0>
    return;  // 
 8001ce6:	bf00      	nop
  DEBUG_INFO("[GAME_OVER] Set is_displaying_result = FALSE\r\n");

  DEBUG_INFO("========== GAME OVER HANDLER END ==========\r\n\r\n");
}
 8001ce8:	3748      	adds	r7, #72	@ 0x48
 8001cea:	46bd      	mov	sp, r7
 8001cec:	bd80      	pop	{r7, pc}
 8001cee:	bf00      	nop
 8001cf0:	20000340 	.word	0x20000340
 8001cf4:	2000040c 	.word	0x2000040c
 8001cf8:	20000404 	.word	0x20000404
 8001cfc:	200003dc 	.word	0x200003dc
 8001d00:	08007850 	.word	0x08007850
 8001d04:	08007854 	.word	0x08007854
 8001d08:	08007858 	.word	0x08007858
 8001d0c:	0800785c 	.word	0x0800785c
 8001d10:	08007860 	.word	0x08007860
 8001d14:	08007864 	.word	0x08007864
 8001d18:	08007868 	.word	0x08007868
 8001d1c:	08007878 	.word	0x08007878
 8001d20:	0800786c 	.word	0x0800786c
 8001d24:	08007870 	.word	0x08007870
 8001d28:	08007874 	.word	0x08007874
 8001d2c:	20000023 	.word	0x20000023
 8001d30:	0800784c 	.word	0x0800784c

08001d34 <Keypad_Key_Event_Handler>:
 * @param col: Key column position (0-3)
 * @param state: Key state (PRESSED, RELEASED, LONG_PRESSED)
 * @retval None
 */
void Keypad_Key_Event_Handler(uint8_t row, uint8_t col, KeyState_t state)
{
 8001d34:	b580      	push	{r7, lr}
 8001d36:	b084      	sub	sp, #16
 8001d38:	af00      	add	r7, sp, #0
 8001d3a:	4603      	mov	r3, r0
 8001d3c:	71fb      	strb	r3, [r7, #7]
 8001d3e:	460b      	mov	r3, r1
 8001d40:	71bb      	strb	r3, [r7, #6]
 8001d42:	4613      	mov	r3, r2
 8001d44:	717b      	strb	r3, [r7, #5]
  /* This callback is called whenever a key state changes */
  /* Get logical key for more meaningful processing */
  Keypad_LogicalKey_t logical_key = Keypad_PhysicalToLogical(row, col);
 8001d46:	79ba      	ldrb	r2, [r7, #6]
 8001d48:	79fb      	ldrb	r3, [r7, #7]
 8001d4a:	4611      	mov	r1, r2
 8001d4c:	4618      	mov	r0, r3
 8001d4e:	f7ff f89b 	bl	8000e88 <Keypad_PhysicalToLogical>
 8001d52:	4603      	mov	r3, r0
 8001d54:	73fb      	strb	r3, [r7, #15]

  /* Debug log */
  DEBUG_INFO("[APP] KeyEvent: R%d C%d State=%d Logical=%d\r\n", row, col, state, logical_key);

  /* Send key event over UART protocol */
  Protocol_SendKeyEvent(row, col, (uint8_t)state, (uint8_t)logical_key);
 8001d56:	7bfb      	ldrb	r3, [r7, #15]
 8001d58:	797a      	ldrb	r2, [r7, #5]
 8001d5a:	79b9      	ldrb	r1, [r7, #6]
 8001d5c:	79f8      	ldrb	r0, [r7, #7]
 8001d5e:	f001 fb28 	bl	80033b2 <Protocol_SendKeyEvent>

  /* Demo: Simple LED feedback for key press */
  if (state == KEY_PRESSED) {
 8001d62:	797b      	ldrb	r3, [r7, #5]
 8001d64:	2b01      	cmp	r3, #1
 8001d66:	d113      	bne.n	8001d90 <Keypad_Key_Event_Handler+0x5c>
    /* Key just pressed - could add sound effect, LED flash, etc. */
    /* For now, just ensure immediate visual feedback */
    if (row < 8 && col < 8) {
 8001d68:	79fb      	ldrb	r3, [r7, #7]
 8001d6a:	2b07      	cmp	r3, #7
 8001d6c:	d810      	bhi.n	8001d90 <Keypad_Key_Event_Handler+0x5c>
 8001d6e:	79bb      	ldrb	r3, [r7, #6]
 8001d70:	2b07      	cmp	r3, #7
 8001d72:	d80d      	bhi.n	8001d90 <Keypad_Key_Event_Handler+0x5c>
      WS2812B_SetPixel(row, col, WS2812B_COLOR_GREEN);
 8001d74:	2300      	movs	r3, #0
 8001d76:	733b      	strb	r3, [r7, #12]
 8001d78:	23ff      	movs	r3, #255	@ 0xff
 8001d7a:	737b      	strb	r3, [r7, #13]
 8001d7c:	2300      	movs	r3, #0
 8001d7e:	73bb      	strb	r3, [r7, #14]
 8001d80:	79b9      	ldrb	r1, [r7, #6]
 8001d82:	79fb      	ldrb	r3, [r7, #7]
 8001d84:	68fa      	ldr	r2, [r7, #12]
 8001d86:	4618      	mov	r0, r3
 8001d88:	f001 fc7e 	bl	8003688 <WS2812B_SetPixel>
      WS2812B_Update();
 8001d8c:	f001 fcc2 	bl	8003714 <WS2812B_Update>
   *     }
   *     break;
   *   // ... other keys
   * }
   */
}
 8001d90:	bf00      	nop
 8001d92:	3710      	adds	r7, #16
 8001d94:	46bd      	mov	sp, r7
 8001d96:	bd80      	pop	{r7, pc}

08001d98 <Protocol_Command_Handler>:
 * @param data Command data
 * @param len Data length
 * @retval None
 */
void Protocol_Command_Handler(Protocol_Command_t cmd, uint8_t* data, uint8_t len)
{
 8001d98:	b580      	push	{r7, lr}
 8001d9a:	b08c      	sub	sp, #48	@ 0x30
 8001d9c:	af00      	add	r7, sp, #0
 8001d9e:	4603      	mov	r3, r0
 8001da0:	6039      	str	r1, [r7, #0]
 8001da2:	71fb      	strb	r3, [r7, #7]
 8001da4:	4613      	mov	r3, r2
 8001da6:	71bb      	strb	r3, [r7, #6]
  /* Handle incoming protocol commands */
  switch (cmd) {
 8001da8:	79fb      	ldrb	r3, [r7, #7]
 8001daa:	3b01      	subs	r3, #1
 8001dac:	2b0f      	cmp	r3, #15
 8001dae:	f200 8233 	bhi.w	8002218 <Protocol_Command_Handler+0x480>
 8001db2:	a201      	add	r2, pc, #4	@ (adr r2, 8001db8 <Protocol_Command_Handler+0x20>)
 8001db4:	f852 f023 	ldr.w	pc, [r2, r3, lsl #2]
 8001db8:	08001f19 	.word	0x08001f19
 8001dbc:	08001df9 	.word	0x08001df9
 8001dc0:	08001e6f 	.word	0x08001e6f
 8001dc4:	08002219 	.word	0x08002219
 8001dc8:	08001e8b 	.word	0x08001e8b
 8001dcc:	08001e91 	.word	0x08001e91
 8001dd0:	08001f13 	.word	0x08001f13
 8001dd4:	08002219 	.word	0x08002219
 8001dd8:	08002219 	.word	0x08002219
 8001ddc:	08002219 	.word	0x08002219
 8001de0:	08001ea3 	.word	0x08001ea3
 8001de4:	08002055 	.word	0x08002055
 8001de8:	080020c1 	.word	0x080020c1
 8001dec:	08002219 	.word	0x08002219
 8001df0:	08002181 	.word	0x08002181
 8001df4:	080021b7 	.word	0x080021b7
    case CMD_MAKE_MOVE:
      if (len == sizeof(Move_Command_Data_t)) {
 8001df8:	79bb      	ldrb	r3, [r7, #6]
 8001dfa:	2b08      	cmp	r3, #8
 8001dfc:	d131      	bne.n	8001e62 <Protocol_Command_Handler+0xca>
        Move_Command_Data_t* move = (Move_Command_Data_t*)data;
 8001dfe:	683b      	ldr	r3, [r7, #0]
 8001e00:	617b      	str	r3, [r7, #20]
        if (Othello_IsValidMove(&game_state, move->row, move->col, game_state.current_player)) {
 8001e02:	697b      	ldr	r3, [r7, #20]
 8001e04:	7819      	ldrb	r1, [r3, #0]
 8001e06:	697b      	ldr	r3, [r7, #20]
 8001e08:	785a      	ldrb	r2, [r3, #1]
 8001e0a:	4baa      	ldr	r3, [pc, #680]	@ (80020b4 <Protocol_Command_Handler+0x31c>)
 8001e0c:	f893 3040 	ldrb.w	r3, [r3, #64]	@ 0x40
 8001e10:	48a8      	ldr	r0, [pc, #672]	@ (80020b4 <Protocol_Command_Handler+0x31c>)
 8001e12:	f000 fa9b 	bl	800234c <Othello_IsValidMove>
 8001e16:	4603      	mov	r3, r0
 8001e18:	2b00      	cmp	r3, #0
 8001e1a:	d01c      	beq.n	8001e56 <Protocol_Command_Handler+0xbe>
          uint8_t flipped = Othello_MakeMove(&game_state, move->row, move->col, game_state.current_player);
 8001e1c:	697b      	ldr	r3, [r7, #20]
 8001e1e:	7819      	ldrb	r1, [r3, #0]
 8001e20:	697b      	ldr	r3, [r7, #20]
 8001e22:	785a      	ldrb	r2, [r3, #1]
 8001e24:	4ba3      	ldr	r3, [pc, #652]	@ (80020b4 <Protocol_Command_Handler+0x31c>)
 8001e26:	f893 3040 	ldrb.w	r3, [r3, #64]	@ 0x40
 8001e2a:	48a2      	ldr	r0, [pc, #648]	@ (80020b4 <Protocol_Command_Handler+0x31c>)
 8001e2c:	f000 fac8 	bl	80023c0 <Othello_MakeMove>
 8001e30:	4603      	mov	r3, r0
 8001e32:	74fb      	strb	r3, [r7, #19]
          if (flipped > 0) {
 8001e34:	7cfb      	ldrb	r3, [r7, #19]
 8001e36:	2b00      	cmp	r3, #0
 8001e38:	d007      	beq.n	8001e4a <Protocol_Command_Handler+0xb2>
            App_DisplayGameBoard();  // Update display
 8001e3a:	f7ff fbfd 	bl	8001638 <App_DisplayGameBoard>
            Protocol_SendAck(cmd, 0); // 0 = success
 8001e3e:	79fb      	ldrb	r3, [r7, #7]
 8001e40:	2100      	movs	r1, #0
 8001e42:	4618      	mov	r0, r3
 8001e44:	f001 f9ce 	bl	80031e4 <Protocol_SendAck>
          Protocol_SendAck(cmd, 1); // 1 = invalid move
        }
      } else {
        Protocol_SendAck(cmd, 3); // 3 = invalid length
      }
      break;
 8001e48:	e1ed      	b.n	8002226 <Protocol_Command_Handler+0x48e>
            Protocol_SendAck(cmd, 2); // 2 = move failed
 8001e4a:	79fb      	ldrb	r3, [r7, #7]
 8001e4c:	2102      	movs	r1, #2
 8001e4e:	4618      	mov	r0, r3
 8001e50:	f001 f9c8 	bl	80031e4 <Protocol_SendAck>
      break;
 8001e54:	e1e7      	b.n	8002226 <Protocol_Command_Handler+0x48e>
          Protocol_SendAck(cmd, 1); // 1 = invalid move
 8001e56:	79fb      	ldrb	r3, [r7, #7]
 8001e58:	2101      	movs	r1, #1
 8001e5a:	4618      	mov	r0, r3
 8001e5c:	f001 f9c2 	bl	80031e4 <Protocol_SendAck>
      break;
 8001e60:	e1e1      	b.n	8002226 <Protocol_Command_Handler+0x48e>
        Protocol_SendAck(cmd, 3); // 3 = invalid length
 8001e62:	79fb      	ldrb	r3, [r7, #7]
 8001e64:	2103      	movs	r1, #3
 8001e66:	4618      	mov	r0, r3
 8001e68:	f001 f9bc 	bl	80031e4 <Protocol_SendAck>
      break;
 8001e6c:	e1db      	b.n	8002226 <Protocol_Command_Handler+0x48e>

    case CMD_GAME_CONFIG:
      /* Handle game configuration / new game command */
      Othello_NewGame(&game_state);  // Reset game state to initial
 8001e6e:	4891      	ldr	r0, [pc, #580]	@ (80020b4 <Protocol_Command_Handler+0x31c>)
 8001e70:	f000 fa0a 	bl	8002288 <Othello_NewGame>
      App_DisplayGameBoard();  // Refresh display
 8001e74:	f7ff fbe0 	bl	8001638 <App_DisplayGameBoard>
      Protocol_SendAck(cmd, 0);  // Send success confirmation
 8001e78:	79fb      	ldrb	r3, [r7, #7]
 8001e7a:	2100      	movs	r1, #0
 8001e7c:	4618      	mov	r0, r3
 8001e7e:	f001 f9b1 	bl	80031e4 <Protocol_SendAck>
      Send_GameState_Via_Protocol(&game_state);  // Send initial board state
 8001e82:	488c      	ldr	r0, [pc, #560]	@ (80020b4 <Protocol_Command_Handler+0x31c>)
 8001e84:	f7ff f941 	bl	800110a <Send_GameState_Via_Protocol>
      break;
 8001e88:	e1cd      	b.n	8002226 <Protocol_Command_Handler+0x48e>

    case CMD_SYSTEM_INFO:
      /* Send system information */
      Protocol_SendSystemInfo();
 8001e8a:	f001 fab9 	bl	8003400 <Protocol_SendSystemInfo>
      break;
 8001e8e:	e1ca      	b.n	8002226 <Protocol_Command_Handler+0x48e>

    case CMD_AI_REQUEST:
      /* Handle AI analysis request */
      /* Send current game state for analysis */
      Send_GameState_Via_Protocol(&game_state);
 8001e90:	4888      	ldr	r0, [pc, #544]	@ (80020b4 <Protocol_Command_Handler+0x31c>)
 8001e92:	f7ff f93a 	bl	800110a <Send_GameState_Via_Protocol>
      Protocol_SendAck(cmd, 0);
 8001e96:	79fb      	ldrb	r3, [r7, #7]
 8001e98:	2100      	movs	r1, #0
 8001e9a:	4618      	mov	r0, r3
 8001e9c:	f001 f9a2 	bl	80031e4 <Protocol_SendAck>
      break;
 8001ea0:	e1c1      	b.n	8002226 <Protocol_Command_Handler+0x48e>

    case CMD_LED_CONTROL:
      /* Handle LED control commands */
      if (len >= 4) { // row, col, r, g, b
 8001ea2:	79bb      	ldrb	r3, [r7, #6]
 8001ea4:	2b03      	cmp	r3, #3
 8001ea6:	d92e      	bls.n	8001f06 <Protocol_Command_Handler+0x16e>
        uint8_t row = data[0];
 8001ea8:	683b      	ldr	r3, [r7, #0]
 8001eaa:	781b      	ldrb	r3, [r3, #0]
 8001eac:	76bb      	strb	r3, [r7, #26]
        uint8_t col = data[1];
 8001eae:	683b      	ldr	r3, [r7, #0]
 8001eb0:	785b      	ldrb	r3, [r3, #1]
 8001eb2:	767b      	strb	r3, [r7, #25]
        RGB_Color_t color = {data[2], data[3], len > 4 ? data[4] : 0};
 8001eb4:	683b      	ldr	r3, [r7, #0]
 8001eb6:	789b      	ldrb	r3, [r3, #2]
 8001eb8:	733b      	strb	r3, [r7, #12]
 8001eba:	683b      	ldr	r3, [r7, #0]
 8001ebc:	78db      	ldrb	r3, [r3, #3]
 8001ebe:	737b      	strb	r3, [r7, #13]
 8001ec0:	79bb      	ldrb	r3, [r7, #6]
 8001ec2:	2b04      	cmp	r3, #4
 8001ec4:	d903      	bls.n	8001ece <Protocol_Command_Handler+0x136>
 8001ec6:	683b      	ldr	r3, [r7, #0]
 8001ec8:	3304      	adds	r3, #4
 8001eca:	781b      	ldrb	r3, [r3, #0]
 8001ecc:	e000      	b.n	8001ed0 <Protocol_Command_Handler+0x138>
 8001ece:	2300      	movs	r3, #0
 8001ed0:	73bb      	strb	r3, [r7, #14]
        if (row < 8 && col < 8) {
 8001ed2:	7ebb      	ldrb	r3, [r7, #26]
 8001ed4:	2b07      	cmp	r3, #7
 8001ed6:	d810      	bhi.n	8001efa <Protocol_Command_Handler+0x162>
 8001ed8:	7e7b      	ldrb	r3, [r7, #25]
 8001eda:	2b07      	cmp	r3, #7
 8001edc:	d80d      	bhi.n	8001efa <Protocol_Command_Handler+0x162>
          WS2812B_SetPixel(row, col, color);
 8001ede:	7e79      	ldrb	r1, [r7, #25]
 8001ee0:	7ebb      	ldrb	r3, [r7, #26]
 8001ee2:	68fa      	ldr	r2, [r7, #12]
 8001ee4:	4618      	mov	r0, r3
 8001ee6:	f001 fbcf 	bl	8003688 <WS2812B_SetPixel>
          WS2812B_Update();
 8001eea:	f001 fc13 	bl	8003714 <WS2812B_Update>
          Protocol_SendAck(cmd, 0);
 8001eee:	79fb      	ldrb	r3, [r7, #7]
 8001ef0:	2100      	movs	r1, #0
 8001ef2:	4618      	mov	r0, r3
 8001ef4:	f001 f976 	bl	80031e4 <Protocol_SendAck>
          Protocol_SendAck(cmd, 2); // Invalid coordinates
        }
      } else {
        Protocol_SendAck(cmd, 1); // Invalid length
      }
      break;
 8001ef8:	e195      	b.n	8002226 <Protocol_Command_Handler+0x48e>
          Protocol_SendAck(cmd, 2); // Invalid coordinates
 8001efa:	79fb      	ldrb	r3, [r7, #7]
 8001efc:	2102      	movs	r1, #2
 8001efe:	4618      	mov	r0, r3
 8001f00:	f001 f970 	bl	80031e4 <Protocol_SendAck>
      break;
 8001f04:	e18f      	b.n	8002226 <Protocol_Command_Handler+0x48e>
        Protocol_SendAck(cmd, 1); // Invalid length
 8001f06:	79fb      	ldrb	r3, [r7, #7]
 8001f08:	2101      	movs	r1, #1
 8001f0a:	4618      	mov	r0, r3
 8001f0c:	f001 f96a 	bl	80031e4 <Protocol_SendAck>
      break;
 8001f10:	e189      	b.n	8002226 <Protocol_Command_Handler+0x48e>

    case CMD_HEARTBEAT:
      /* Respond to heartbeat */
      Protocol_SendHeartbeat();
 8001f12:	f001 f9e7 	bl	80032e4 <Protocol_SendHeartbeat>
      break;
 8001f16:	e186      	b.n	8002226 <Protocol_Command_Handler+0x48e>

    case CMD_BOARD_STATE:
      /* Receive and update game state from PC (Sync direction: PC  STM32) */

      // ==========  ==========
      if (is_displaying_result) {
 8001f18:	4b67      	ldr	r3, [pc, #412]	@ (80020b8 <Protocol_Command_Handler+0x320>)
 8001f1a:	781b      	ldrb	r3, [r3, #0]
 8001f1c:	2b00      	cmp	r3, #0
 8001f1e:	d005      	beq.n	8001f2c <Protocol_Command_Handler+0x194>
        // 
        Protocol_SendAck(cmd, 4);  // 4 = Busy/Rejected
 8001f20:	79fb      	ldrb	r3, [r7, #7]
 8001f22:	2104      	movs	r1, #4
 8001f24:	4618      	mov	r0, r3
 8001f26:	f001 f95d 	bl	80031e4 <Protocol_SendAck>
        DEBUG_INFO("[SYNC] Refused state update: displaying game result\r\n");
        break;
 8001f2a:	e17c      	b.n	8002226 <Protocol_Command_Handler+0x48e>
      }

      // ==========  ==========
      if (len == 72) {  // Game_State_Data_t = 72 bytes
 8001f2c:	79bb      	ldrb	r3, [r7, #6]
 8001f2e:	2b48      	cmp	r3, #72	@ 0x48
 8001f30:	f040 808a 	bne.w	8002048 <Protocol_Command_Handler+0x2b0>
        // ==========  ==========

        // 1.  (0-63)
        for (uint8_t i = 0; i < 64; i++) {
 8001f34:	2300      	movs	r3, #0
 8001f36:	f887 302f 	strb.w	r3, [r7, #47]	@ 0x2f
 8001f3a:	e01a      	b.n	8001f72 <Protocol_Command_Handler+0x1da>
          uint8_t row = i / 8;
 8001f3c:	f897 302f 	ldrb.w	r3, [r7, #47]	@ 0x2f
 8001f40:	08db      	lsrs	r3, r3, #3
 8001f42:	74bb      	strb	r3, [r7, #18]
          uint8_t col = i % 8;
 8001f44:	f897 302f 	ldrb.w	r3, [r7, #47]	@ 0x2f
 8001f48:	f003 0307 	and.w	r3, r3, #7
 8001f4c:	747b      	strb	r3, [r7, #17]
          game_state.board[row][col] = (PieceType_t)data[i];
 8001f4e:	f897 302f 	ldrb.w	r3, [r7, #47]	@ 0x2f
 8001f52:	683a      	ldr	r2, [r7, #0]
 8001f54:	18d1      	adds	r1, r2, r3
 8001f56:	7cba      	ldrb	r2, [r7, #18]
 8001f58:	7c7b      	ldrb	r3, [r7, #17]
 8001f5a:	7808      	ldrb	r0, [r1, #0]
 8001f5c:	4955      	ldr	r1, [pc, #340]	@ (80020b4 <Protocol_Command_Handler+0x31c>)
 8001f5e:	00d2      	lsls	r2, r2, #3
 8001f60:	440a      	add	r2, r1
 8001f62:	4413      	add	r3, r2
 8001f64:	4602      	mov	r2, r0
 8001f66:	701a      	strb	r2, [r3, #0]
        for (uint8_t i = 0; i < 64; i++) {
 8001f68:	f897 302f 	ldrb.w	r3, [r7, #47]	@ 0x2f
 8001f6c:	3301      	adds	r3, #1
 8001f6e:	f887 302f 	strb.w	r3, [r7, #47]	@ 0x2f
 8001f72:	f897 302f 	ldrb.w	r3, [r7, #47]	@ 0x2f
 8001f76:	2b3f      	cmp	r3, #63	@ 0x3f
 8001f78:	d9e0      	bls.n	8001f3c <Protocol_Command_Handler+0x1a4>
        }

        // 2.  (64)
        game_state.current_player = (PieceType_t)data[64];
 8001f7a:	683b      	ldr	r3, [r7, #0]
 8001f7c:	3340      	adds	r3, #64	@ 0x40
 8001f7e:	781a      	ldrb	r2, [r3, #0]
 8001f80:	4b4c      	ldr	r3, [pc, #304]	@ (80020b4 <Protocol_Command_Handler+0x31c>)
 8001f82:	f883 2040 	strb.w	r2, [r3, #64]	@ 0x40

        // 3.  (65-66)
        game_state.black_count = data[65];
 8001f86:	683b      	ldr	r3, [r7, #0]
 8001f88:	f893 2041 	ldrb.w	r2, [r3, #65]	@ 0x41
 8001f8c:	4b49      	ldr	r3, [pc, #292]	@ (80020b4 <Protocol_Command_Handler+0x31c>)
 8001f8e:	f883 2041 	strb.w	r2, [r3, #65]	@ 0x41
        game_state.white_count = data[66];
 8001f92:	683b      	ldr	r3, [r7, #0]
 8001f94:	f893 2042 	ldrb.w	r2, [r3, #66]	@ 0x42
 8001f98:	4b46      	ldr	r3, [pc, #280]	@ (80020b4 <Protocol_Command_Handler+0x31c>)
 8001f9a:	f883 2042 	strb.w	r2, [r3, #66]	@ 0x42

        // 4.  (67)
        bool game_just_ended = false;  // 
 8001f9e:	2300      	movs	r3, #0
 8001fa0:	f887 302e 	strb.w	r3, [r7, #46]	@ 0x2e
        if (data[67] == 1) {
 8001fa4:	683b      	ldr	r3, [r7, #0]
 8001fa6:	3343      	adds	r3, #67	@ 0x43
 8001fa8:	781b      	ldrb	r3, [r3, #0]
 8001faa:	2b01      	cmp	r3, #1
 8001fac:	d121      	bne.n	8001ff2 <Protocol_Command_Handler+0x25a>
          // 
          if (game_state.black_count > game_state.white_count) {
 8001fae:	4b41      	ldr	r3, [pc, #260]	@ (80020b4 <Protocol_Command_Handler+0x31c>)
 8001fb0:	f893 2041 	ldrb.w	r2, [r3, #65]	@ 0x41
 8001fb4:	4b3f      	ldr	r3, [pc, #252]	@ (80020b4 <Protocol_Command_Handler+0x31c>)
 8001fb6:	f893 3042 	ldrb.w	r3, [r3, #66]	@ 0x42
 8001fba:	429a      	cmp	r2, r3
 8001fbc:	d904      	bls.n	8001fc8 <Protocol_Command_Handler+0x230>
            game_state.status = GAME_STATUS_BLACK_WIN;
 8001fbe:	4b3d      	ldr	r3, [pc, #244]	@ (80020b4 <Protocol_Command_Handler+0x31c>)
 8001fc0:	2201      	movs	r2, #1
 8001fc2:	f883 2043 	strb.w	r2, [r3, #67]	@ 0x43
 8001fc6:	e010      	b.n	8001fea <Protocol_Command_Handler+0x252>
          } else if (game_state.black_count < game_state.white_count) {
 8001fc8:	4b3a      	ldr	r3, [pc, #232]	@ (80020b4 <Protocol_Command_Handler+0x31c>)
 8001fca:	f893 2041 	ldrb.w	r2, [r3, #65]	@ 0x41
 8001fce:	4b39      	ldr	r3, [pc, #228]	@ (80020b4 <Protocol_Command_Handler+0x31c>)
 8001fd0:	f893 3042 	ldrb.w	r3, [r3, #66]	@ 0x42
 8001fd4:	429a      	cmp	r2, r3
 8001fd6:	d204      	bcs.n	8001fe2 <Protocol_Command_Handler+0x24a>
            game_state.status = GAME_STATUS_WHITE_WIN;
 8001fd8:	4b36      	ldr	r3, [pc, #216]	@ (80020b4 <Protocol_Command_Handler+0x31c>)
 8001fda:	2202      	movs	r2, #2
 8001fdc:	f883 2043 	strb.w	r2, [r3, #67]	@ 0x43
 8001fe0:	e003      	b.n	8001fea <Protocol_Command_Handler+0x252>
          } else {
            game_state.status = GAME_STATUS_DRAW;
 8001fe2:	4b34      	ldr	r3, [pc, #208]	@ (80020b4 <Protocol_Command_Handler+0x31c>)
 8001fe4:	2203      	movs	r2, #3
 8001fe6:	f883 2043 	strb.w	r2, [r3, #67]	@ 0x43
          }
          game_just_ended = true;  // 
 8001fea:	2301      	movs	r3, #1
 8001fec:	f887 302e 	strb.w	r3, [r7, #46]	@ 0x2e
 8001ff0:	e003      	b.n	8001ffa <Protocol_Command_Handler+0x262>
        } else {
          game_state.status = GAME_STATUS_PLAYING;
 8001ff2:	4b30      	ldr	r3, [pc, #192]	@ (80020b4 <Protocol_Command_Handler+0x31c>)
 8001ff4:	2200      	movs	r2, #0
 8001ff6:	f883 2043 	strb.w	r2, [r3, #67]	@ 0x43
        }

        // 5.  (68-71, little-endian)
        game_state.move_count = data[68] | ((uint32_t)data[69] << 8) |
 8001ffa:	683b      	ldr	r3, [r7, #0]
 8001ffc:	3344      	adds	r3, #68	@ 0x44
 8001ffe:	781b      	ldrb	r3, [r3, #0]
 8002000:	461a      	mov	r2, r3
 8002002:	683b      	ldr	r3, [r7, #0]
 8002004:	3345      	adds	r3, #69	@ 0x45
 8002006:	781b      	ldrb	r3, [r3, #0]
 8002008:	021b      	lsls	r3, r3, #8
 800200a:	431a      	orrs	r2, r3
                               ((uint32_t)data[70] << 16) | ((uint32_t)data[71] << 24);
 800200c:	683b      	ldr	r3, [r7, #0]
 800200e:	3346      	adds	r3, #70	@ 0x46
 8002010:	781b      	ldrb	r3, [r3, #0]
 8002012:	041b      	lsls	r3, r3, #16
        game_state.move_count = data[68] | ((uint32_t)data[69] << 8) |
 8002014:	431a      	orrs	r2, r3
                               ((uint32_t)data[70] << 16) | ((uint32_t)data[71] << 24);
 8002016:	683b      	ldr	r3, [r7, #0]
 8002018:	3347      	adds	r3, #71	@ 0x47
 800201a:	781b      	ldrb	r3, [r3, #0]
 800201c:	061b      	lsls	r3, r3, #24
 800201e:	4313      	orrs	r3, r2
        game_state.move_count = data[68] | ((uint32_t)data[69] << 8) |
 8002020:	4a24      	ldr	r2, [pc, #144]	@ (80020b4 <Protocol_Command_Handler+0x31c>)
 8002022:	6453      	str	r3, [r2, #68]	@ 0x44

        // ==========  ==========
        if (game_just_ended) {
 8002024:	f897 302e 	ldrb.w	r3, [r7, #46]	@ 0x2e
 8002028:	2b00      	cmp	r3, #0
 800202a:	d005      	beq.n	8002038 <Protocol_Command_Handler+0x2a0>
          DEBUG_INFO("[SYNC] Game ended from PC, status=%d, setting game_end_pending flag\r\n", game_state.status);
          game_end_pending = true;  // 
 800202c:	4b23      	ldr	r3, [pc, #140]	@ (80020bc <Protocol_Command_Handler+0x324>)
 800202e:	2201      	movs	r2, #1
 8002030:	701a      	strb	r2, [r3, #0]
          App_DisplayGameBoard();    // 
 8002032:	f7ff fb01 	bl	8001638 <App_DisplayGameBoard>
 8002036:	e001      	b.n	800203c <Protocol_Command_Handler+0x2a4>
        } else {
          // 
          App_DisplayGameBoard();
 8002038:	f7ff fafe 	bl	8001638 <App_DisplayGameBoard>
        }

        // 
        Protocol_SendAck(cmd, 0);  // Success
 800203c:	79fb      	ldrb	r3, [r7, #7]
 800203e:	2100      	movs	r1, #0
 8002040:	4618      	mov	r0, r3
 8002042:	f001 f8cf 	bl	80031e4 <Protocol_SendAck>
      } else {
        // 
        Protocol_SendAck(cmd, 1);  // Invalid length
        DEBUG_ERROR("[SYNC] Invalid data length: %d (expected 72)\r\n", len);
      }
      break;
 8002046:	e0ee      	b.n	8002226 <Protocol_Command_Handler+0x48e>
        Protocol_SendAck(cmd, 1);  // Invalid length
 8002048:	79fb      	ldrb	r3, [r7, #7]
 800204a:	2101      	movs	r1, #1
 800204c:	4618      	mov	r0, r3
 800204e:	f001 f8c9 	bl	80031e4 <Protocol_SendAck>
      break;
 8002052:	e0e8      	b.n	8002226 <Protocol_Command_Handler+0x48e>

    case CMD_GAME_CONTROL:
      /* Handle game control commands */
      if (len == sizeof(Game_Control_Data_t)) {
 8002054:	79bb      	ldrb	r3, [r7, #6]
 8002056:	2b08      	cmp	r3, #8
 8002058:	d126      	bne.n	80020a8 <Protocol_Command_Handler+0x310>
        Game_Control_Data_t* ctrl_data = (Game_Control_Data_t*)data;
 800205a:	683b      	ldr	r3, [r7, #0]
 800205c:	61fb      	str	r3, [r7, #28]
        Game_Control_Status_t status = Game_Control_HandleAction(
            (Game_Control_Action_t)ctrl_data->action, &game_state);
 800205e:	69fb      	ldr	r3, [r7, #28]
 8002060:	781b      	ldrb	r3, [r3, #0]
        Game_Control_Status_t status = Game_Control_HandleAction(
 8002062:	4914      	ldr	r1, [pc, #80]	@ (80020b4 <Protocol_Command_Handler+0x31c>)
 8002064:	4618      	mov	r0, r3
 8002066:	f7fe fadf 	bl	8000628 <Game_Control_HandleAction>
 800206a:	4603      	mov	r3, r0
 800206c:	76fb      	strb	r3, [r7, #27]

        if (status == GAME_CTRL_OK) {
 800206e:	7efb      	ldrb	r3, [r7, #27]
 8002070:	2b00      	cmp	r3, #0
 8002072:	d10a      	bne.n	800208a <Protocol_Command_Handler+0x2f2>
          App_DisplayGameBoard();  // Update display
 8002074:	f7ff fae0 	bl	8001638 <App_DisplayGameBoard>
          Protocol_SendAck(cmd, 0);  // Success
 8002078:	79fb      	ldrb	r3, [r7, #7]
 800207a:	2100      	movs	r1, #0
 800207c:	4618      	mov	r0, r3
 800207e:	f001 f8b1 	bl	80031e4 <Protocol_SendAck>
          Send_GameState_Via_Protocol(&game_state);  // Send updated state
 8002082:	480c      	ldr	r0, [pc, #48]	@ (80020b4 <Protocol_Command_Handler+0x31c>)
 8002084:	f7ff f841 	bl	800110a <Send_GameState_Via_Protocol>
          Protocol_SendAck(cmd, 2);  // Other error
        }
      } else {
        Protocol_SendAck(cmd, 3);  // Invalid length
      }
      break;
 8002088:	e0cd      	b.n	8002226 <Protocol_Command_Handler+0x48e>
        } else if (status == GAME_CTRL_INVALID_STATE) {
 800208a:	7efb      	ldrb	r3, [r7, #27]
 800208c:	2b02      	cmp	r3, #2
 800208e:	d105      	bne.n	800209c <Protocol_Command_Handler+0x304>
          Protocol_SendAck(cmd, 1);  // Invalid state for this action
 8002090:	79fb      	ldrb	r3, [r7, #7]
 8002092:	2101      	movs	r1, #1
 8002094:	4618      	mov	r0, r3
 8002096:	f001 f8a5 	bl	80031e4 <Protocol_SendAck>
      break;
 800209a:	e0c4      	b.n	8002226 <Protocol_Command_Handler+0x48e>
          Protocol_SendAck(cmd, 2);  // Other error
 800209c:	79fb      	ldrb	r3, [r7, #7]
 800209e:	2102      	movs	r1, #2
 80020a0:	4618      	mov	r0, r3
 80020a2:	f001 f89f 	bl	80031e4 <Protocol_SendAck>
      break;
 80020a6:	e0be      	b.n	8002226 <Protocol_Command_Handler+0x48e>
        Protocol_SendAck(cmd, 3);  // Invalid length
 80020a8:	79fb      	ldrb	r3, [r7, #7]
 80020aa:	2103      	movs	r1, #3
 80020ac:	4618      	mov	r0, r3
 80020ae:	f001 f899 	bl	80031e4 <Protocol_SendAck>
      break;
 80020b2:	e0b8      	b.n	8002226 <Protocol_Command_Handler+0x48e>
 80020b4:	20000340 	.word	0x20000340
 80020b8:	20000404 	.word	0x20000404
 80020bc:	20000405 	.word	0x20000405

    case CMD_MODE_SELECT:
      /* Handle game mode selection */
      if (len == sizeof(Mode_Select_Data_t)) {
 80020c0:	79bb      	ldrb	r3, [r7, #6]
 80020c2:	2b04      	cmp	r3, #4
 80020c4:	d156      	bne.n	8002174 <Protocol_Command_Handler+0x3dc>
        Mode_Select_Data_t* mode_data = (Mode_Select_Data_t*)data;
 80020c6:	683b      	ldr	r3, [r7, #0]
 80020c8:	623b      	str	r3, [r7, #32]
        current_game_mode = (Game_Mode_t)mode_data->mode;
 80020ca:	6a3b      	ldr	r3, [r7, #32]
 80020cc:	781a      	ldrb	r2, [r3, #0]
 80020ce:	4b58      	ldr	r3, [pc, #352]	@ (8002230 <Protocol_Command_Handler+0x498>)
 80020d0:	701a      	strb	r2, [r3, #0]

        if (current_game_mode == GAME_MODE_CHALLENGE) {
 80020d2:	4b57      	ldr	r3, [pc, #348]	@ (8002230 <Protocol_Command_Handler+0x498>)
 80020d4:	781b      	ldrb	r3, [r3, #0]
 80020d6:	2b02      	cmp	r3, #2
 80020d8:	d110      	bne.n	80020fc <Protocol_Command_Handler+0x364>
          // Start challenge mode
          if (Challenge_Start() == CHALLENGE_OK) {
 80020da:	f7fe f851 	bl	8000180 <Challenge_Start>
 80020de:	4603      	mov	r3, r0
 80020e0:	2b00      	cmp	r3, #0
 80020e2:	d105      	bne.n	80020f0 <Protocol_Command_Handler+0x358>
            DEBUG_INFO("[MODE] Challenge mode started\r\n");
            Protocol_SendAck(cmd, 0);  // Success
 80020e4:	79fb      	ldrb	r3, [r7, #7]
 80020e6:	2100      	movs	r1, #0
 80020e8:	4618      	mov	r0, r3
 80020ea:	f001 f87b 	bl	80031e4 <Protocol_SendAck>
          Protocol_SendAck(cmd, 3);  // Invalid mode
        }
      } else {
        Protocol_SendAck(cmd, 4);  // Invalid length
      }
      break;
 80020ee:	e09a      	b.n	8002226 <Protocol_Command_Handler+0x48e>
            Protocol_SendAck(cmd, 2);  // Challenge start failed
 80020f0:	79fb      	ldrb	r3, [r7, #7]
 80020f2:	2102      	movs	r1, #2
 80020f4:	4618      	mov	r0, r3
 80020f6:	f001 f875 	bl	80031e4 <Protocol_SendAck>
      break;
 80020fa:	e094      	b.n	8002226 <Protocol_Command_Handler+0x48e>
        } else if (current_game_mode == GAME_MODE_NORMAL) {
 80020fc:	4b4c      	ldr	r3, [pc, #304]	@ (8002230 <Protocol_Command_Handler+0x498>)
 80020fe:	781b      	ldrb	r3, [r3, #0]
 8002100:	2b01      	cmp	r3, #1
 8002102:	d10c      	bne.n	800211e <Protocol_Command_Handler+0x386>
          if (Challenge_GetState() != CHALLENGE_STATE_INACTIVE) {
 8002104:	f7fe f8f6 	bl	80002f4 <Challenge_GetState>
 8002108:	4603      	mov	r3, r0
 800210a:	2b00      	cmp	r3, #0
 800210c:	d001      	beq.n	8002112 <Protocol_Command_Handler+0x37a>
            Challenge_End();
 800210e:	f7fe f863 	bl	80001d8 <Challenge_End>
          Protocol_SendAck(cmd, 0);  // Success
 8002112:	79fb      	ldrb	r3, [r7, #7]
 8002114:	2100      	movs	r1, #0
 8002116:	4618      	mov	r0, r3
 8002118:	f001 f864 	bl	80031e4 <Protocol_SendAck>
      break;
 800211c:	e083      	b.n	8002226 <Protocol_Command_Handler+0x48e>
        } else if (current_game_mode == GAME_MODE_TIMED) {
 800211e:	4b44      	ldr	r3, [pc, #272]	@ (8002230 <Protocol_Command_Handler+0x498>)
 8002120:	781b      	ldrb	r3, [r3, #0]
 8002122:	2b03      	cmp	r3, #3
 8002124:	d105      	bne.n	8002132 <Protocol_Command_Handler+0x39a>
          Protocol_SendAck(cmd, 1);  // Not implemented
 8002126:	79fb      	ldrb	r3, [r7, #7]
 8002128:	2101      	movs	r1, #1
 800212a:	4618      	mov	r0, r3
 800212c:	f001 f85a 	bl	80031e4 <Protocol_SendAck>
      break;
 8002130:	e079      	b.n	8002226 <Protocol_Command_Handler+0x48e>
        } else if (current_game_mode == GAME_MODE_CHEAT) {
 8002132:	4b3f      	ldr	r3, [pc, #252]	@ (8002230 <Protocol_Command_Handler+0x498>)
 8002134:	781b      	ldrb	r3, [r3, #0]
 8002136:	2b04      	cmp	r3, #4
 8002138:	d116      	bne.n	8002168 <Protocol_Command_Handler+0x3d0>
          if (Challenge_GetState() != CHALLENGE_STATE_INACTIVE) {
 800213a:	f7fe f8db 	bl	80002f4 <Challenge_GetState>
 800213e:	4603      	mov	r3, r0
 8002140:	2b00      	cmp	r3, #0
 8002142:	d001      	beq.n	8002148 <Protocol_Command_Handler+0x3b0>
            Challenge_End();
 8002144:	f7fe f848 	bl	80001d8 <Challenge_End>
          Othello_ResetState(&game_state);
 8002148:	483a      	ldr	r0, [pc, #232]	@ (8002234 <Protocol_Command_Handler+0x49c>)
 800214a:	f000 fb00 	bl	800274e <Othello_ResetState>
          game_state.game_mode = GAME_MODE_CHEAT;
 800214e:	4b39      	ldr	r3, [pc, #228]	@ (8002234 <Protocol_Command_Handler+0x49c>)
 8002150:	2204      	movs	r2, #4
 8002152:	f883 2099 	strb.w	r2, [r3, #153]	@ 0x99
          Protocol_SendAck(cmd, 0);  // Success
 8002156:	79fb      	ldrb	r3, [r7, #7]
 8002158:	2100      	movs	r1, #0
 800215a:	4618      	mov	r0, r3
 800215c:	f001 f842 	bl	80031e4 <Protocol_SendAck>
          Send_GameState_Via_Protocol(&game_state);
 8002160:	4834      	ldr	r0, [pc, #208]	@ (8002234 <Protocol_Command_Handler+0x49c>)
 8002162:	f7fe ffd2 	bl	800110a <Send_GameState_Via_Protocol>
      break;
 8002166:	e05e      	b.n	8002226 <Protocol_Command_Handler+0x48e>
          Protocol_SendAck(cmd, 3);  // Invalid mode
 8002168:	79fb      	ldrb	r3, [r7, #7]
 800216a:	2103      	movs	r1, #3
 800216c:	4618      	mov	r0, r3
 800216e:	f001 f839 	bl	80031e4 <Protocol_SendAck>
      break;
 8002172:	e058      	b.n	8002226 <Protocol_Command_Handler+0x48e>
        Protocol_SendAck(cmd, 4);  // Invalid length
 8002174:	79fb      	ldrb	r3, [r7, #7]
 8002176:	2104      	movs	r1, #4
 8002178:	4618      	mov	r0, r3
 800217a:	f001 f833 	bl	80031e4 <Protocol_SendAck>
      break;
 800217e:	e052      	b.n	8002226 <Protocol_Command_Handler+0x48e>

    case CMD_TIMER_UPDATE:
      /* Handle timer update from PC (timed mode) */
      if (len >= 2) {
 8002180:	79bb      	ldrb	r3, [r7, #6]
 8002182:	2b01      	cmp	r3, #1
 8002184:	d911      	bls.n	80021aa <Protocol_Command_Handler+0x412>
        // Extract remaining time (2 bytes, big-endian)
        uint16_t remaining_time = (data[0] << 8) | data[1];
 8002186:	683b      	ldr	r3, [r7, #0]
 8002188:	781b      	ldrb	r3, [r3, #0]
 800218a:	b21b      	sxth	r3, r3
 800218c:	021b      	lsls	r3, r3, #8
 800218e:	b21a      	sxth	r2, r3
 8002190:	683b      	ldr	r3, [r7, #0]
 8002192:	3301      	adds	r3, #1
 8002194:	781b      	ldrb	r3, [r3, #0]
 8002196:	b21b      	sxth	r3, r3
 8002198:	4313      	orrs	r3, r2
 800219a:	b21b      	sxth	r3, r3
 800219c:	84fb      	strh	r3, [r7, #38]	@ 0x26

        // Optional: Display time on LED matrix if needed
        // For now, just acknowledge receipt
        DEBUG_INFO("[TIMER] Remaining: %d seconds\r\n", remaining_time);
        (void)remaining_time;  // Avoid unused variable warning when DEBUG is disabled
        Protocol_SendAck(cmd, 0);  // Success
 800219e:	79fb      	ldrb	r3, [r7, #7]
 80021a0:	2100      	movs	r1, #0
 80021a2:	4618      	mov	r0, r3
 80021a4:	f001 f81e 	bl	80031e4 <Protocol_SendAck>
      } else {
        Protocol_SendAck(cmd, 1);  // Invalid length
      }
      break;
 80021a8:	e03d      	b.n	8002226 <Protocol_Command_Handler+0x48e>
        Protocol_SendAck(cmd, 1);  // Invalid length
 80021aa:	79fb      	ldrb	r3, [r7, #7]
 80021ac:	2101      	movs	r1, #1
 80021ae:	4618      	mov	r0, r3
 80021b0:	f001 f818 	bl	80031e4 <Protocol_SendAck>
      break;
 80021b4:	e037      	b.n	8002226 <Protocol_Command_Handler+0x48e>

    case CMD_CHEAT_COLOR_SELECT:
      /* Handle cheat mode color selection */
      if (len == sizeof(Cheat_Color_Select_Data_t)) {
 80021b6:	79bb      	ldrb	r3, [r7, #6]
 80021b8:	2b01      	cmp	r3, #1
 80021ba:	d127      	bne.n	800220c <Protocol_Command_Handler+0x474>
        Cheat_Color_Select_Data_t* color_data = (Cheat_Color_Select_Data_t*)data;
 80021bc:	683b      	ldr	r3, [r7, #0]
 80021be:	62bb      	str	r3, [r7, #40]	@ 0x28

        // Validate color (1=BLACK, 2=WHITE)
        if (color_data->player_color != PIECE_BLACK &&
 80021c0:	6abb      	ldr	r3, [r7, #40]	@ 0x28
 80021c2:	781b      	ldrb	r3, [r3, #0]
 80021c4:	2b01      	cmp	r3, #1
 80021c6:	d009      	beq.n	80021dc <Protocol_Command_Handler+0x444>
            color_data->player_color != PIECE_WHITE) {
 80021c8:	6abb      	ldr	r3, [r7, #40]	@ 0x28
 80021ca:	781b      	ldrb	r3, [r3, #0]
        if (color_data->player_color != PIECE_BLACK &&
 80021cc:	2b02      	cmp	r3, #2
 80021ce:	d005      	beq.n	80021dc <Protocol_Command_Handler+0x444>
          DEBUG_ERROR("[CHEAT] Invalid color: %d\r\n", color_data->player_color);
          Protocol_SendAck(cmd, 1);  // Invalid parameter
 80021d0:	79fb      	ldrb	r3, [r7, #7]
 80021d2:	2101      	movs	r1, #1
 80021d4:	4618      	mov	r0, r3
 80021d6:	f001 f805 	bl	80031e4 <Protocol_SendAck>
          break;
 80021da:	e024      	b.n	8002226 <Protocol_Command_Handler+0x48e>
        }

        // Only allow in cheat mode
        if (current_game_mode != GAME_MODE_CHEAT) {
 80021dc:	4b14      	ldr	r3, [pc, #80]	@ (8002230 <Protocol_Command_Handler+0x498>)
 80021de:	781b      	ldrb	r3, [r3, #0]
 80021e0:	2b04      	cmp	r3, #4
 80021e2:	d005      	beq.n	80021f0 <Protocol_Command_Handler+0x458>
          DEBUG_ERROR("[CHEAT] Not in cheat mode\r\n");
          Protocol_SendAck(cmd, 2);  // Wrong mode
 80021e4:	79fb      	ldrb	r3, [r7, #7]
 80021e6:	2102      	movs	r1, #2
 80021e8:	4618      	mov	r0, r3
 80021ea:	f000 fffb 	bl	80031e4 <Protocol_SendAck>
          break;
 80021ee:	e01a      	b.n	8002226 <Protocol_Command_Handler+0x48e>
        }

        // Set the selected color as current player
        game_state.current_player = (PieceType_t)color_data->player_color;
 80021f0:	6abb      	ldr	r3, [r7, #40]	@ 0x28
 80021f2:	781a      	ldrb	r2, [r3, #0]
 80021f4:	4b0f      	ldr	r3, [pc, #60]	@ (8002234 <Protocol_Command_Handler+0x49c>)
 80021f6:	f883 2040 	strb.w	r2, [r3, #64]	@ 0x40

        DEBUG_INFO("[CHEAT] Color selected: %s\r\n",
                   color_data->player_color == PIECE_BLACK ? "BLACK" : "WHITE");

        Protocol_SendAck(cmd, 0);  // Success
 80021fa:	79fb      	ldrb	r3, [r7, #7]
 80021fc:	2100      	movs	r1, #0
 80021fe:	4618      	mov	r0, r3
 8002200:	f000 fff0 	bl	80031e4 <Protocol_SendAck>

        // Send updated game state to PC
        Send_GameState_Via_Protocol(&game_state);
 8002204:	480b      	ldr	r0, [pc, #44]	@ (8002234 <Protocol_Command_Handler+0x49c>)
 8002206:	f7fe ff80 	bl	800110a <Send_GameState_Via_Protocol>
      } else {
        Protocol_SendAck(cmd, 3);  // Invalid length
      }
      break;
 800220a:	e00c      	b.n	8002226 <Protocol_Command_Handler+0x48e>
        Protocol_SendAck(cmd, 3);  // Invalid length
 800220c:	79fb      	ldrb	r3, [r7, #7]
 800220e:	2103      	movs	r1, #3
 8002210:	4618      	mov	r0, r3
 8002212:	f000 ffe7 	bl	80031e4 <Protocol_SendAck>
      break;
 8002216:	e006      	b.n	8002226 <Protocol_Command_Handler+0x48e>

    default:
      /* Unknown command */
      Protocol_SendError(1, (uint8_t*)&cmd, 1);
 8002218:	1dfb      	adds	r3, r7, #7
 800221a:	2201      	movs	r2, #1
 800221c:	4619      	mov	r1, r3
 800221e:	2001      	movs	r0, #1
 8002220:	f000 fff8 	bl	8003214 <Protocol_SendError>
      break;
 8002224:	bf00      	nop
  }
}
 8002226:	bf00      	nop
 8002228:	3730      	adds	r7, #48	@ 0x30
 800222a:	46bd      	mov	sp, r7
 800222c:	bd80      	pop	{r7, pc}
 800222e:	bf00      	nop
 8002230:	20000023 	.word	0x20000023
 8002234:	20000340 	.word	0x20000340

08002238 <HAL_UART_RxCpltCallback>:
 * @brief HAL UART Receive Complete Callback
 * @param huart UART handle
 * @retval None
 */
void HAL_UART_RxCpltCallback(UART_HandleTypeDef *huart)
{
 8002238:	b580      	push	{r7, lr}
 800223a:	b082      	sub	sp, #8
 800223c:	af00      	add	r7, sp, #0
 800223e:	6078      	str	r0, [r7, #4]
  /* Call protocol RX callback */
  Protocol_UART_RxCallback(huart);
 8002240:	6878      	ldr	r0, [r7, #4]
 8002242:	f001 f941 	bl	80034c8 <Protocol_UART_RxCallback>
}
 8002246:	bf00      	nop
 8002248:	3708      	adds	r7, #8
 800224a:	46bd      	mov	sp, r7
 800224c:	bd80      	pop	{r7, pc}

0800224e <Error_Handler>:
/**
  * @brief  This function is executed in case of error occurrence.
  * @retval None
  */
void Error_Handler(void)
{
 800224e:	b480      	push	{r7}
 8002250:	af00      	add	r7, sp, #0
  \details Disables IRQ interrupts by setting the I-bit in the CPSR.
           Can only be executed in Privileged modes.
 */
__STATIC_FORCEINLINE void __disable_irq(void)
{
  __ASM volatile ("cpsid i" : : : "memory");
 8002252:	b672      	cpsid	i
}
 8002254:	bf00      	nop
  /* USER CODE BEGIN Error_Handler_Debug */
  /* User can add his own implementation to report the HAL error return state */
  __disable_irq();
  while (1)
 8002256:	bf00      	nop
 8002258:	e7fd      	b.n	8002256 <Error_Handler+0x8>
	...

0800225c <Othello_Init>:

/**
 * @brief Initialize game engine
 */
Othello_Status_t Othello_Init(void)
{
 800225c:	b580      	push	{r7, lr}
 800225e:	af00      	add	r7, sp, #0
    if (engine.initialized) {
 8002260:	4b08      	ldr	r3, [pc, #32]	@ (8002284 <Othello_Init+0x28>)
 8002262:	781b      	ldrb	r3, [r3, #0]
 8002264:	2b00      	cmp	r3, #0
 8002266:	d001      	beq.n	800226c <Othello_Init+0x10>
        return OTHELLO_OK;
 8002268:	2300      	movs	r3, #0
 800226a:	e008      	b.n	800227e <Othello_Init+0x22>
    }

    // Initialize engine state
    memset(&engine, 0, sizeof(OthelloEngine_t));
 800226c:	2224      	movs	r2, #36	@ 0x24
 800226e:	2100      	movs	r1, #0
 8002270:	4804      	ldr	r0, [pc, #16]	@ (8002284 <Othello_Init+0x28>)
 8002272:	f004 fdad 	bl	8006dd0 <memset>
    engine.initialized = true;
 8002276:	4b03      	ldr	r3, [pc, #12]	@ (8002284 <Othello_Init+0x28>)
 8002278:	2201      	movs	r2, #1
 800227a:	701a      	strb	r2, [r3, #0]

    return OTHELLO_OK;
 800227c:	2300      	movs	r3, #0
}
 800227e:	4618      	mov	r0, r3
 8002280:	bd80      	pop	{r7, pc}
 8002282:	bf00      	nop
 8002284:	20000410 	.word	0x20000410

08002288 <Othello_NewGame>:

/**
 * @brief Start new game
 */
Othello_Status_t Othello_NewGame(GameState_t* state)
{
 8002288:	b580      	push	{r7, lr}
 800228a:	b082      	sub	sp, #8
 800228c:	af00      	add	r7, sp, #0
 800228e:	6078      	str	r0, [r7, #4]
    if (!engine.initialized || !state) {
 8002290:	4b2d      	ldr	r3, [pc, #180]	@ (8002348 <Othello_NewGame+0xc0>)
 8002292:	781b      	ldrb	r3, [r3, #0]
 8002294:	f083 0301 	eor.w	r3, r3, #1
 8002298:	b2db      	uxtb	r3, r3
 800229a:	2b00      	cmp	r3, #0
 800229c:	d102      	bne.n	80022a4 <Othello_NewGame+0x1c>
 800229e:	687b      	ldr	r3, [r7, #4]
 80022a0:	2b00      	cmp	r3, #0
 80022a2:	d101      	bne.n	80022a8 <Othello_NewGame+0x20>
        return OTHELLO_ERROR;
 80022a4:	2301      	movs	r3, #1
 80022a6:	e04a      	b.n	800233e <Othello_NewGame+0xb6>
    }

    // Clear the board
    memset(state, 0, sizeof(GameState_t));
 80022a8:	229c      	movs	r2, #156	@ 0x9c
 80022aa:	2100      	movs	r1, #0
 80022ac:	6878      	ldr	r0, [r7, #4]
 80022ae:	f004 fd8f 	bl	8006dd0 <memset>

    // Set initial position (standard Othello setup)
    state->board[INITIAL_BLACK_ROW1][INITIAL_BLACK_COL1] = PIECE_BLACK;  // [3][3]
 80022b2:	687b      	ldr	r3, [r7, #4]
 80022b4:	2201      	movs	r2, #1
 80022b6:	76da      	strb	r2, [r3, #27]
    state->board[INITIAL_BLACK_ROW2][INITIAL_BLACK_COL2] = PIECE_BLACK;  // [4][4]
 80022b8:	687b      	ldr	r3, [r7, #4]
 80022ba:	2201      	movs	r2, #1
 80022bc:	f883 2024 	strb.w	r2, [r3, #36]	@ 0x24
    state->board[INITIAL_WHITE_ROW1][INITIAL_WHITE_COL1] = PIECE_WHITE;  // [3][4]
 80022c0:	687b      	ldr	r3, [r7, #4]
 80022c2:	2202      	movs	r2, #2
 80022c4:	771a      	strb	r2, [r3, #28]
    state->board[INITIAL_WHITE_ROW2][INITIAL_WHITE_COL2] = PIECE_WHITE;  // [4][3]
 80022c6:	687b      	ldr	r3, [r7, #4]
 80022c8:	2202      	movs	r2, #2
 80022ca:	f883 2023 	strb.w	r2, [r3, #35]	@ 0x23

    // Initialize game state
    state->current_player = PIECE_BLACK;  // Black starts first
 80022ce:	687b      	ldr	r3, [r7, #4]
 80022d0:	2201      	movs	r2, #1
 80022d2:	f883 2040 	strb.w	r2, [r3, #64]	@ 0x40
    state->black_count = 2;
 80022d6:	687b      	ldr	r3, [r7, #4]
 80022d8:	2202      	movs	r2, #2
 80022da:	f883 2041 	strb.w	r2, [r3, #65]	@ 0x41
    state->white_count = 2;
 80022de:	687b      	ldr	r3, [r7, #4]
 80022e0:	2202      	movs	r2, #2
 80022e2:	f883 2042 	strb.w	r2, [r3, #66]	@ 0x42
    state->status = GAME_STATUS_PLAYING;
 80022e6:	687b      	ldr	r3, [r7, #4]
 80022e8:	2200      	movs	r2, #0
 80022ea:	f883 2043 	strb.w	r2, [r3, #67]	@ 0x43
    state->move_count = 0;
 80022ee:	687b      	ldr	r3, [r7, #4]
 80022f0:	2200      	movs	r2, #0
 80022f2:	645a      	str	r2, [r3, #68]	@ 0x44
    state->consecutive_passes = 0;
 80022f4:	687b      	ldr	r3, [r7, #4]
 80022f6:	2200      	movs	r2, #0
 80022f8:	f883 2050 	strb.w	r2, [r3, #80]	@ 0x50
    state->game_start_time = HAL_GetTick();
 80022fc:	f001 fb76 	bl	80039ec <HAL_GetTick>
 8002300:	4602      	mov	r2, r0
 8002302:	687b      	ldr	r3, [r7, #4]
 8002304:	655a      	str	r2, [r3, #84]	@ 0x54
    state->game_mode = GAME_MODE_NORMAL;  // Default to normal mode
 8002306:	687b      	ldr	r3, [r7, #4]
 8002308:	2201      	movs	r2, #1
 800230a:	f883 2099 	strb.w	r2, [r3, #153]	@ 0x99

    // Initialize last move
    state->last_move.row = 0xFF;  // Invalid position indicates no move yet
 800230e:	687b      	ldr	r3, [r7, #4]
 8002310:	22ff      	movs	r2, #255	@ 0xff
 8002312:	f883 2048 	strb.w	r2, [r3, #72]	@ 0x48
    state->last_move.col = 0xFF;
 8002316:	687b      	ldr	r3, [r7, #4]
 8002318:	22ff      	movs	r2, #255	@ 0xff
 800231a:	f883 2049 	strb.w	r2, [r3, #73]	@ 0x49
    state->last_move.player = PIECE_EMPTY;
 800231e:	687b      	ldr	r3, [r7, #4]
 8002320:	2200      	movs	r2, #0
 8002322:	f883 204a 	strb.w	r2, [r3, #74]	@ 0x4a
    state->last_move.flipped_count = 0;
 8002326:	687b      	ldr	r3, [r7, #4]
 8002328:	2200      	movs	r2, #0
 800232a:	f883 204b 	strb.w	r2, [r3, #75]	@ 0x4b
    state->last_move.timestamp = state->game_start_time;
 800232e:	687b      	ldr	r3, [r7, #4]
 8002330:	6d5a      	ldr	r2, [r3, #84]	@ 0x54
 8002332:	687b      	ldr	r3, [r7, #4]
 8002334:	64da      	str	r2, [r3, #76]	@ 0x4c

    // Invalidate valid moves cache
    Othello_InvalidateValidMovesCache(state);
 8002336:	6878      	ldr	r0, [r7, #4]
 8002338:	f000 fb5f 	bl	80029fa <Othello_InvalidateValidMovesCache>

    return OTHELLO_OK;
 800233c:	2300      	movs	r3, #0
}
 800233e:	4618      	mov	r0, r3
 8002340:	3708      	adds	r7, #8
 8002342:	46bd      	mov	sp, r7
 8002344:	bd80      	pop	{r7, pc}
 8002346:	bf00      	nop
 8002348:	20000410 	.word	0x20000410

0800234c <Othello_IsValidMove>:

/**
 * @brief Check if move is valid
 */
bool Othello_IsValidMove(const GameState_t* state, uint8_t row, uint8_t col, PieceType_t player)
{
 800234c:	b580      	push	{r7, lr}
 800234e:	b082      	sub	sp, #8
 8002350:	af00      	add	r7, sp, #0
 8002352:	6078      	str	r0, [r7, #4]
 8002354:	4608      	mov	r0, r1
 8002356:	4611      	mov	r1, r2
 8002358:	461a      	mov	r2, r3
 800235a:	4603      	mov	r3, r0
 800235c:	70fb      	strb	r3, [r7, #3]
 800235e:	460b      	mov	r3, r1
 8002360:	70bb      	strb	r3, [r7, #2]
 8002362:	4613      	mov	r3, r2
 8002364:	707b      	strb	r3, [r7, #1]
    if (!state || !OTHELLO_IS_VALID_COORD(row, col) ||
 8002366:	687b      	ldr	r3, [r7, #4]
 8002368:	2b00      	cmp	r3, #0
 800236a:	d00b      	beq.n	8002384 <Othello_IsValidMove+0x38>
 800236c:	78fb      	ldrb	r3, [r7, #3]
 800236e:	2b07      	cmp	r3, #7
 8002370:	d808      	bhi.n	8002384 <Othello_IsValidMove+0x38>
 8002372:	78bb      	ldrb	r3, [r7, #2]
 8002374:	2b07      	cmp	r3, #7
 8002376:	d805      	bhi.n	8002384 <Othello_IsValidMove+0x38>
 8002378:	787b      	ldrb	r3, [r7, #1]
 800237a:	2b01      	cmp	r3, #1
 800237c:	d004      	beq.n	8002388 <Othello_IsValidMove+0x3c>
        (player != PIECE_BLACK && player != PIECE_WHITE)) {
 800237e:	787b      	ldrb	r3, [r7, #1]
 8002380:	2b02      	cmp	r3, #2
 8002382:	d001      	beq.n	8002388 <Othello_IsValidMove+0x3c>
        return false;
 8002384:	2300      	movs	r3, #0
 8002386:	e016      	b.n	80023b6 <Othello_IsValidMove+0x6a>
    }

    // Position must be empty
    if (state->board[row][col] != PIECE_EMPTY) {
 8002388:	78fa      	ldrb	r2, [r7, #3]
 800238a:	78bb      	ldrb	r3, [r7, #2]
 800238c:	6879      	ldr	r1, [r7, #4]
 800238e:	00d2      	lsls	r2, r2, #3
 8002390:	440a      	add	r2, r1
 8002392:	4413      	add	r3, r2
 8002394:	781b      	ldrb	r3, [r3, #0]
 8002396:	2b00      	cmp	r3, #0
 8002398:	d001      	beq.n	800239e <Othello_IsValidMove+0x52>
        return false;
 800239a:	2300      	movs	r3, #0
 800239c:	e00b      	b.n	80023b6 <Othello_IsValidMove+0x6a>
    }

    // Must be able to flip at least one piece
    return Othello_SimulateMove(state, row, col, player) > 0;
 800239e:	787b      	ldrb	r3, [r7, #1]
 80023a0:	78ba      	ldrb	r2, [r7, #2]
 80023a2:	78f9      	ldrb	r1, [r7, #3]
 80023a4:	6878      	ldr	r0, [r7, #4]
 80023a6:	f000 f92d 	bl	8002604 <Othello_SimulateMove>
 80023aa:	4603      	mov	r3, r0
 80023ac:	2b00      	cmp	r3, #0
 80023ae:	bf14      	ite	ne
 80023b0:	2301      	movne	r3, #1
 80023b2:	2300      	moveq	r3, #0
 80023b4:	b2db      	uxtb	r3, r3
}
 80023b6:	4618      	mov	r0, r3
 80023b8:	3708      	adds	r7, #8
 80023ba:	46bd      	mov	sp, r7
 80023bc:	bd80      	pop	{r7, pc}
	...

080023c0 <Othello_MakeMove>:

/**
 * @brief Make a move
 */
uint8_t Othello_MakeMove(GameState_t* state, uint8_t row, uint8_t col, PieceType_t player)
{
 80023c0:	b590      	push	{r4, r7, lr}
 80023c2:	b089      	sub	sp, #36	@ 0x24
 80023c4:	af04      	add	r7, sp, #16
 80023c6:	6078      	str	r0, [r7, #4]
 80023c8:	4608      	mov	r0, r1
 80023ca:	4611      	mov	r1, r2
 80023cc:	461a      	mov	r2, r3
 80023ce:	4603      	mov	r3, r0
 80023d0:	70fb      	strb	r3, [r7, #3]
 80023d2:	460b      	mov	r3, r1
 80023d4:	70bb      	strb	r3, [r7, #2]
 80023d6:	4613      	mov	r3, r2
 80023d8:	707b      	strb	r3, [r7, #1]
    if (!state || state->status != GAME_STATUS_PLAYING ||
 80023da:	687b      	ldr	r3, [r7, #4]
 80023dc:	2b00      	cmp	r3, #0
 80023de:	d010      	beq.n	8002402 <Othello_MakeMove+0x42>
 80023e0:	687b      	ldr	r3, [r7, #4]
 80023e2:	f893 3043 	ldrb.w	r3, [r3, #67]	@ 0x43
 80023e6:	2b00      	cmp	r3, #0
 80023e8:	d10b      	bne.n	8002402 <Othello_MakeMove+0x42>
        !Othello_IsValidMove(state, row, col, player)) {
 80023ea:	787b      	ldrb	r3, [r7, #1]
 80023ec:	78ba      	ldrb	r2, [r7, #2]
 80023ee:	78f9      	ldrb	r1, [r7, #3]
 80023f0:	6878      	ldr	r0, [r7, #4]
 80023f2:	f7ff ffab 	bl	800234c <Othello_IsValidMove>
 80023f6:	4603      	mov	r3, r0
 80023f8:	f083 0301 	eor.w	r3, r3, #1
 80023fc:	b2db      	uxtb	r3, r3
    if (!state || state->status != GAME_STATUS_PLAYING ||
 80023fe:	2b00      	cmp	r3, #0
 8002400:	d001      	beq.n	8002406 <Othello_MakeMove+0x46>
        return 0;
 8002402:	2300      	movs	r3, #0
 8002404:	e091      	b.n	800252a <Othello_MakeMove+0x16a>
    }

    uint8_t total_flipped = 0;
 8002406:	2300      	movs	r3, #0
 8002408:	73fb      	strb	r3, [r7, #15]

    // Place the piece
    state->board[row][col] = player;
 800240a:	78fa      	ldrb	r2, [r7, #3]
 800240c:	78bb      	ldrb	r3, [r7, #2]
 800240e:	6879      	ldr	r1, [r7, #4]
 8002410:	00d2      	lsls	r2, r2, #3
 8002412:	440a      	add	r2, r1
 8002414:	4413      	add	r3, r2
 8002416:	787a      	ldrb	r2, [r7, #1]
 8002418:	701a      	strb	r2, [r3, #0]

    // Flip pieces in all directions
    for (int i = 0; i < 8; i++) {
 800241a:	2300      	movs	r3, #0
 800241c:	60bb      	str	r3, [r7, #8]
 800241e:	e01d      	b.n	800245c <Othello_MakeMove+0x9c>
        total_flipped += Othello_FlipPiecesInDirection(state, row, col,
                                                     SEARCH_DIRECTIONS[i].dx,
 8002420:	4a44      	ldr	r2, [pc, #272]	@ (8002534 <Othello_MakeMove+0x174>)
 8002422:	68bb      	ldr	r3, [r7, #8]
 8002424:	f912 4013 	ldrsb.w	r4, [r2, r3, lsl #1]
                                                     SEARCH_DIRECTIONS[i].dy,
 8002428:	4a42      	ldr	r2, [pc, #264]	@ (8002534 <Othello_MakeMove+0x174>)
 800242a:	68bb      	ldr	r3, [r7, #8]
 800242c:	005b      	lsls	r3, r3, #1
 800242e:	4413      	add	r3, r2
 8002430:	f993 3001 	ldrsb.w	r3, [r3, #1]
        total_flipped += Othello_FlipPiecesInDirection(state, row, col,
 8002434:	78b8      	ldrb	r0, [r7, #2]
 8002436:	78f9      	ldrb	r1, [r7, #3]
 8002438:	2201      	movs	r2, #1
 800243a:	9202      	str	r2, [sp, #8]
 800243c:	787a      	ldrb	r2, [r7, #1]
 800243e:	9201      	str	r2, [sp, #4]
 8002440:	9300      	str	r3, [sp, #0]
 8002442:	4623      	mov	r3, r4
 8002444:	4602      	mov	r2, r0
 8002446:	6878      	ldr	r0, [r7, #4]
 8002448:	f000 fa1c 	bl	8002884 <Othello_FlipPiecesInDirection>
 800244c:	4603      	mov	r3, r0
 800244e:	461a      	mov	r2, r3
 8002450:	7bfb      	ldrb	r3, [r7, #15]
 8002452:	4413      	add	r3, r2
 8002454:	73fb      	strb	r3, [r7, #15]
    for (int i = 0; i < 8; i++) {
 8002456:	68bb      	ldr	r3, [r7, #8]
 8002458:	3301      	adds	r3, #1
 800245a:	60bb      	str	r3, [r7, #8]
 800245c:	68bb      	ldr	r3, [r7, #8]
 800245e:	2b07      	cmp	r3, #7
 8002460:	ddde      	ble.n	8002420 <Othello_MakeMove+0x60>
                                                     player, true);
    }

    // Update move history
    state->last_move.row = row;
 8002462:	687b      	ldr	r3, [r7, #4]
 8002464:	78fa      	ldrb	r2, [r7, #3]
 8002466:	f883 2048 	strb.w	r2, [r3, #72]	@ 0x48
    state->last_move.col = col;
 800246a:	687b      	ldr	r3, [r7, #4]
 800246c:	78ba      	ldrb	r2, [r7, #2]
 800246e:	f883 2049 	strb.w	r2, [r3, #73]	@ 0x49
    state->last_move.player = player;
 8002472:	687b      	ldr	r3, [r7, #4]
 8002474:	787a      	ldrb	r2, [r7, #1]
 8002476:	f883 204a 	strb.w	r2, [r3, #74]	@ 0x4a
    state->last_move.flipped_count = total_flipped;
 800247a:	687b      	ldr	r3, [r7, #4]
 800247c:	7bfa      	ldrb	r2, [r7, #15]
 800247e:	f883 204b 	strb.w	r2, [r3, #75]	@ 0x4b
    state->last_move.timestamp = HAL_GetTick();
 8002482:	f001 fab3 	bl	80039ec <HAL_GetTick>
 8002486:	4602      	mov	r2, r0
 8002488:	687b      	ldr	r3, [r7, #4]
 800248a:	64da      	str	r2, [r3, #76]	@ 0x4c

    // Update game state
    state->move_count++;
 800248c:	687b      	ldr	r3, [r7, #4]
 800248e:	6c5b      	ldr	r3, [r3, #68]	@ 0x44
 8002490:	1c5a      	adds	r2, r3, #1
 8002492:	687b      	ldr	r3, [r7, #4]
 8002494:	645a      	str	r2, [r3, #68]	@ 0x44
    state->consecutive_passes = 0;  // Reset pass counter
 8002496:	687b      	ldr	r3, [r7, #4]
 8002498:	2200      	movs	r2, #0
 800249a:	f883 2050 	strb.w	r2, [r3, #80]	@ 0x50
    Othello_UpdatePieceCounts(state);
 800249e:	6878      	ldr	r0, [r7, #4]
 80024a0:	f000 fa8d 	bl	80029be <Othello_UpdatePieceCounts>
    Othello_InvalidateValidMovesCache(state);
 80024a4:	6878      	ldr	r0, [r7, #4]
 80024a6:	f000 faa8 	bl	80029fa <Othello_InvalidateValidMovesCache>

    // Check game mode for player switching logic
    if (state->game_mode == GAME_MODE_CHEAT) {
 80024aa:	687b      	ldr	r3, [r7, #4]
 80024ac:	f893 3099 	ldrb.w	r3, [r3, #153]	@ 0x99
 80024b0:	2b04      	cmp	r3, #4
 80024b2:	d039      	beq.n	8002528 <Othello_MakeMove+0x168>
        // Cheat mode: Do NOT switch player, keep current_player unchanged
        // No need to check for valid moves or game over
        // Player can continue placing same color pieces
    } else {
        // Normal mode: Switch to next player
        state->current_player = OTHELLO_OPPOSITE_PLAYER(player);
 80024b4:	787b      	ldrb	r3, [r7, #1]
 80024b6:	2b01      	cmp	r3, #1
 80024b8:	d101      	bne.n	80024be <Othello_MakeMove+0xfe>
 80024ba:	2202      	movs	r2, #2
 80024bc:	e000      	b.n	80024c0 <Othello_MakeMove+0x100>
 80024be:	2201      	movs	r2, #1
 80024c0:	687b      	ldr	r3, [r7, #4]
 80024c2:	f883 2040 	strb.w	r2, [r3, #64]	@ 0x40

        // Check if next player has any valid moves
        if (!Othello_HasValidMoves(state, state->current_player)) {
 80024c6:	687b      	ldr	r3, [r7, #4]
 80024c8:	f893 3040 	ldrb.w	r3, [r3, #64]	@ 0x40
 80024cc:	4619      	mov	r1, r3
 80024ce:	6878      	ldr	r0, [r7, #4]
 80024d0:	f000 f86b 	bl	80025aa <Othello_HasValidMoves>
 80024d4:	4603      	mov	r3, r0
 80024d6:	f083 0301 	eor.w	r3, r3, #1
 80024da:	b2db      	uxtb	r3, r3
 80024dc:	2b00      	cmp	r3, #0
 80024de:	d016      	beq.n	800250e <Othello_MakeMove+0x14e>
            if (!Othello_HasValidMoves(state, player)) {
 80024e0:	787b      	ldrb	r3, [r7, #1]
 80024e2:	4619      	mov	r1, r3
 80024e4:	6878      	ldr	r0, [r7, #4]
 80024e6:	f000 f860 	bl	80025aa <Othello_HasValidMoves>
 80024ea:	4603      	mov	r3, r0
 80024ec:	f083 0301 	eor.w	r3, r3, #1
 80024f0:	b2db      	uxtb	r3, r3
 80024f2:	2b00      	cmp	r3, #0
 80024f4:	d003      	beq.n	80024fe <Othello_MakeMove+0x13e>
                // Neither player can move - game over
                Othello_UpdateGameStatus(state);
 80024f6:	6878      	ldr	r0, [r7, #4]
 80024f8:	f000 fa95 	bl	8002a26 <Othello_UpdateGameStatus>
 80024fc:	e007      	b.n	800250e <Othello_MakeMove+0x14e>
            } else {
                // Next player passes, switch back
                state->current_player = player;
 80024fe:	687b      	ldr	r3, [r7, #4]
 8002500:	787a      	ldrb	r2, [r7, #1]
 8002502:	f883 2040 	strb.w	r2, [r3, #64]	@ 0x40
                state->consecutive_passes = 1;
 8002506:	687b      	ldr	r3, [r7, #4]
 8002508:	2201      	movs	r2, #1
 800250a:	f883 2050 	strb.w	r2, [r3, #80]	@ 0x50
            }
        }

        // Update game status if board is full
        if (state->black_count + state->white_count == 64) {
 800250e:	687b      	ldr	r3, [r7, #4]
 8002510:	f893 3041 	ldrb.w	r3, [r3, #65]	@ 0x41
 8002514:	461a      	mov	r2, r3
 8002516:	687b      	ldr	r3, [r7, #4]
 8002518:	f893 3042 	ldrb.w	r3, [r3, #66]	@ 0x42
 800251c:	4413      	add	r3, r2
 800251e:	2b40      	cmp	r3, #64	@ 0x40
 8002520:	d102      	bne.n	8002528 <Othello_MakeMove+0x168>
            Othello_UpdateGameStatus(state);
 8002522:	6878      	ldr	r0, [r7, #4]
 8002524:	f000 fa7f 	bl	8002a26 <Othello_UpdateGameStatus>
        }
    }

    return total_flipped;
 8002528:	7bfb      	ldrb	r3, [r7, #15]
}
 800252a:	4618      	mov	r0, r3
 800252c:	3714      	adds	r7, #20
 800252e:	46bd      	mov	sp, r7
 8002530:	bd90      	pop	{r4, r7, pc}
 8002532:	bf00      	nop
 8002534:	080079c4 	.word	0x080079c4

08002538 <Othello_IsGameOver>:

/**
 * @brief Check if game is over
 */
bool Othello_IsGameOver(const GameState_t* state)
{
 8002538:	b480      	push	{r7}
 800253a:	b083      	sub	sp, #12
 800253c:	af00      	add	r7, sp, #0
 800253e:	6078      	str	r0, [r7, #4]
    return state ? (state->status != GAME_STATUS_PLAYING) : true;
 8002540:	687b      	ldr	r3, [r7, #4]
 8002542:	2b00      	cmp	r3, #0
 8002544:	d004      	beq.n	8002550 <Othello_IsGameOver+0x18>
 8002546:	687b      	ldr	r3, [r7, #4]
 8002548:	f893 3043 	ldrb.w	r3, [r3, #67]	@ 0x43
 800254c:	2b00      	cmp	r3, #0
 800254e:	d001      	beq.n	8002554 <Othello_IsGameOver+0x1c>
 8002550:	2301      	movs	r3, #1
 8002552:	e000      	b.n	8002556 <Othello_IsGameOver+0x1e>
 8002554:	2300      	movs	r3, #0
 8002556:	f003 0301 	and.w	r3, r3, #1
 800255a:	b2db      	uxtb	r3, r3
}
 800255c:	4618      	mov	r0, r3
 800255e:	370c      	adds	r7, #12
 8002560:	46bd      	mov	sp, r7
 8002562:	bc80      	pop	{r7}
 8002564:	4770      	bx	lr

08002566 <Othello_GetWinner>:

/**
 * @brief Get winner
 */
PieceType_t Othello_GetWinner(const GameState_t* state)
{
 8002566:	b480      	push	{r7}
 8002568:	b083      	sub	sp, #12
 800256a:	af00      	add	r7, sp, #0
 800256c:	6078      	str	r0, [r7, #4]
    if (!state || state->status == GAME_STATUS_PLAYING) {
 800256e:	687b      	ldr	r3, [r7, #4]
 8002570:	2b00      	cmp	r3, #0
 8002572:	d004      	beq.n	800257e <Othello_GetWinner+0x18>
 8002574:	687b      	ldr	r3, [r7, #4]
 8002576:	f893 3043 	ldrb.w	r3, [r3, #67]	@ 0x43
 800257a:	2b00      	cmp	r3, #0
 800257c:	d101      	bne.n	8002582 <Othello_GetWinner+0x1c>
        return PIECE_EMPTY;
 800257e:	2300      	movs	r3, #0
 8002580:	e00e      	b.n	80025a0 <Othello_GetWinner+0x3a>
    }

    if (state->status == GAME_STATUS_BLACK_WIN) {
 8002582:	687b      	ldr	r3, [r7, #4]
 8002584:	f893 3043 	ldrb.w	r3, [r3, #67]	@ 0x43
 8002588:	2b01      	cmp	r3, #1
 800258a:	d101      	bne.n	8002590 <Othello_GetWinner+0x2a>
        return PIECE_BLACK;
 800258c:	2301      	movs	r3, #1
 800258e:	e007      	b.n	80025a0 <Othello_GetWinner+0x3a>
    } else if (state->status == GAME_STATUS_WHITE_WIN) {
 8002590:	687b      	ldr	r3, [r7, #4]
 8002592:	f893 3043 	ldrb.w	r3, [r3, #67]	@ 0x43
 8002596:	2b02      	cmp	r3, #2
 8002598:	d101      	bne.n	800259e <Othello_GetWinner+0x38>
        return PIECE_WHITE;
 800259a:	2302      	movs	r3, #2
 800259c:	e000      	b.n	80025a0 <Othello_GetWinner+0x3a>
    }

    return PIECE_EMPTY;  // Draw
 800259e:	2300      	movs	r3, #0
}
 80025a0:	4618      	mov	r0, r3
 80025a2:	370c      	adds	r7, #12
 80025a4:	46bd      	mov	sp, r7
 80025a6:	bc80      	pop	{r7}
 80025a8:	4770      	bx	lr

080025aa <Othello_HasValidMoves>:

/**
 * @brief Check if player has any valid moves
 */
bool Othello_HasValidMoves(const GameState_t* state, PieceType_t player)
{
 80025aa:	b580      	push	{r7, lr}
 80025ac:	b084      	sub	sp, #16
 80025ae:	af00      	add	r7, sp, #0
 80025b0:	6078      	str	r0, [r7, #4]
 80025b2:	460b      	mov	r3, r1
 80025b4:	70fb      	strb	r3, [r7, #3]
    if (!state) {
 80025b6:	687b      	ldr	r3, [r7, #4]
 80025b8:	2b00      	cmp	r3, #0
 80025ba:	d101      	bne.n	80025c0 <Othello_HasValidMoves+0x16>
        return false;
 80025bc:	2300      	movs	r3, #0
 80025be:	e01d      	b.n	80025fc <Othello_HasValidMoves+0x52>
    }

    for (uint8_t row = 0; row < 8; row++) {
 80025c0:	2300      	movs	r3, #0
 80025c2:	73fb      	strb	r3, [r7, #15]
 80025c4:	e016      	b.n	80025f4 <Othello_HasValidMoves+0x4a>
        for (uint8_t col = 0; col < 8; col++) {
 80025c6:	2300      	movs	r3, #0
 80025c8:	73bb      	strb	r3, [r7, #14]
 80025ca:	e00d      	b.n	80025e8 <Othello_HasValidMoves+0x3e>
            if (Othello_IsValidMove(state, row, col, player)) {
 80025cc:	78fb      	ldrb	r3, [r7, #3]
 80025ce:	7bba      	ldrb	r2, [r7, #14]
 80025d0:	7bf9      	ldrb	r1, [r7, #15]
 80025d2:	6878      	ldr	r0, [r7, #4]
 80025d4:	f7ff feba 	bl	800234c <Othello_IsValidMove>
 80025d8:	4603      	mov	r3, r0
 80025da:	2b00      	cmp	r3, #0
 80025dc:	d001      	beq.n	80025e2 <Othello_HasValidMoves+0x38>
                return true;
 80025de:	2301      	movs	r3, #1
 80025e0:	e00c      	b.n	80025fc <Othello_HasValidMoves+0x52>
        for (uint8_t col = 0; col < 8; col++) {
 80025e2:	7bbb      	ldrb	r3, [r7, #14]
 80025e4:	3301      	adds	r3, #1
 80025e6:	73bb      	strb	r3, [r7, #14]
 80025e8:	7bbb      	ldrb	r3, [r7, #14]
 80025ea:	2b07      	cmp	r3, #7
 80025ec:	d9ee      	bls.n	80025cc <Othello_HasValidMoves+0x22>
    for (uint8_t row = 0; row < 8; row++) {
 80025ee:	7bfb      	ldrb	r3, [r7, #15]
 80025f0:	3301      	adds	r3, #1
 80025f2:	73fb      	strb	r3, [r7, #15]
 80025f4:	7bfb      	ldrb	r3, [r7, #15]
 80025f6:	2b07      	cmp	r3, #7
 80025f8:	d9e5      	bls.n	80025c6 <Othello_HasValidMoves+0x1c>
            }
        }
    }

    return false;
 80025fa:	2300      	movs	r3, #0
}
 80025fc:	4618      	mov	r0, r3
 80025fe:	3710      	adds	r7, #16
 8002600:	46bd      	mov	sp, r7
 8002602:	bd80      	pop	{r7, pc}

08002604 <Othello_SimulateMove>:

/**
 * @brief Simulate move without modifying state
 */
uint8_t Othello_SimulateMove(const GameState_t* state, uint8_t row, uint8_t col, PieceType_t player)
{
 8002604:	b590      	push	{r4, r7, lr}
 8002606:	b089      	sub	sp, #36	@ 0x24
 8002608:	af04      	add	r7, sp, #16
 800260a:	6078      	str	r0, [r7, #4]
 800260c:	4608      	mov	r0, r1
 800260e:	4611      	mov	r1, r2
 8002610:	461a      	mov	r2, r3
 8002612:	4603      	mov	r3, r0
 8002614:	70fb      	strb	r3, [r7, #3]
 8002616:	460b      	mov	r3, r1
 8002618:	70bb      	strb	r3, [r7, #2]
 800261a:	4613      	mov	r3, r2
 800261c:	707b      	strb	r3, [r7, #1]
    if (!state || !OTHELLO_IS_VALID_COORD(row, col) ||
 800261e:	687b      	ldr	r3, [r7, #4]
 8002620:	2b00      	cmp	r3, #0
 8002622:	d014      	beq.n	800264e <Othello_SimulateMove+0x4a>
 8002624:	78fb      	ldrb	r3, [r7, #3]
 8002626:	2b07      	cmp	r3, #7
 8002628:	d811      	bhi.n	800264e <Othello_SimulateMove+0x4a>
 800262a:	78bb      	ldrb	r3, [r7, #2]
 800262c:	2b07      	cmp	r3, #7
 800262e:	d80e      	bhi.n	800264e <Othello_SimulateMove+0x4a>
        state->board[row][col] != PIECE_EMPTY ||
 8002630:	78fa      	ldrb	r2, [r7, #3]
 8002632:	78bb      	ldrb	r3, [r7, #2]
 8002634:	6879      	ldr	r1, [r7, #4]
 8002636:	00d2      	lsls	r2, r2, #3
 8002638:	440a      	add	r2, r1
 800263a:	4413      	add	r3, r2
 800263c:	781b      	ldrb	r3, [r3, #0]
    if (!state || !OTHELLO_IS_VALID_COORD(row, col) ||
 800263e:	2b00      	cmp	r3, #0
 8002640:	d105      	bne.n	800264e <Othello_SimulateMove+0x4a>
        state->board[row][col] != PIECE_EMPTY ||
 8002642:	787b      	ldrb	r3, [r7, #1]
 8002644:	2b01      	cmp	r3, #1
 8002646:	d004      	beq.n	8002652 <Othello_SimulateMove+0x4e>
        (player != PIECE_BLACK && player != PIECE_WHITE)) {
 8002648:	787b      	ldrb	r3, [r7, #1]
 800264a:	2b02      	cmp	r3, #2
 800264c:	d001      	beq.n	8002652 <Othello_SimulateMove+0x4e>
        return 0;
 800264e:	2300      	movs	r3, #0
 8002650:	e026      	b.n	80026a0 <Othello_SimulateMove+0x9c>
    }

    uint8_t total_flipped = 0;
 8002652:	2300      	movs	r3, #0
 8002654:	73fb      	strb	r3, [r7, #15]

    // Check all 8 directions
    for (int i = 0; i < 8; i++) {
 8002656:	2300      	movs	r3, #0
 8002658:	60bb      	str	r3, [r7, #8]
 800265a:	e01d      	b.n	8002698 <Othello_SimulateMove+0x94>
        total_flipped += Othello_FlipPiecesInDirection((GameState_t*)state, row, col,
                                                     SEARCH_DIRECTIONS[i].dx,
 800265c:	4a12      	ldr	r2, [pc, #72]	@ (80026a8 <Othello_SimulateMove+0xa4>)
 800265e:	68bb      	ldr	r3, [r7, #8]
 8002660:	f912 4013 	ldrsb.w	r4, [r2, r3, lsl #1]
                                                     SEARCH_DIRECTIONS[i].dy,
 8002664:	4a10      	ldr	r2, [pc, #64]	@ (80026a8 <Othello_SimulateMove+0xa4>)
 8002666:	68bb      	ldr	r3, [r7, #8]
 8002668:	005b      	lsls	r3, r3, #1
 800266a:	4413      	add	r3, r2
 800266c:	f993 3001 	ldrsb.w	r3, [r3, #1]
        total_flipped += Othello_FlipPiecesInDirection((GameState_t*)state, row, col,
 8002670:	78b8      	ldrb	r0, [r7, #2]
 8002672:	78f9      	ldrb	r1, [r7, #3]
 8002674:	2200      	movs	r2, #0
 8002676:	9202      	str	r2, [sp, #8]
 8002678:	787a      	ldrb	r2, [r7, #1]
 800267a:	9201      	str	r2, [sp, #4]
 800267c:	9300      	str	r3, [sp, #0]
 800267e:	4623      	mov	r3, r4
 8002680:	4602      	mov	r2, r0
 8002682:	6878      	ldr	r0, [r7, #4]
 8002684:	f000 f8fe 	bl	8002884 <Othello_FlipPiecesInDirection>
 8002688:	4603      	mov	r3, r0
 800268a:	461a      	mov	r2, r3
 800268c:	7bfb      	ldrb	r3, [r7, #15]
 800268e:	4413      	add	r3, r2
 8002690:	73fb      	strb	r3, [r7, #15]
    for (int i = 0; i < 8; i++) {
 8002692:	68bb      	ldr	r3, [r7, #8]
 8002694:	3301      	adds	r3, #1
 8002696:	60bb      	str	r3, [r7, #8]
 8002698:	68bb      	ldr	r3, [r7, #8]
 800269a:	2b07      	cmp	r3, #7
 800269c:	ddde      	ble.n	800265c <Othello_SimulateMove+0x58>
                                                     player, false);
    }

    return total_flipped;
 800269e:	7bfb      	ldrb	r3, [r7, #15]
}
 80026a0:	4618      	mov	r0, r3
 80026a2:	3714      	adds	r7, #20
 80026a4:	46bd      	mov	sp, r7
 80026a6:	bd90      	pop	{r4, r7, pc}
 80026a8:	080079c4 	.word	0x080079c4

080026ac <Othello_CountPieces>:

/**
 * @brief Count pieces on board
 */
uint8_t Othello_CountPieces(const GameState_t* state, PieceType_t player)
{
 80026ac:	b480      	push	{r7}
 80026ae:	b085      	sub	sp, #20
 80026b0:	af00      	add	r7, sp, #0
 80026b2:	6078      	str	r0, [r7, #4]
 80026b4:	460b      	mov	r3, r1
 80026b6:	70fb      	strb	r3, [r7, #3]
    if (!state) {
 80026b8:	687b      	ldr	r3, [r7, #4]
 80026ba:	2b00      	cmp	r3, #0
 80026bc:	d101      	bne.n	80026c2 <Othello_CountPieces+0x16>
        return 0;
 80026be:	2300      	movs	r3, #0
 80026c0:	e021      	b.n	8002706 <Othello_CountPieces+0x5a>
    }

    uint8_t count = 0;
 80026c2:	2300      	movs	r3, #0
 80026c4:	73fb      	strb	r3, [r7, #15]

    for (uint8_t row = 0; row < 8; row++) {
 80026c6:	2300      	movs	r3, #0
 80026c8:	73bb      	strb	r3, [r7, #14]
 80026ca:	e018      	b.n	80026fe <Othello_CountPieces+0x52>
        for (uint8_t col = 0; col < 8; col++) {
 80026cc:	2300      	movs	r3, #0
 80026ce:	737b      	strb	r3, [r7, #13]
 80026d0:	e00f      	b.n	80026f2 <Othello_CountPieces+0x46>
            if (state->board[row][col] == player) {
 80026d2:	7bba      	ldrb	r2, [r7, #14]
 80026d4:	7b7b      	ldrb	r3, [r7, #13]
 80026d6:	6879      	ldr	r1, [r7, #4]
 80026d8:	00d2      	lsls	r2, r2, #3
 80026da:	440a      	add	r2, r1
 80026dc:	4413      	add	r3, r2
 80026de:	781b      	ldrb	r3, [r3, #0]
 80026e0:	78fa      	ldrb	r2, [r7, #3]
 80026e2:	429a      	cmp	r2, r3
 80026e4:	d102      	bne.n	80026ec <Othello_CountPieces+0x40>
                count++;
 80026e6:	7bfb      	ldrb	r3, [r7, #15]
 80026e8:	3301      	adds	r3, #1
 80026ea:	73fb      	strb	r3, [r7, #15]
        for (uint8_t col = 0; col < 8; col++) {
 80026ec:	7b7b      	ldrb	r3, [r7, #13]
 80026ee:	3301      	adds	r3, #1
 80026f0:	737b      	strb	r3, [r7, #13]
 80026f2:	7b7b      	ldrb	r3, [r7, #13]
 80026f4:	2b07      	cmp	r3, #7
 80026f6:	d9ec      	bls.n	80026d2 <Othello_CountPieces+0x26>
    for (uint8_t row = 0; row < 8; row++) {
 80026f8:	7bbb      	ldrb	r3, [r7, #14]
 80026fa:	3301      	adds	r3, #1
 80026fc:	73bb      	strb	r3, [r7, #14]
 80026fe:	7bbb      	ldrb	r3, [r7, #14]
 8002700:	2b07      	cmp	r3, #7
 8002702:	d9e3      	bls.n	80026cc <Othello_CountPieces+0x20>
            }
        }
    }

    return count;
 8002704:	7bfb      	ldrb	r3, [r7, #15]
}
 8002706:	4618      	mov	r0, r3
 8002708:	3714      	adds	r7, #20
 800270a:	46bd      	mov	sp, r7
 800270c:	bc80      	pop	{r7}
 800270e:	4770      	bx	lr

08002710 <Othello_GetPiece>:

/**
 * @brief Get board piece at position
 */
PieceType_t Othello_GetPiece(const GameState_t* state, uint8_t row, uint8_t col)
{
 8002710:	b480      	push	{r7}
 8002712:	b083      	sub	sp, #12
 8002714:	af00      	add	r7, sp, #0
 8002716:	6078      	str	r0, [r7, #4]
 8002718:	460b      	mov	r3, r1
 800271a:	70fb      	strb	r3, [r7, #3]
 800271c:	4613      	mov	r3, r2
 800271e:	70bb      	strb	r3, [r7, #2]
    if (!state || !OTHELLO_IS_VALID_COORD(row, col)) {
 8002720:	687b      	ldr	r3, [r7, #4]
 8002722:	2b00      	cmp	r3, #0
 8002724:	d005      	beq.n	8002732 <Othello_GetPiece+0x22>
 8002726:	78fb      	ldrb	r3, [r7, #3]
 8002728:	2b07      	cmp	r3, #7
 800272a:	d802      	bhi.n	8002732 <Othello_GetPiece+0x22>
 800272c:	78bb      	ldrb	r3, [r7, #2]
 800272e:	2b07      	cmp	r3, #7
 8002730:	d901      	bls.n	8002736 <Othello_GetPiece+0x26>
        return PIECE_EMPTY;
 8002732:	2300      	movs	r3, #0
 8002734:	e006      	b.n	8002744 <Othello_GetPiece+0x34>
    }

    return state->board[row][col];
 8002736:	78fa      	ldrb	r2, [r7, #3]
 8002738:	78bb      	ldrb	r3, [r7, #2]
 800273a:	6879      	ldr	r1, [r7, #4]
 800273c:	00d2      	lsls	r2, r2, #3
 800273e:	440a      	add	r2, r1
 8002740:	4413      	add	r3, r2
 8002742:	781b      	ldrb	r3, [r3, #0]
}
 8002744:	4618      	mov	r0, r3
 8002746:	370c      	adds	r7, #12
 8002748:	46bd      	mov	sp, r7
 800274a:	bc80      	pop	{r7}
 800274c:	4770      	bx	lr

0800274e <Othello_ResetState>:

/**
 * @brief Reset game state
 */
Othello_Status_t Othello_ResetState(GameState_t* state)
{
 800274e:	b580      	push	{r7, lr}
 8002750:	b084      	sub	sp, #16
 8002752:	af00      	add	r7, sp, #0
 8002754:	6078      	str	r0, [r7, #4]
    if (!state) {
 8002756:	687b      	ldr	r3, [r7, #4]
 8002758:	2b00      	cmp	r3, #0
 800275a:	d101      	bne.n	8002760 <Othello_ResetState+0x12>
        return OTHELLO_ERROR;
 800275c:	2301      	movs	r3, #1
 800275e:	e00b      	b.n	8002778 <Othello_ResetState+0x2a>
    }

    Game_Mode_t saved_mode = state->game_mode;  // Save current mode
 8002760:	687b      	ldr	r3, [r7, #4]
 8002762:	f893 3099 	ldrb.w	r3, [r3, #153]	@ 0x99
 8002766:	73fb      	strb	r3, [r7, #15]
    Othello_NewGame(state);
 8002768:	6878      	ldr	r0, [r7, #4]
 800276a:	f7ff fd8d 	bl	8002288 <Othello_NewGame>
    state->game_mode = saved_mode;              // Restore mode
 800276e:	687b      	ldr	r3, [r7, #4]
 8002770:	7bfa      	ldrb	r2, [r7, #15]
 8002772:	f883 2099 	strb.w	r2, [r3, #153]	@ 0x99

    return OTHELLO_OK;
 8002776:	2300      	movs	r3, #0
}
 8002778:	4618      	mov	r0, r3
 800277a:	3710      	adds	r7, #16
 800277c:	46bd      	mov	sp, r7
 800277e:	bd80      	pop	{r7, pc}

08002780 <Othello_UpdateStats>:

/**
 * @brief Update game statistics
 */
Othello_Status_t Othello_UpdateStats(GameStats_t* stats, const GameState_t* final_state)
{
 8002780:	b580      	push	{r7, lr}
 8002782:	b084      	sub	sp, #16
 8002784:	af00      	add	r7, sp, #0
 8002786:	6078      	str	r0, [r7, #4]
 8002788:	6039      	str	r1, [r7, #0]
    if (!stats || !final_state) {
 800278a:	687b      	ldr	r3, [r7, #4]
 800278c:	2b00      	cmp	r3, #0
 800278e:	d002      	beq.n	8002796 <Othello_UpdateStats+0x16>
 8002790:	683b      	ldr	r3, [r7, #0]
 8002792:	2b00      	cmp	r3, #0
 8002794:	d101      	bne.n	800279a <Othello_UpdateStats+0x1a>
        return OTHELLO_ERROR;
 8002796:	2301      	movs	r3, #1
 8002798:	e056      	b.n	8002848 <Othello_UpdateStats+0xc8>
    }

    stats->total_games++;
 800279a:	687b      	ldr	r3, [r7, #4]
 800279c:	681b      	ldr	r3, [r3, #0]
 800279e:	1c5a      	adds	r2, r3, #1
 80027a0:	687b      	ldr	r3, [r7, #4]
 80027a2:	601a      	str	r2, [r3, #0]
    stats->total_moves += final_state->move_count;
 80027a4:	687b      	ldr	r3, [r7, #4]
 80027a6:	691a      	ldr	r2, [r3, #16]
 80027a8:	683b      	ldr	r3, [r7, #0]
 80027aa:	6c5b      	ldr	r3, [r3, #68]	@ 0x44
 80027ac:	441a      	add	r2, r3
 80027ae:	687b      	ldr	r3, [r7, #4]
 80027b0:	611a      	str	r2, [r3, #16]

    // Update win counts
    switch (final_state->status) {
 80027b2:	683b      	ldr	r3, [r7, #0]
 80027b4:	f893 3043 	ldrb.w	r3, [r3, #67]	@ 0x43
 80027b8:	2b03      	cmp	r3, #3
 80027ba:	d012      	beq.n	80027e2 <Othello_UpdateStats+0x62>
 80027bc:	2b03      	cmp	r3, #3
 80027be:	dc16      	bgt.n	80027ee <Othello_UpdateStats+0x6e>
 80027c0:	2b01      	cmp	r3, #1
 80027c2:	d002      	beq.n	80027ca <Othello_UpdateStats+0x4a>
 80027c4:	2b02      	cmp	r3, #2
 80027c6:	d006      	beq.n	80027d6 <Othello_UpdateStats+0x56>
            break;
        case GAME_STATUS_DRAW:
            stats->draws++;
            break;
        default:
            break;
 80027c8:	e011      	b.n	80027ee <Othello_UpdateStats+0x6e>
            stats->black_wins++;
 80027ca:	687b      	ldr	r3, [r7, #4]
 80027cc:	685b      	ldr	r3, [r3, #4]
 80027ce:	1c5a      	adds	r2, r3, #1
 80027d0:	687b      	ldr	r3, [r7, #4]
 80027d2:	605a      	str	r2, [r3, #4]
            break;
 80027d4:	e00c      	b.n	80027f0 <Othello_UpdateStats+0x70>
            stats->white_wins++;
 80027d6:	687b      	ldr	r3, [r7, #4]
 80027d8:	689b      	ldr	r3, [r3, #8]
 80027da:	1c5a      	adds	r2, r3, #1
 80027dc:	687b      	ldr	r3, [r7, #4]
 80027de:	609a      	str	r2, [r3, #8]
            break;
 80027e0:	e006      	b.n	80027f0 <Othello_UpdateStats+0x70>
            stats->draws++;
 80027e2:	687b      	ldr	r3, [r7, #4]
 80027e4:	68db      	ldr	r3, [r3, #12]
 80027e6:	1c5a      	adds	r2, r3, #1
 80027e8:	687b      	ldr	r3, [r7, #4]
 80027ea:	60da      	str	r2, [r3, #12]
            break;
 80027ec:	e000      	b.n	80027f0 <Othello_UpdateStats+0x70>
            break;
 80027ee:	bf00      	nop
    }

    // Update game length records
    if (stats->total_games == 1) {
 80027f0:	687b      	ldr	r3, [r7, #4]
 80027f2:	681b      	ldr	r3, [r3, #0]
 80027f4:	2b01      	cmp	r3, #1
 80027f6:	d108      	bne.n	800280a <Othello_UpdateStats+0x8a>
        stats->longest_game = final_state->move_count;
 80027f8:	683b      	ldr	r3, [r7, #0]
 80027fa:	6c5a      	ldr	r2, [r3, #68]	@ 0x44
 80027fc:	687b      	ldr	r3, [r7, #4]
 80027fe:	615a      	str	r2, [r3, #20]
        stats->shortest_game = final_state->move_count;
 8002800:	683b      	ldr	r3, [r7, #0]
 8002802:	6c5a      	ldr	r2, [r3, #68]	@ 0x44
 8002804:	687b      	ldr	r3, [r7, #4]
 8002806:	619a      	str	r2, [r3, #24]
 8002808:	e013      	b.n	8002832 <Othello_UpdateStats+0xb2>
    } else {
        if (final_state->move_count > stats->longest_game) {
 800280a:	683b      	ldr	r3, [r7, #0]
 800280c:	6c5a      	ldr	r2, [r3, #68]	@ 0x44
 800280e:	687b      	ldr	r3, [r7, #4]
 8002810:	695b      	ldr	r3, [r3, #20]
 8002812:	429a      	cmp	r2, r3
 8002814:	d903      	bls.n	800281e <Othello_UpdateStats+0x9e>
            stats->longest_game = final_state->move_count;
 8002816:	683b      	ldr	r3, [r7, #0]
 8002818:	6c5a      	ldr	r2, [r3, #68]	@ 0x44
 800281a:	687b      	ldr	r3, [r7, #4]
 800281c:	615a      	str	r2, [r3, #20]
        }
        if (final_state->move_count < stats->shortest_game) {
 800281e:	683b      	ldr	r3, [r7, #0]
 8002820:	6c5a      	ldr	r2, [r3, #68]	@ 0x44
 8002822:	687b      	ldr	r3, [r7, #4]
 8002824:	699b      	ldr	r3, [r3, #24]
 8002826:	429a      	cmp	r2, r3
 8002828:	d203      	bcs.n	8002832 <Othello_UpdateStats+0xb2>
            stats->shortest_game = final_state->move_count;
 800282a:	683b      	ldr	r3, [r7, #0]
 800282c:	6c5a      	ldr	r2, [r3, #68]	@ 0x44
 800282e:	687b      	ldr	r3, [r7, #4]
 8002830:	619a      	str	r2, [r3, #24]
        }
    }

    // Update total game time
    uint32_t game_duration = Othello_GetGameDuration(final_state);
 8002832:	6838      	ldr	r0, [r7, #0]
 8002834:	f000 f80c 	bl	8002850 <Othello_GetGameDuration>
 8002838:	60f8      	str	r0, [r7, #12]
    stats->total_game_time += game_duration;
 800283a:	687b      	ldr	r3, [r7, #4]
 800283c:	69da      	ldr	r2, [r3, #28]
 800283e:	68fb      	ldr	r3, [r7, #12]
 8002840:	441a      	add	r2, r3
 8002842:	687b      	ldr	r3, [r7, #4]
 8002844:	61da      	str	r2, [r3, #28]

    return OTHELLO_OK;
 8002846:	2300      	movs	r3, #0
}
 8002848:	4618      	mov	r0, r3
 800284a:	3710      	adds	r7, #16
 800284c:	46bd      	mov	sp, r7
 800284e:	bd80      	pop	{r7, pc}

08002850 <Othello_GetGameDuration>:

/**
 * @brief Get game duration in seconds
 */
uint32_t Othello_GetGameDuration(const GameState_t* state)
{
 8002850:	b580      	push	{r7, lr}
 8002852:	b084      	sub	sp, #16
 8002854:	af00      	add	r7, sp, #0
 8002856:	6078      	str	r0, [r7, #4]
    if (!state) {
 8002858:	687b      	ldr	r3, [r7, #4]
 800285a:	2b00      	cmp	r3, #0
 800285c:	d101      	bne.n	8002862 <Othello_GetGameDuration+0x12>
        return 0;
 800285e:	2300      	movs	r3, #0
 8002860:	e00a      	b.n	8002878 <Othello_GetGameDuration+0x28>
    }

    uint32_t current_time = HAL_GetTick();
 8002862:	f001 f8c3 	bl	80039ec <HAL_GetTick>
 8002866:	60f8      	str	r0, [r7, #12]
    return (current_time - state->game_start_time) / 1000;  // Convert to seconds
 8002868:	687b      	ldr	r3, [r7, #4]
 800286a:	6d5b      	ldr	r3, [r3, #84]	@ 0x54
 800286c:	68fa      	ldr	r2, [r7, #12]
 800286e:	1ad3      	subs	r3, r2, r3
 8002870:	4a03      	ldr	r2, [pc, #12]	@ (8002880 <Othello_GetGameDuration+0x30>)
 8002872:	fba2 2303 	umull	r2, r3, r2, r3
 8002876:	099b      	lsrs	r3, r3, #6
}
 8002878:	4618      	mov	r0, r3
 800287a:	3710      	adds	r7, #16
 800287c:	46bd      	mov	sp, r7
 800287e:	bd80      	pop	{r7, pc}
 8002880:	10624dd3 	.word	0x10624dd3

08002884 <Othello_FlipPiecesInDirection>:
/**
 * @brief Flip pieces in one direction
 */
static uint8_t Othello_FlipPiecesInDirection(GameState_t* state, uint8_t row, uint8_t col,
                                           int8_t dx, int8_t dy, PieceType_t player, bool execute)
{
 8002884:	b480      	push	{r7}
 8002886:	b085      	sub	sp, #20
 8002888:	af00      	add	r7, sp, #0
 800288a:	6078      	str	r0, [r7, #4]
 800288c:	4608      	mov	r0, r1
 800288e:	4611      	mov	r1, r2
 8002890:	461a      	mov	r2, r3
 8002892:	4603      	mov	r3, r0
 8002894:	70fb      	strb	r3, [r7, #3]
 8002896:	460b      	mov	r3, r1
 8002898:	70bb      	strb	r3, [r7, #2]
 800289a:	4613      	mov	r3, r2
 800289c:	707b      	strb	r3, [r7, #1]
    PieceType_t opponent = OTHELLO_OPPOSITE_PLAYER(player);
 800289e:	7f3b      	ldrb	r3, [r7, #28]
 80028a0:	2b01      	cmp	r3, #1
 80028a2:	d101      	bne.n	80028a8 <Othello_FlipPiecesInDirection+0x24>
 80028a4:	2302      	movs	r3, #2
 80028a6:	e000      	b.n	80028aa <Othello_FlipPiecesInDirection+0x26>
 80028a8:	2301      	movs	r3, #1
 80028aa:	72fb      	strb	r3, [r7, #11]
    uint8_t flipped = 0;
 80028ac:	2300      	movs	r3, #0
 80028ae:	73fb      	strb	r3, [r7, #15]
    int8_t check_row = row + dx;
 80028b0:	787a      	ldrb	r2, [r7, #1]
 80028b2:	78fb      	ldrb	r3, [r7, #3]
 80028b4:	4413      	add	r3, r2
 80028b6:	b2db      	uxtb	r3, r3
 80028b8:	73bb      	strb	r3, [r7, #14]
    int8_t check_col = col + dy;
 80028ba:	7e3a      	ldrb	r2, [r7, #24]
 80028bc:	78bb      	ldrb	r3, [r7, #2]
 80028be:	4413      	add	r3, r2
 80028c0:	b2db      	uxtb	r3, r3
 80028c2:	737b      	strb	r3, [r7, #13]

    // Find opponent pieces in this direction
    while (OTHELLO_IS_VALID_COORD(check_row, check_col) &&
 80028c4:	e00c      	b.n	80028e0 <Othello_FlipPiecesInDirection+0x5c>
           state->board[check_row][check_col] == opponent) {
        flipped++;
 80028c6:	7bfb      	ldrb	r3, [r7, #15]
 80028c8:	3301      	adds	r3, #1
 80028ca:	73fb      	strb	r3, [r7, #15]
        check_row += dx;
 80028cc:	7bba      	ldrb	r2, [r7, #14]
 80028ce:	787b      	ldrb	r3, [r7, #1]
 80028d0:	4413      	add	r3, r2
 80028d2:	b2db      	uxtb	r3, r3
 80028d4:	73bb      	strb	r3, [r7, #14]
        check_col += dy;
 80028d6:	7b7a      	ldrb	r2, [r7, #13]
 80028d8:	7e3b      	ldrb	r3, [r7, #24]
 80028da:	4413      	add	r3, r2
 80028dc:	b2db      	uxtb	r3, r3
 80028de:	737b      	strb	r3, [r7, #13]
    while (OTHELLO_IS_VALID_COORD(check_row, check_col) &&
 80028e0:	f997 300e 	ldrsb.w	r3, [r7, #14]
 80028e4:	2b00      	cmp	r3, #0
 80028e6:	db17      	blt.n	8002918 <Othello_FlipPiecesInDirection+0x94>
 80028e8:	f997 300e 	ldrsb.w	r3, [r7, #14]
 80028ec:	2b07      	cmp	r3, #7
 80028ee:	dc13      	bgt.n	8002918 <Othello_FlipPiecesInDirection+0x94>
 80028f0:	f997 300d 	ldrsb.w	r3, [r7, #13]
 80028f4:	2b00      	cmp	r3, #0
 80028f6:	db0f      	blt.n	8002918 <Othello_FlipPiecesInDirection+0x94>
 80028f8:	f997 300d 	ldrsb.w	r3, [r7, #13]
 80028fc:	2b07      	cmp	r3, #7
 80028fe:	dc0b      	bgt.n	8002918 <Othello_FlipPiecesInDirection+0x94>
           state->board[check_row][check_col] == opponent) {
 8002900:	f997 200e 	ldrsb.w	r2, [r7, #14]
 8002904:	f997 300d 	ldrsb.w	r3, [r7, #13]
 8002908:	6879      	ldr	r1, [r7, #4]
 800290a:	00d2      	lsls	r2, r2, #3
 800290c:	440a      	add	r2, r1
 800290e:	4413      	add	r3, r2
 8002910:	781b      	ldrb	r3, [r3, #0]
    while (OTHELLO_IS_VALID_COORD(check_row, check_col) &&
 8002912:	7afa      	ldrb	r2, [r7, #11]
 8002914:	429a      	cmp	r2, r3
 8002916:	d0d6      	beq.n	80028c6 <Othello_FlipPiecesInDirection+0x42>
    }

    // Must end with our piece to be valid
    if (flipped > 0 &&
 8002918:	7bfb      	ldrb	r3, [r7, #15]
 800291a:	2b00      	cmp	r3, #0
 800291c:	d049      	beq.n	80029b2 <Othello_FlipPiecesInDirection+0x12e>
 800291e:	f997 300e 	ldrsb.w	r3, [r7, #14]
 8002922:	2b00      	cmp	r3, #0
 8002924:	db45      	blt.n	80029b2 <Othello_FlipPiecesInDirection+0x12e>
        OTHELLO_IS_VALID_COORD(check_row, check_col) &&
 8002926:	f997 300e 	ldrsb.w	r3, [r7, #14]
 800292a:	2b07      	cmp	r3, #7
 800292c:	dc41      	bgt.n	80029b2 <Othello_FlipPiecesInDirection+0x12e>
 800292e:	f997 300d 	ldrsb.w	r3, [r7, #13]
 8002932:	2b00      	cmp	r3, #0
 8002934:	db3d      	blt.n	80029b2 <Othello_FlipPiecesInDirection+0x12e>
 8002936:	f997 300d 	ldrsb.w	r3, [r7, #13]
 800293a:	2b07      	cmp	r3, #7
 800293c:	dc39      	bgt.n	80029b2 <Othello_FlipPiecesInDirection+0x12e>
        state->board[check_row][check_col] == player) {
 800293e:	f997 200e 	ldrsb.w	r2, [r7, #14]
 8002942:	f997 300d 	ldrsb.w	r3, [r7, #13]
 8002946:	6879      	ldr	r1, [r7, #4]
 8002948:	00d2      	lsls	r2, r2, #3
 800294a:	440a      	add	r2, r1
 800294c:	4413      	add	r3, r2
 800294e:	781b      	ldrb	r3, [r3, #0]
        OTHELLO_IS_VALID_COORD(check_row, check_col) &&
 8002950:	7f3a      	ldrb	r2, [r7, #28]
 8002952:	429a      	cmp	r2, r3
 8002954:	d12d      	bne.n	80029b2 <Othello_FlipPiecesInDirection+0x12e>

        if (execute) {
 8002956:	f897 3020 	ldrb.w	r3, [r7, #32]
 800295a:	2b00      	cmp	r3, #0
 800295c:	d027      	beq.n	80029ae <Othello_FlipPiecesInDirection+0x12a>
            // Actually flip the pieces
            check_row = row + dx;
 800295e:	787a      	ldrb	r2, [r7, #1]
 8002960:	78fb      	ldrb	r3, [r7, #3]
 8002962:	4413      	add	r3, r2
 8002964:	b2db      	uxtb	r3, r3
 8002966:	73bb      	strb	r3, [r7, #14]
            check_col = col + dy;
 8002968:	7e3a      	ldrb	r2, [r7, #24]
 800296a:	78bb      	ldrb	r3, [r7, #2]
 800296c:	4413      	add	r3, r2
 800296e:	b2db      	uxtb	r3, r3
 8002970:	737b      	strb	r3, [r7, #13]
            for (uint8_t i = 0; i < flipped; i++) {
 8002972:	2300      	movs	r3, #0
 8002974:	733b      	strb	r3, [r7, #12]
 8002976:	e016      	b.n	80029a6 <Othello_FlipPiecesInDirection+0x122>
                state->board[check_row][check_col] = player;
 8002978:	f997 200e 	ldrsb.w	r2, [r7, #14]
 800297c:	f997 300d 	ldrsb.w	r3, [r7, #13]
 8002980:	6879      	ldr	r1, [r7, #4]
 8002982:	00d2      	lsls	r2, r2, #3
 8002984:	440a      	add	r2, r1
 8002986:	4413      	add	r3, r2
 8002988:	7f3a      	ldrb	r2, [r7, #28]
 800298a:	701a      	strb	r2, [r3, #0]
                check_row += dx;
 800298c:	7bba      	ldrb	r2, [r7, #14]
 800298e:	787b      	ldrb	r3, [r7, #1]
 8002990:	4413      	add	r3, r2
 8002992:	b2db      	uxtb	r3, r3
 8002994:	73bb      	strb	r3, [r7, #14]
                check_col += dy;
 8002996:	7b7a      	ldrb	r2, [r7, #13]
 8002998:	7e3b      	ldrb	r3, [r7, #24]
 800299a:	4413      	add	r3, r2
 800299c:	b2db      	uxtb	r3, r3
 800299e:	737b      	strb	r3, [r7, #13]
            for (uint8_t i = 0; i < flipped; i++) {
 80029a0:	7b3b      	ldrb	r3, [r7, #12]
 80029a2:	3301      	adds	r3, #1
 80029a4:	733b      	strb	r3, [r7, #12]
 80029a6:	7b3a      	ldrb	r2, [r7, #12]
 80029a8:	7bfb      	ldrb	r3, [r7, #15]
 80029aa:	429a      	cmp	r2, r3
 80029ac:	d3e4      	bcc.n	8002978 <Othello_FlipPiecesInDirection+0xf4>
            }
        }

        return flipped;
 80029ae:	7bfb      	ldrb	r3, [r7, #15]
 80029b0:	e000      	b.n	80029b4 <Othello_FlipPiecesInDirection+0x130>
    }

    return 0;  // No valid flip in this direction
 80029b2:	2300      	movs	r3, #0
}
 80029b4:	4618      	mov	r0, r3
 80029b6:	3714      	adds	r7, #20
 80029b8:	46bd      	mov	sp, r7
 80029ba:	bc80      	pop	{r7}
 80029bc:	4770      	bx	lr

080029be <Othello_UpdatePieceCounts>:

/**
 * @brief Update piece counts from board state
 */
static void Othello_UpdatePieceCounts(GameState_t* state)
{
 80029be:	b580      	push	{r7, lr}
 80029c0:	b082      	sub	sp, #8
 80029c2:	af00      	add	r7, sp, #0
 80029c4:	6078      	str	r0, [r7, #4]
    if (!state) {
 80029c6:	687b      	ldr	r3, [r7, #4]
 80029c8:	2b00      	cmp	r3, #0
 80029ca:	d012      	beq.n	80029f2 <Othello_UpdatePieceCounts+0x34>
        return;
    }

    state->black_count = Othello_CountPieces(state, PIECE_BLACK);
 80029cc:	2101      	movs	r1, #1
 80029ce:	6878      	ldr	r0, [r7, #4]
 80029d0:	f7ff fe6c 	bl	80026ac <Othello_CountPieces>
 80029d4:	4603      	mov	r3, r0
 80029d6:	461a      	mov	r2, r3
 80029d8:	687b      	ldr	r3, [r7, #4]
 80029da:	f883 2041 	strb.w	r2, [r3, #65]	@ 0x41
    state->white_count = Othello_CountPieces(state, PIECE_WHITE);
 80029de:	2102      	movs	r1, #2
 80029e0:	6878      	ldr	r0, [r7, #4]
 80029e2:	f7ff fe63 	bl	80026ac <Othello_CountPieces>
 80029e6:	4603      	mov	r3, r0
 80029e8:	461a      	mov	r2, r3
 80029ea:	687b      	ldr	r3, [r7, #4]
 80029ec:	f883 2042 	strb.w	r2, [r3, #66]	@ 0x42
 80029f0:	e000      	b.n	80029f4 <Othello_UpdatePieceCounts+0x36>
        return;
 80029f2:	bf00      	nop
}
 80029f4:	3708      	adds	r7, #8
 80029f6:	46bd      	mov	sp, r7
 80029f8:	bd80      	pop	{r7, pc}

080029fa <Othello_InvalidateValidMovesCache>:

/**
 * @brief Invalidate valid moves cache
 */
static void Othello_InvalidateValidMovesCache(GameState_t* state)
{
 80029fa:	b580      	push	{r7, lr}
 80029fc:	b082      	sub	sp, #8
 80029fe:	af00      	add	r7, sp, #0
 8002a00:	6078      	str	r0, [r7, #4]
    if (state) {
 8002a02:	687b      	ldr	r3, [r7, #4]
 8002a04:	2b00      	cmp	r3, #0
 8002a06:	d00a      	beq.n	8002a1e <Othello_InvalidateValidMovesCache+0x24>
        state->valid_moves_cached = false;
 8002a08:	687b      	ldr	r3, [r7, #4]
 8002a0a:	2200      	movs	r2, #0
 8002a0c:	f883 2098 	strb.w	r2, [r3, #152]	@ 0x98
        memset(state->valid_moves_cache, 0, sizeof(state->valid_moves_cache));
 8002a10:	687b      	ldr	r3, [r7, #4]
 8002a12:	3358      	adds	r3, #88	@ 0x58
 8002a14:	2240      	movs	r2, #64	@ 0x40
 8002a16:	2100      	movs	r1, #0
 8002a18:	4618      	mov	r0, r3
 8002a1a:	f004 f9d9 	bl	8006dd0 <memset>
    }
}
 8002a1e:	bf00      	nop
 8002a20:	3708      	adds	r7, #8
 8002a22:	46bd      	mov	sp, r7
 8002a24:	bd80      	pop	{r7, pc}

08002a26 <Othello_UpdateGameStatus>:

/**
 * @brief Update game status based on current state
 */
static void Othello_UpdateGameStatus(GameState_t* state)
{
 8002a26:	b480      	push	{r7}
 8002a28:	b083      	sub	sp, #12
 8002a2a:	af00      	add	r7, sp, #0
 8002a2c:	6078      	str	r0, [r7, #4]
    if (!state) {
 8002a2e:	687b      	ldr	r3, [r7, #4]
 8002a30:	2b00      	cmp	r3, #0
 8002a32:	d01e      	beq.n	8002a72 <Othello_UpdateGameStatus+0x4c>
        return;
    }

    // Game is over - determine winner
    if (state->black_count > state->white_count) {
 8002a34:	687b      	ldr	r3, [r7, #4]
 8002a36:	f893 2041 	ldrb.w	r2, [r3, #65]	@ 0x41
 8002a3a:	687b      	ldr	r3, [r7, #4]
 8002a3c:	f893 3042 	ldrb.w	r3, [r3, #66]	@ 0x42
 8002a40:	429a      	cmp	r2, r3
 8002a42:	d904      	bls.n	8002a4e <Othello_UpdateGameStatus+0x28>
        state->status = GAME_STATUS_BLACK_WIN;
 8002a44:	687b      	ldr	r3, [r7, #4]
 8002a46:	2201      	movs	r2, #1
 8002a48:	f883 2043 	strb.w	r2, [r3, #67]	@ 0x43
 8002a4c:	e012      	b.n	8002a74 <Othello_UpdateGameStatus+0x4e>
    } else if (state->white_count > state->black_count) {
 8002a4e:	687b      	ldr	r3, [r7, #4]
 8002a50:	f893 2042 	ldrb.w	r2, [r3, #66]	@ 0x42
 8002a54:	687b      	ldr	r3, [r7, #4]
 8002a56:	f893 3041 	ldrb.w	r3, [r3, #65]	@ 0x41
 8002a5a:	429a      	cmp	r2, r3
 8002a5c:	d904      	bls.n	8002a68 <Othello_UpdateGameStatus+0x42>
        state->status = GAME_STATUS_WHITE_WIN;
 8002a5e:	687b      	ldr	r3, [r7, #4]
 8002a60:	2202      	movs	r2, #2
 8002a62:	f883 2043 	strb.w	r2, [r3, #67]	@ 0x43
 8002a66:	e005      	b.n	8002a74 <Othello_UpdateGameStatus+0x4e>
    } else {
        state->status = GAME_STATUS_DRAW;
 8002a68:	687b      	ldr	r3, [r7, #4]
 8002a6a:	2203      	movs	r2, #3
 8002a6c:	f883 2043 	strb.w	r2, [r3, #67]	@ 0x43
 8002a70:	e000      	b.n	8002a74 <Othello_UpdateGameStatus+0x4e>
        return;
 8002a72:	bf00      	nop
    }
 8002a74:	370c      	adds	r7, #12
 8002a76:	46bd      	mov	sp, r7
 8002a78:	bc80      	pop	{r7}
 8002a7a:	4770      	bx	lr

08002a7c <HAL_MspInit>:
void HAL_TIM_MspPostInit(TIM_HandleTypeDef *htim);
                    /**
  * Initializes the Global MSP.
  */
void HAL_MspInit(void)
{
 8002a7c:	b480      	push	{r7}
 8002a7e:	b085      	sub	sp, #20
 8002a80:	af00      	add	r7, sp, #0

  /* USER CODE BEGIN MspInit 0 */

  /* USER CODE END MspInit 0 */

  __HAL_RCC_AFIO_CLK_ENABLE();
 8002a82:	4b15      	ldr	r3, [pc, #84]	@ (8002ad8 <HAL_MspInit+0x5c>)
 8002a84:	699b      	ldr	r3, [r3, #24]
 8002a86:	4a14      	ldr	r2, [pc, #80]	@ (8002ad8 <HAL_MspInit+0x5c>)
 8002a88:	f043 0301 	orr.w	r3, r3, #1
 8002a8c:	6193      	str	r3, [r2, #24]
 8002a8e:	4b12      	ldr	r3, [pc, #72]	@ (8002ad8 <HAL_MspInit+0x5c>)
 8002a90:	699b      	ldr	r3, [r3, #24]
 8002a92:	f003 0301 	and.w	r3, r3, #1
 8002a96:	60bb      	str	r3, [r7, #8]
 8002a98:	68bb      	ldr	r3, [r7, #8]
  __HAL_RCC_PWR_CLK_ENABLE();
 8002a9a:	4b0f      	ldr	r3, [pc, #60]	@ (8002ad8 <HAL_MspInit+0x5c>)
 8002a9c:	69db      	ldr	r3, [r3, #28]
 8002a9e:	4a0e      	ldr	r2, [pc, #56]	@ (8002ad8 <HAL_MspInit+0x5c>)
 8002aa0:	f043 5380 	orr.w	r3, r3, #268435456	@ 0x10000000
 8002aa4:	61d3      	str	r3, [r2, #28]
 8002aa6:	4b0c      	ldr	r3, [pc, #48]	@ (8002ad8 <HAL_MspInit+0x5c>)
 8002aa8:	69db      	ldr	r3, [r3, #28]
 8002aaa:	f003 5380 	and.w	r3, r3, #268435456	@ 0x10000000
 8002aae:	607b      	str	r3, [r7, #4]
 8002ab0:	687b      	ldr	r3, [r7, #4]

  /* System interrupt init*/

  /** NOJTAG: JTAG-DP Disabled and SW-DP Enabled
  */
  __HAL_AFIO_REMAP_SWJ_NOJTAG();
 8002ab2:	4b0a      	ldr	r3, [pc, #40]	@ (8002adc <HAL_MspInit+0x60>)
 8002ab4:	685b      	ldr	r3, [r3, #4]
 8002ab6:	60fb      	str	r3, [r7, #12]
 8002ab8:	68fb      	ldr	r3, [r7, #12]
 8002aba:	f023 63e0 	bic.w	r3, r3, #117440512	@ 0x7000000
 8002abe:	60fb      	str	r3, [r7, #12]
 8002ac0:	68fb      	ldr	r3, [r7, #12]
 8002ac2:	f043 7300 	orr.w	r3, r3, #33554432	@ 0x2000000
 8002ac6:	60fb      	str	r3, [r7, #12]
 8002ac8:	4a04      	ldr	r2, [pc, #16]	@ (8002adc <HAL_MspInit+0x60>)
 8002aca:	68fb      	ldr	r3, [r7, #12]
 8002acc:	6053      	str	r3, [r2, #4]

  /* USER CODE BEGIN MspInit 1 */

  /* USER CODE END MspInit 1 */
}
 8002ace:	bf00      	nop
 8002ad0:	3714      	adds	r7, #20
 8002ad2:	46bd      	mov	sp, r7
 8002ad4:	bc80      	pop	{r7}
 8002ad6:	4770      	bx	lr
 8002ad8:	40021000 	.word	0x40021000
 8002adc:	40010000 	.word	0x40010000

08002ae0 <HAL_TIM_Base_MspInit>:
  * This function configures the hardware resources used in this example
  * @param htim_base: TIM_Base handle pointer
  * @retval None
  */
void HAL_TIM_Base_MspInit(TIM_HandleTypeDef* htim_base)
{
 8002ae0:	b580      	push	{r7, lr}
 8002ae2:	b084      	sub	sp, #16
 8002ae4:	af00      	add	r7, sp, #0
 8002ae6:	6078      	str	r0, [r7, #4]
  if(htim_base->Instance==TIM2)
 8002ae8:	687b      	ldr	r3, [r7, #4]
 8002aea:	681b      	ldr	r3, [r3, #0]
 8002aec:	f1b3 4f80 	cmp.w	r3, #1073741824	@ 0x40000000
 8002af0:	d13b      	bne.n	8002b6a <HAL_TIM_Base_MspInit+0x8a>
  {
    /* USER CODE BEGIN TIM2_MspInit 0 */

    /* USER CODE END TIM2_MspInit 0 */
    /* Peripheral clock enable */
    __HAL_RCC_TIM2_CLK_ENABLE();
 8002af2:	4b20      	ldr	r3, [pc, #128]	@ (8002b74 <HAL_TIM_Base_MspInit+0x94>)
 8002af4:	69db      	ldr	r3, [r3, #28]
 8002af6:	4a1f      	ldr	r2, [pc, #124]	@ (8002b74 <HAL_TIM_Base_MspInit+0x94>)
 8002af8:	f043 0301 	orr.w	r3, r3, #1
 8002afc:	61d3      	str	r3, [r2, #28]
 8002afe:	4b1d      	ldr	r3, [pc, #116]	@ (8002b74 <HAL_TIM_Base_MspInit+0x94>)
 8002b00:	69db      	ldr	r3, [r3, #28]
 8002b02:	f003 0301 	and.w	r3, r3, #1
 8002b06:	60fb      	str	r3, [r7, #12]
 8002b08:	68fb      	ldr	r3, [r7, #12]

    /* TIM2 DMA Init */
    /* TIM2_CH1 Init */
    hdma_tim2_ch1.Instance = DMA1_Channel5;
 8002b0a:	4b1b      	ldr	r3, [pc, #108]	@ (8002b78 <HAL_TIM_Base_MspInit+0x98>)
 8002b0c:	4a1b      	ldr	r2, [pc, #108]	@ (8002b7c <HAL_TIM_Base_MspInit+0x9c>)
 8002b0e:	601a      	str	r2, [r3, #0]
    hdma_tim2_ch1.Init.Direction = DMA_MEMORY_TO_PERIPH;
 8002b10:	4b19      	ldr	r3, [pc, #100]	@ (8002b78 <HAL_TIM_Base_MspInit+0x98>)
 8002b12:	2210      	movs	r2, #16
 8002b14:	605a      	str	r2, [r3, #4]
    hdma_tim2_ch1.Init.PeriphInc = DMA_PINC_DISABLE;
 8002b16:	4b18      	ldr	r3, [pc, #96]	@ (8002b78 <HAL_TIM_Base_MspInit+0x98>)
 8002b18:	2200      	movs	r2, #0
 8002b1a:	609a      	str	r2, [r3, #8]
    hdma_tim2_ch1.Init.MemInc = DMA_MINC_ENABLE;
 8002b1c:	4b16      	ldr	r3, [pc, #88]	@ (8002b78 <HAL_TIM_Base_MspInit+0x98>)
 8002b1e:	2280      	movs	r2, #128	@ 0x80
 8002b20:	60da      	str	r2, [r3, #12]
    hdma_tim2_ch1.Init.PeriphDataAlignment = DMA_PDATAALIGN_HALFWORD;
 8002b22:	4b15      	ldr	r3, [pc, #84]	@ (8002b78 <HAL_TIM_Base_MspInit+0x98>)
 8002b24:	f44f 7280 	mov.w	r2, #256	@ 0x100
 8002b28:	611a      	str	r2, [r3, #16]
    hdma_tim2_ch1.Init.MemDataAlignment = DMA_MDATAALIGN_HALFWORD;
 8002b2a:	4b13      	ldr	r3, [pc, #76]	@ (8002b78 <HAL_TIM_Base_MspInit+0x98>)
 8002b2c:	f44f 6280 	mov.w	r2, #1024	@ 0x400
 8002b30:	615a      	str	r2, [r3, #20]
    hdma_tim2_ch1.Init.Mode = DMA_NORMAL;
 8002b32:	4b11      	ldr	r3, [pc, #68]	@ (8002b78 <HAL_TIM_Base_MspInit+0x98>)
 8002b34:	2200      	movs	r2, #0
 8002b36:	619a      	str	r2, [r3, #24]
    hdma_tim2_ch1.Init.Priority = DMA_PRIORITY_LOW;
 8002b38:	4b0f      	ldr	r3, [pc, #60]	@ (8002b78 <HAL_TIM_Base_MspInit+0x98>)
 8002b3a:	2200      	movs	r2, #0
 8002b3c:	61da      	str	r2, [r3, #28]
    if (HAL_DMA_Init(&hdma_tim2_ch1) != HAL_OK)
 8002b3e:	480e      	ldr	r0, [pc, #56]	@ (8002b78 <HAL_TIM_Base_MspInit+0x98>)
 8002b40:	f001 f890 	bl	8003c64 <HAL_DMA_Init>
 8002b44:	4603      	mov	r3, r0
 8002b46:	2b00      	cmp	r3, #0
 8002b48:	d001      	beq.n	8002b4e <HAL_TIM_Base_MspInit+0x6e>
    {
      Error_Handler();
 8002b4a:	f7ff fb80 	bl	800224e <Error_Handler>
    }

    __HAL_LINKDMA(htim_base,hdma[TIM_DMA_ID_CC1],hdma_tim2_ch1);
 8002b4e:	687b      	ldr	r3, [r7, #4]
 8002b50:	4a09      	ldr	r2, [pc, #36]	@ (8002b78 <HAL_TIM_Base_MspInit+0x98>)
 8002b52:	625a      	str	r2, [r3, #36]	@ 0x24
 8002b54:	4a08      	ldr	r2, [pc, #32]	@ (8002b78 <HAL_TIM_Base_MspInit+0x98>)
 8002b56:	687b      	ldr	r3, [r7, #4]
 8002b58:	6253      	str	r3, [r2, #36]	@ 0x24

    /* TIM2 interrupt Init */
    HAL_NVIC_SetPriority(TIM2_IRQn, 2, 0);
 8002b5a:	2200      	movs	r2, #0
 8002b5c:	2102      	movs	r1, #2
 8002b5e:	201c      	movs	r0, #28
 8002b60:	f001 f849 	bl	8003bf6 <HAL_NVIC_SetPriority>
    HAL_NVIC_EnableIRQ(TIM2_IRQn);
 8002b64:	201c      	movs	r0, #28
 8002b66:	f001 f862 	bl	8003c2e <HAL_NVIC_EnableIRQ>

    /* USER CODE END TIM2_MspInit 1 */

  }

}
 8002b6a:	bf00      	nop
 8002b6c:	3710      	adds	r7, #16
 8002b6e:	46bd      	mov	sp, r7
 8002b70:	bd80      	pop	{r7, pc}
 8002b72:	bf00      	nop
 8002b74:	40021000 	.word	0x40021000
 8002b78:	200002b4 	.word	0x200002b4
 8002b7c:	40020058 	.word	0x40020058

08002b80 <HAL_TIM_MspPostInit>:

void HAL_TIM_MspPostInit(TIM_HandleTypeDef* htim)
{
 8002b80:	b580      	push	{r7, lr}
 8002b82:	b088      	sub	sp, #32
 8002b84:	af00      	add	r7, sp, #0
 8002b86:	6078      	str	r0, [r7, #4]
  GPIO_InitTypeDef GPIO_InitStruct = {0};
 8002b88:	f107 0310 	add.w	r3, r7, #16
 8002b8c:	2200      	movs	r2, #0
 8002b8e:	601a      	str	r2, [r3, #0]
 8002b90:	605a      	str	r2, [r3, #4]
 8002b92:	609a      	str	r2, [r3, #8]
 8002b94:	60da      	str	r2, [r3, #12]
  if(htim->Instance==TIM2)
 8002b96:	687b      	ldr	r3, [r7, #4]
 8002b98:	681b      	ldr	r3, [r3, #0]
 8002b9a:	f1b3 4f80 	cmp.w	r3, #1073741824	@ 0x40000000
 8002b9e:	d117      	bne.n	8002bd0 <HAL_TIM_MspPostInit+0x50>
  {
    /* USER CODE BEGIN TIM2_MspPostInit 0 */

    /* USER CODE END TIM2_MspPostInit 0 */

    __HAL_RCC_GPIOA_CLK_ENABLE();
 8002ba0:	4b0d      	ldr	r3, [pc, #52]	@ (8002bd8 <HAL_TIM_MspPostInit+0x58>)
 8002ba2:	699b      	ldr	r3, [r3, #24]
 8002ba4:	4a0c      	ldr	r2, [pc, #48]	@ (8002bd8 <HAL_TIM_MspPostInit+0x58>)
 8002ba6:	f043 0304 	orr.w	r3, r3, #4
 8002baa:	6193      	str	r3, [r2, #24]
 8002bac:	4b0a      	ldr	r3, [pc, #40]	@ (8002bd8 <HAL_TIM_MspPostInit+0x58>)
 8002bae:	699b      	ldr	r3, [r3, #24]
 8002bb0:	f003 0304 	and.w	r3, r3, #4
 8002bb4:	60fb      	str	r3, [r7, #12]
 8002bb6:	68fb      	ldr	r3, [r7, #12]
    /**TIM2 GPIO Configuration
    PA0-WKUP     ------> TIM2_CH1
    */
    GPIO_InitStruct.Pin = LED_DATA_Pin;
 8002bb8:	2301      	movs	r3, #1
 8002bba:	613b      	str	r3, [r7, #16]
    GPIO_InitStruct.Mode = GPIO_MODE_AF_PP;
 8002bbc:	2302      	movs	r3, #2
 8002bbe:	617b      	str	r3, [r7, #20]
    GPIO_InitStruct.Speed = GPIO_SPEED_FREQ_HIGH;
 8002bc0:	2303      	movs	r3, #3
 8002bc2:	61fb      	str	r3, [r7, #28]
    HAL_GPIO_Init(LED_DATA_GPIO_Port, &GPIO_InitStruct);
 8002bc4:	f107 0310 	add.w	r3, r7, #16
 8002bc8:	4619      	mov	r1, r3
 8002bca:	4804      	ldr	r0, [pc, #16]	@ (8002bdc <HAL_TIM_MspPostInit+0x5c>)
 8002bcc:	f001 faec 	bl	80041a8 <HAL_GPIO_Init>
    /* USER CODE BEGIN TIM2_MspPostInit 1 */

    /* USER CODE END TIM2_MspPostInit 1 */
  }

}
 8002bd0:	bf00      	nop
 8002bd2:	3720      	adds	r7, #32
 8002bd4:	46bd      	mov	sp, r7
 8002bd6:	bd80      	pop	{r7, pc}
 8002bd8:	40021000 	.word	0x40021000
 8002bdc:	40010800 	.word	0x40010800

08002be0 <HAL_UART_MspInit>:
  * This function configures the hardware resources used in this example
  * @param huart: UART handle pointer
  * @retval None
  */
void HAL_UART_MspInit(UART_HandleTypeDef* huart)
{
 8002be0:	b580      	push	{r7, lr}
 8002be2:	b088      	sub	sp, #32
 8002be4:	af00      	add	r7, sp, #0
 8002be6:	6078      	str	r0, [r7, #4]
  GPIO_InitTypeDef GPIO_InitStruct = {0};
 8002be8:	f107 0310 	add.w	r3, r7, #16
 8002bec:	2200      	movs	r2, #0
 8002bee:	601a      	str	r2, [r3, #0]
 8002bf0:	605a      	str	r2, [r3, #4]
 8002bf2:	609a      	str	r2, [r3, #8]
 8002bf4:	60da      	str	r2, [r3, #12]
  if(huart->Instance==USART1)
 8002bf6:	687b      	ldr	r3, [r7, #4]
 8002bf8:	681b      	ldr	r3, [r3, #0]
 8002bfa:	4a20      	ldr	r2, [pc, #128]	@ (8002c7c <HAL_UART_MspInit+0x9c>)
 8002bfc:	4293      	cmp	r3, r2
 8002bfe:	d139      	bne.n	8002c74 <HAL_UART_MspInit+0x94>
  {
    /* USER CODE BEGIN USART1_MspInit 0 */

    /* USER CODE END USART1_MspInit 0 */
    /* Peripheral clock enable */
    __HAL_RCC_USART1_CLK_ENABLE();
 8002c00:	4b1f      	ldr	r3, [pc, #124]	@ (8002c80 <HAL_UART_MspInit+0xa0>)
 8002c02:	699b      	ldr	r3, [r3, #24]
 8002c04:	4a1e      	ldr	r2, [pc, #120]	@ (8002c80 <HAL_UART_MspInit+0xa0>)
 8002c06:	f443 4380 	orr.w	r3, r3, #16384	@ 0x4000
 8002c0a:	6193      	str	r3, [r2, #24]
 8002c0c:	4b1c      	ldr	r3, [pc, #112]	@ (8002c80 <HAL_UART_MspInit+0xa0>)
 8002c0e:	699b      	ldr	r3, [r3, #24]
 8002c10:	f403 4380 	and.w	r3, r3, #16384	@ 0x4000
 8002c14:	60fb      	str	r3, [r7, #12]
 8002c16:	68fb      	ldr	r3, [r7, #12]

    __HAL_RCC_GPIOA_CLK_ENABLE();
 8002c18:	4b19      	ldr	r3, [pc, #100]	@ (8002c80 <HAL_UART_MspInit+0xa0>)
 8002c1a:	699b      	ldr	r3, [r3, #24]
 8002c1c:	4a18      	ldr	r2, [pc, #96]	@ (8002c80 <HAL_UART_MspInit+0xa0>)
 8002c1e:	f043 0304 	orr.w	r3, r3, #4
 8002c22:	6193      	str	r3, [r2, #24]
 8002c24:	4b16      	ldr	r3, [pc, #88]	@ (8002c80 <HAL_UART_MspInit+0xa0>)
 8002c26:	699b      	ldr	r3, [r3, #24]
 8002c28:	f003 0304 	and.w	r3, r3, #4
 8002c2c:	60bb      	str	r3, [r7, #8]
 8002c2e:	68bb      	ldr	r3, [r7, #8]
    /**USART1 GPIO Configuration
    PA9     ------> USART1_TX
    PA10     ------> USART1_RX
    */
    GPIO_InitStruct.Pin = PC_TX_Pin;
 8002c30:	f44f 7300 	mov.w	r3, #512	@ 0x200
 8002c34:	613b      	str	r3, [r7, #16]
    GPIO_InitStruct.Mode = GPIO_MODE_AF_PP;
 8002c36:	2302      	movs	r3, #2
 8002c38:	617b      	str	r3, [r7, #20]
    GPIO_InitStruct.Speed = GPIO_SPEED_FREQ_HIGH;
 8002c3a:	2303      	movs	r3, #3
 8002c3c:	61fb      	str	r3, [r7, #28]
    HAL_GPIO_Init(PC_TX_GPIO_Port, &GPIO_InitStruct);
 8002c3e:	f107 0310 	add.w	r3, r7, #16
 8002c42:	4619      	mov	r1, r3
 8002c44:	480f      	ldr	r0, [pc, #60]	@ (8002c84 <HAL_UART_MspInit+0xa4>)
 8002c46:	f001 faaf 	bl	80041a8 <HAL_GPIO_Init>

    GPIO_InitStruct.Pin = PC_RX_Pin;
 8002c4a:	f44f 6380 	mov.w	r3, #1024	@ 0x400
 8002c4e:	613b      	str	r3, [r7, #16]
    GPIO_InitStruct.Mode = GPIO_MODE_INPUT;
 8002c50:	2300      	movs	r3, #0
 8002c52:	617b      	str	r3, [r7, #20]
    GPIO_InitStruct.Pull = GPIO_NOPULL;
 8002c54:	2300      	movs	r3, #0
 8002c56:	61bb      	str	r3, [r7, #24]
    HAL_GPIO_Init(PC_RX_GPIO_Port, &GPIO_InitStruct);
 8002c58:	f107 0310 	add.w	r3, r7, #16
 8002c5c:	4619      	mov	r1, r3
 8002c5e:	4809      	ldr	r0, [pc, #36]	@ (8002c84 <HAL_UART_MspInit+0xa4>)
 8002c60:	f001 faa2 	bl	80041a8 <HAL_GPIO_Init>

    /* USART1 interrupt Init */
    HAL_NVIC_SetPriority(USART1_IRQn, 1, 0);
 8002c64:	2200      	movs	r2, #0
 8002c66:	2101      	movs	r1, #1
 8002c68:	2025      	movs	r0, #37	@ 0x25
 8002c6a:	f000 ffc4 	bl	8003bf6 <HAL_NVIC_SetPriority>
    HAL_NVIC_EnableIRQ(USART1_IRQn);
 8002c6e:	2025      	movs	r0, #37	@ 0x25
 8002c70:	f000 ffdd 	bl	8003c2e <HAL_NVIC_EnableIRQ>

    /* USER CODE END USART1_MspInit 1 */

  }

}
 8002c74:	bf00      	nop
 8002c76:	3720      	adds	r7, #32
 8002c78:	46bd      	mov	sp, r7
 8002c7a:	bd80      	pop	{r7, pc}
 8002c7c:	40013800 	.word	0x40013800
 8002c80:	40021000 	.word	0x40021000
 8002c84:	40010800 	.word	0x40010800

08002c88 <NMI_Handler>:
/******************************************************************************/
/**
  * @brief This function handles Non maskable interrupt.
  */
void NMI_Handler(void)
{
 8002c88:	b480      	push	{r7}
 8002c8a:	af00      	add	r7, sp, #0
  /* USER CODE BEGIN NonMaskableInt_IRQn 0 */

  /* USER CODE END NonMaskableInt_IRQn 0 */
  /* USER CODE BEGIN NonMaskableInt_IRQn 1 */
   while (1)
 8002c8c:	bf00      	nop
 8002c8e:	e7fd      	b.n	8002c8c <NMI_Handler+0x4>

08002c90 <HardFault_Handler>:

/**
  * @brief This function handles Hard fault interrupt.
  */
void HardFault_Handler(void)
{
 8002c90:	b480      	push	{r7}
 8002c92:	af00      	add	r7, sp, #0
  /* USER CODE BEGIN HardFault_IRQn 0 */

  /* USER CODE END HardFault_IRQn 0 */
  while (1)
 8002c94:	bf00      	nop
 8002c96:	e7fd      	b.n	8002c94 <HardFault_Handler+0x4>

08002c98 <MemManage_Handler>:

/**
  * @brief This function handles Memory management fault.
  */
void MemManage_Handler(void)
{
 8002c98:	b480      	push	{r7}
 8002c9a:	af00      	add	r7, sp, #0
  /* USER CODE BEGIN MemoryManagement_IRQn 0 */

  /* USER CODE END MemoryManagement_IRQn 0 */
  while (1)
 8002c9c:	bf00      	nop
 8002c9e:	e7fd      	b.n	8002c9c <MemManage_Handler+0x4>

08002ca0 <BusFault_Handler>:

/**
  * @brief This function handles Prefetch fault, memory access fault.
  */
void BusFault_Handler(void)
{
 8002ca0:	b480      	push	{r7}
 8002ca2:	af00      	add	r7, sp, #0
  /* USER CODE BEGIN BusFault_IRQn 0 */

  /* USER CODE END BusFault_IRQn 0 */
  while (1)
 8002ca4:	bf00      	nop
 8002ca6:	e7fd      	b.n	8002ca4 <BusFault_Handler+0x4>

08002ca8 <UsageFault_Handler>:

/**
  * @brief This function handles Undefined instruction or illegal state.
  */
void UsageFault_Handler(void)
{
 8002ca8:	b480      	push	{r7}
 8002caa:	af00      	add	r7, sp, #0
  /* USER CODE BEGIN UsageFault_IRQn 0 */

  /* USER CODE END UsageFault_IRQn 0 */
  while (1)
 8002cac:	bf00      	nop
 8002cae:	e7fd      	b.n	8002cac <UsageFault_Handler+0x4>

08002cb0 <SVC_Handler>:

/**
  * @brief This function handles System service call via SWI instruction.
  */
void SVC_Handler(void)
{
 8002cb0:	b480      	push	{r7}
 8002cb2:	af00      	add	r7, sp, #0

  /* USER CODE END SVCall_IRQn 0 */
  /* USER CODE BEGIN SVCall_IRQn 1 */

  /* USER CODE END SVCall_IRQn 1 */
}
 8002cb4:	bf00      	nop
 8002cb6:	46bd      	mov	sp, r7
 8002cb8:	bc80      	pop	{r7}
 8002cba:	4770      	bx	lr

08002cbc <DebugMon_Handler>:

/**
  * @brief This function handles Debug monitor.
  */
void DebugMon_Handler(void)
{
 8002cbc:	b480      	push	{r7}
 8002cbe:	af00      	add	r7, sp, #0

  /* USER CODE END DebugMonitor_IRQn 0 */
  /* USER CODE BEGIN DebugMonitor_IRQn 1 */

  /* USER CODE END DebugMonitor_IRQn 1 */
}
 8002cc0:	bf00      	nop
 8002cc2:	46bd      	mov	sp, r7
 8002cc4:	bc80      	pop	{r7}
 8002cc6:	4770      	bx	lr

08002cc8 <PendSV_Handler>:

/**
  * @brief This function handles Pendable request for system service.
  */
void PendSV_Handler(void)
{
 8002cc8:	b480      	push	{r7}
 8002cca:	af00      	add	r7, sp, #0

  /* USER CODE END PendSV_IRQn 0 */
  /* USER CODE BEGIN PendSV_IRQn 1 */

  /* USER CODE END PendSV_IRQn 1 */
}
 8002ccc:	bf00      	nop
 8002cce:	46bd      	mov	sp, r7
 8002cd0:	bc80      	pop	{r7}
 8002cd2:	4770      	bx	lr

08002cd4 <SysTick_Handler>:

/**
  * @brief This function handles System tick timer.
  */
void SysTick_Handler(void)
{
 8002cd4:	b580      	push	{r7, lr}
 8002cd6:	af00      	add	r7, sp, #0
  /* USER CODE BEGIN SysTick_IRQn 0 */

  /* USER CODE END SysTick_IRQn 0 */
  HAL_IncTick();
 8002cd8:	f000 fe76 	bl	80039c8 <HAL_IncTick>
  /* USER CODE BEGIN SysTick_IRQn 1 */

  /* USER CODE END SysTick_IRQn 1 */
}
 8002cdc:	bf00      	nop
 8002cde:	bd80      	pop	{r7, pc}

08002ce0 <DMA1_Channel5_IRQHandler>:

/**
  * @brief This function handles DMA1 channel5 global interrupt.
  */
void DMA1_Channel5_IRQHandler(void)
{
 8002ce0:	b580      	push	{r7, lr}
 8002ce2:	af00      	add	r7, sp, #0
  /* USER CODE BEGIN DMA1_Channel5_IRQn 0 */

  /* USER CODE END DMA1_Channel5_IRQn 0 */
  HAL_DMA_IRQHandler(&hdma_tim2_ch1);
 8002ce4:	4802      	ldr	r0, [pc, #8]	@ (8002cf0 <DMA1_Channel5_IRQHandler+0x10>)
 8002ce6:	f001 f92b 	bl	8003f40 <HAL_DMA_IRQHandler>
  /* USER CODE BEGIN DMA1_Channel5_IRQn 1 */

  /* USER CODE END DMA1_Channel5_IRQn 1 */
}
 8002cea:	bf00      	nop
 8002cec:	bd80      	pop	{r7, pc}
 8002cee:	bf00      	nop
 8002cf0:	200002b4 	.word	0x200002b4

08002cf4 <TIM2_IRQHandler>:

/**
  * @brief This function handles TIM2 global interrupt.
  */
void TIM2_IRQHandler(void)
{
 8002cf4:	b580      	push	{r7, lr}
 8002cf6:	af00      	add	r7, sp, #0
  /* USER CODE BEGIN TIM2_IRQn 0 */

  /* USER CODE END TIM2_IRQn 0 */
  HAL_TIM_IRQHandler(&htim2);
 8002cf8:	4802      	ldr	r0, [pc, #8]	@ (8002d04 <TIM2_IRQHandler+0x10>)
 8002cfa:	f002 fb29 	bl	8005350 <HAL_TIM_IRQHandler>
  /* USER CODE BEGIN TIM2_IRQn 1 */

  /* USER CODE END TIM2_IRQn 1 */
}
 8002cfe:	bf00      	nop
 8002d00:	bd80      	pop	{r7, pc}
 8002d02:	bf00      	nop
 8002d04:	2000026c 	.word	0x2000026c

08002d08 <USART1_IRQHandler>:

/**
  * @brief This function handles USART1 global interrupt.
  */
void USART1_IRQHandler(void)
{
 8002d08:	b580      	push	{r7, lr}
 8002d0a:	af00      	add	r7, sp, #0
  /* USER CODE BEGIN USART1_IRQn 0 */

  /* USER CODE END USART1_IRQn 0 */
  HAL_UART_IRQHandler(&huart1);
 8002d0c:	4802      	ldr	r0, [pc, #8]	@ (8002d18 <USART1_IRQHandler+0x10>)
 8002d0e:	f003 fabf 	bl	8006290 <HAL_UART_IRQHandler>
  /* USER CODE BEGIN USART1_IRQn 1 */

  /* USER CODE END USART1_IRQn 1 */
}
 8002d12:	bf00      	nop
 8002d14:	bd80      	pop	{r7, pc}
 8002d16:	bf00      	nop
 8002d18:	200002f8 	.word	0x200002f8

08002d1c <_sbrk>:
 *
 * @param incr Memory size
 * @return Pointer to allocated memory
 */
void *_sbrk(ptrdiff_t incr)
{
 8002d1c:	b580      	push	{r7, lr}
 8002d1e:	b086      	sub	sp, #24
 8002d20:	af00      	add	r7, sp, #0
 8002d22:	6078      	str	r0, [r7, #4]
  extern uint8_t _end; /* Symbol defined in the linker script */
  extern uint8_t _estack; /* Symbol defined in the linker script */
  extern uint32_t _Min_Stack_Size; /* Symbol defined in the linker script */
  const uint32_t stack_limit = (uint32_t)&_estack - (uint32_t)&_Min_Stack_Size;
 8002d24:	4a14      	ldr	r2, [pc, #80]	@ (8002d78 <_sbrk+0x5c>)
 8002d26:	4b15      	ldr	r3, [pc, #84]	@ (8002d7c <_sbrk+0x60>)
 8002d28:	1ad3      	subs	r3, r2, r3
 8002d2a:	617b      	str	r3, [r7, #20]
  const uint8_t *max_heap = (uint8_t *)stack_limit;
 8002d2c:	697b      	ldr	r3, [r7, #20]
 8002d2e:	613b      	str	r3, [r7, #16]
  uint8_t *prev_heap_end;

  /* Initialize heap end at first call */
  if (NULL == __sbrk_heap_end)
 8002d30:	4b13      	ldr	r3, [pc, #76]	@ (8002d80 <_sbrk+0x64>)
 8002d32:	681b      	ldr	r3, [r3, #0]
 8002d34:	2b00      	cmp	r3, #0
 8002d36:	d102      	bne.n	8002d3e <_sbrk+0x22>
  {
    __sbrk_heap_end = &_end;
 8002d38:	4b11      	ldr	r3, [pc, #68]	@ (8002d80 <_sbrk+0x64>)
 8002d3a:	4a12      	ldr	r2, [pc, #72]	@ (8002d84 <_sbrk+0x68>)
 8002d3c:	601a      	str	r2, [r3, #0]
  }

  /* Protect heap from growing into the reserved MSP stack */
  if (__sbrk_heap_end + incr > max_heap)
 8002d3e:	4b10      	ldr	r3, [pc, #64]	@ (8002d80 <_sbrk+0x64>)
 8002d40:	681a      	ldr	r2, [r3, #0]
 8002d42:	687b      	ldr	r3, [r7, #4]
 8002d44:	4413      	add	r3, r2
 8002d46:	693a      	ldr	r2, [r7, #16]
 8002d48:	429a      	cmp	r2, r3
 8002d4a:	d207      	bcs.n	8002d5c <_sbrk+0x40>
  {
    errno = ENOMEM;
 8002d4c:	f004 f848 	bl	8006de0 <__errno>
 8002d50:	4603      	mov	r3, r0
 8002d52:	220c      	movs	r2, #12
 8002d54:	601a      	str	r2, [r3, #0]
    return (void *)-1;
 8002d56:	f04f 33ff 	mov.w	r3, #4294967295
 8002d5a:	e009      	b.n	8002d70 <_sbrk+0x54>
  }

  prev_heap_end = __sbrk_heap_end;
 8002d5c:	4b08      	ldr	r3, [pc, #32]	@ (8002d80 <_sbrk+0x64>)
 8002d5e:	681b      	ldr	r3, [r3, #0]
 8002d60:	60fb      	str	r3, [r7, #12]
  __sbrk_heap_end += incr;
 8002d62:	4b07      	ldr	r3, [pc, #28]	@ (8002d80 <_sbrk+0x64>)
 8002d64:	681a      	ldr	r2, [r3, #0]
 8002d66:	687b      	ldr	r3, [r7, #4]
 8002d68:	4413      	add	r3, r2
 8002d6a:	4a05      	ldr	r2, [pc, #20]	@ (8002d80 <_sbrk+0x64>)
 8002d6c:	6013      	str	r3, [r2, #0]

  return (void *)prev_heap_end;
 8002d6e:	68fb      	ldr	r3, [r7, #12]
}
 8002d70:	4618      	mov	r0, r3
 8002d72:	3718      	adds	r7, #24
 8002d74:	46bd      	mov	sp, r7
 8002d76:	bd80      	pop	{r7, pc}
 8002d78:	20005000 	.word	0x20005000
 8002d7c:	00000400 	.word	0x00000400
 8002d80:	20000434 	.word	0x20000434
 8002d84:	200015d0 	.word	0x200015d0

08002d88 <SystemInit>:
  * @note   This function should be used only after reset.
  * @param  None
  * @retval None
  */
void SystemInit (void)
{
 8002d88:	b480      	push	{r7}
 8002d8a:	af00      	add	r7, sp, #0

  /* Configure the Vector Table location -------------------------------------*/
#if defined(USER_VECT_TAB_ADDRESS)
  SCB->VTOR = VECT_TAB_BASE_ADDRESS | VECT_TAB_OFFSET; /* Vector Table Relocation in Internal SRAM. */
#endif /* USER_VECT_TAB_ADDRESS */
}
 8002d8c:	bf00      	nop
 8002d8e:	46bd      	mov	sp, r7
 8002d90:	bc80      	pop	{r7}
 8002d92:	4770      	bx	lr

08002d94 <Protocol_Init>:

/**
 * @brief Initialize UART protocol
 */
Protocol_Status_t Protocol_Init(void)
{
 8002d94:	b580      	push	{r7, lr}
 8002d96:	af00      	add	r7, sp, #0
    if (protocol_state.initialized) {
 8002d98:	4b12      	ldr	r3, [pc, #72]	@ (8002de4 <Protocol_Init+0x50>)
 8002d9a:	f893 3334 	ldrb.w	r3, [r3, #820]	@ 0x334
 8002d9e:	2b00      	cmp	r3, #0
 8002da0:	d001      	beq.n	8002da6 <Protocol_Init+0x12>
        return PROTOCOL_OK;
 8002da2:	2300      	movs	r3, #0
 8002da4:	e01c      	b.n	8002de0 <Protocol_Init+0x4c>
    }

    // Initialize protocol state
    memset(&protocol_state, 0, sizeof(Protocol_State_t));
 8002da6:	f44f 724e 	mov.w	r2, #824	@ 0x338
 8002daa:	2100      	movs	r1, #0
 8002dac:	480d      	ldr	r0, [pc, #52]	@ (8002de4 <Protocol_Init+0x50>)
 8002dae:	f004 f80f 	bl	8006dd0 <memset>

    // Reset RX buffer
    Protocol_ResetRxBuffer();
 8002db2:	f000 fba7 	bl	8003504 <Protocol_ResetRxBuffer>

    // Start UART reception in interrupt mode
    if (HAL_UART_Receive_IT(&huart1, &protocol_state.rx_byte, 1) != HAL_OK) {
 8002db6:	2201      	movs	r2, #1
 8002db8:	490b      	ldr	r1, [pc, #44]	@ (8002de8 <Protocol_Init+0x54>)
 8002dba:	480c      	ldr	r0, [pc, #48]	@ (8002dec <Protocol_Init+0x58>)
 8002dbc:	f003 fa43 	bl	8006246 <HAL_UART_Receive_IT>
 8002dc0:	4603      	mov	r3, r0
 8002dc2:	2b00      	cmp	r3, #0
 8002dc4:	d001      	beq.n	8002dca <Protocol_Init+0x36>
        return PROTOCOL_ERROR;
 8002dc6:	2301      	movs	r3, #1
 8002dc8:	e00a      	b.n	8002de0 <Protocol_Init+0x4c>
    }

    protocol_state.last_heartbeat = HAL_GetTick();
 8002dca:	f000 fe0f 	bl	80039ec <HAL_GetTick>
 8002dce:	4603      	mov	r3, r0
 8002dd0:	4a04      	ldr	r2, [pc, #16]	@ (8002de4 <Protocol_Init+0x50>)
 8002dd2:	f8c2 3330 	str.w	r3, [r2, #816]	@ 0x330
    protocol_state.initialized = true;
 8002dd6:	4b03      	ldr	r3, [pc, #12]	@ (8002de4 <Protocol_Init+0x50>)
 8002dd8:	2201      	movs	r2, #1
 8002dda:	f883 2334 	strb.w	r2, [r3, #820]	@ 0x334

    return PROTOCOL_OK;
 8002dde:	2300      	movs	r3, #0
}
 8002de0:	4618      	mov	r0, r3
 8002de2:	bd80      	pop	{r7, pc}
 8002de4:	20000438 	.word	0x20000438
 8002de8:	2000076d 	.word	0x2000076d
 8002dec:	200002f8 	.word	0x200002f8

08002df0 <Protocol_SendPacket>:

/**
 * @brief Send packet over UART
 */
Protocol_Status_t Protocol_SendPacket(Protocol_Command_t cmd, uint8_t* data, uint8_t len)
{
 8002df0:	b580      	push	{r7, lr}
 8002df2:	f5ad 7d06 	sub.w	sp, sp, #536	@ 0x218
 8002df6:	af00      	add	r7, sp, #0
 8002df8:	f507 7306 	add.w	r3, r7, #536	@ 0x218
 8002dfc:	f5a3 7306 	sub.w	r3, r3, #536	@ 0x218
 8002e00:	6019      	str	r1, [r3, #0]
 8002e02:	4611      	mov	r1, r2
 8002e04:	f507 7306 	add.w	r3, r7, #536	@ 0x218
 8002e08:	f2a3 2311 	subw	r3, r3, #529	@ 0x211
 8002e0c:	4602      	mov	r2, r0
 8002e0e:	701a      	strb	r2, [r3, #0]
 8002e10:	f507 7306 	add.w	r3, r7, #536	@ 0x218
 8002e14:	f2a3 2312 	subw	r3, r3, #530	@ 0x212
 8002e18:	460a      	mov	r2, r1
 8002e1a:	701a      	strb	r2, [r3, #0]
    if (!protocol_state.initialized || len > PROTOCOL_MAX_DATA_LEN) {
 8002e1c:	4b74      	ldr	r3, [pc, #464]	@ (8002ff0 <Protocol_SendPacket+0x200>)
 8002e1e:	f893 3334 	ldrb.w	r3, [r3, #820]	@ 0x334
 8002e22:	f083 0301 	eor.w	r3, r3, #1
 8002e26:	b2db      	uxtb	r3, r3
 8002e28:	2b00      	cmp	r3, #0
 8002e2a:	d001      	beq.n	8002e30 <Protocol_SendPacket+0x40>
        return PROTOCOL_ERROR;
 8002e2c:	2301      	movs	r3, #1
 8002e2e:	e0da      	b.n	8002fe6 <Protocol_SendPacket+0x1f6>
    }

    Protocol_Packet_t packet;
    uint8_t tx_data[PROTOCOL_MAX_DATA_LEN + 6]; // STX + CMD + LEN + DATA + CHK + ETX
    uint16_t tx_len = 0;
 8002e30:	2300      	movs	r3, #0
 8002e32:	f8a7 3216 	strh.w	r3, [r7, #534]	@ 0x216

    // Build packet
    packet.stx = PROTOCOL_STX;
 8002e36:	f507 7306 	add.w	r3, r7, #536	@ 0x218
 8002e3a:	f5a3 7384 	sub.w	r3, r3, #264	@ 0x108
 8002e3e:	2202      	movs	r2, #2
 8002e40:	701a      	strb	r2, [r3, #0]
    packet.cmd = cmd;
 8002e42:	f507 7306 	add.w	r3, r7, #536	@ 0x218
 8002e46:	f5a3 7384 	sub.w	r3, r3, #264	@ 0x108
 8002e4a:	f507 7206 	add.w	r2, r7, #536	@ 0x218
 8002e4e:	f2a2 2211 	subw	r2, r2, #529	@ 0x211
 8002e52:	7812      	ldrb	r2, [r2, #0]
 8002e54:	705a      	strb	r2, [r3, #1]
    packet.len = len;
 8002e56:	f507 7306 	add.w	r3, r7, #536	@ 0x218
 8002e5a:	f5a3 7384 	sub.w	r3, r3, #264	@ 0x108
 8002e5e:	f507 7206 	add.w	r2, r7, #536	@ 0x218
 8002e62:	f2a2 2212 	subw	r2, r2, #530	@ 0x212
 8002e66:	7812      	ldrb	r2, [r2, #0]
 8002e68:	709a      	strb	r2, [r3, #2]
    if (data && len > 0) {
 8002e6a:	f507 7306 	add.w	r3, r7, #536	@ 0x218
 8002e6e:	f5a3 7306 	sub.w	r3, r3, #536	@ 0x218
 8002e72:	681b      	ldr	r3, [r3, #0]
 8002e74:	2b00      	cmp	r3, #0
 8002e76:	d016      	beq.n	8002ea6 <Protocol_SendPacket+0xb6>
 8002e78:	f507 7306 	add.w	r3, r7, #536	@ 0x218
 8002e7c:	f2a3 2312 	subw	r3, r3, #530	@ 0x212
 8002e80:	781b      	ldrb	r3, [r3, #0]
 8002e82:	2b00      	cmp	r3, #0
 8002e84:	d00f      	beq.n	8002ea6 <Protocol_SendPacket+0xb6>
        memcpy(packet.data, data, len);
 8002e86:	f507 7306 	add.w	r3, r7, #536	@ 0x218
 8002e8a:	f2a3 2312 	subw	r3, r3, #530	@ 0x212
 8002e8e:	7819      	ldrb	r1, [r3, #0]
 8002e90:	f507 7306 	add.w	r3, r7, #536	@ 0x218
 8002e94:	f5a3 7306 	sub.w	r3, r3, #536	@ 0x218
 8002e98:	f507 7288 	add.w	r2, r7, #272	@ 0x110
 8002e9c:	1cd0      	adds	r0, r2, #3
 8002e9e:	460a      	mov	r2, r1
 8002ea0:	6819      	ldr	r1, [r3, #0]
 8002ea2:	f003 ffc9 	bl	8006e38 <memcpy>
    }
    packet.checksum = Protocol_CalculateChecksum(&packet);
 8002ea6:	f507 7388 	add.w	r3, r7, #272	@ 0x110
 8002eaa:	4618      	mov	r0, r3
 8002eac:	f000 fb40 	bl	8003530 <Protocol_CalculateChecksum>
 8002eb0:	4603      	mov	r3, r0
 8002eb2:	461a      	mov	r2, r3
 8002eb4:	f507 7306 	add.w	r3, r7, #536	@ 0x218
 8002eb8:	f5a3 7384 	sub.w	r3, r3, #264	@ 0x108
 8002ebc:	f883 2103 	strb.w	r2, [r3, #259]	@ 0x103
    packet.etx = PROTOCOL_ETX;
 8002ec0:	f507 7306 	add.w	r3, r7, #536	@ 0x218
 8002ec4:	f5a3 7384 	sub.w	r3, r3, #264	@ 0x108
 8002ec8:	2203      	movs	r2, #3
 8002eca:	f883 2104 	strb.w	r2, [r3, #260]	@ 0x104

    // Serialize packet
    tx_data[tx_len++] = packet.stx;
 8002ece:	f8b7 3216 	ldrh.w	r3, [r7, #534]	@ 0x216
 8002ed2:	1c5a      	adds	r2, r3, #1
 8002ed4:	f8a7 2216 	strh.w	r2, [r7, #534]	@ 0x216
 8002ed8:	461a      	mov	r2, r3
 8002eda:	f507 7306 	add.w	r3, r7, #536	@ 0x218
 8002ede:	f5a3 7384 	sub.w	r3, r3, #264	@ 0x108
 8002ee2:	7819      	ldrb	r1, [r3, #0]
 8002ee4:	f507 7306 	add.w	r3, r7, #536	@ 0x218
 8002ee8:	f5a3 7304 	sub.w	r3, r3, #528	@ 0x210
 8002eec:	5499      	strb	r1, [r3, r2]
    tx_data[tx_len++] = packet.cmd;
 8002eee:	f8b7 3216 	ldrh.w	r3, [r7, #534]	@ 0x216
 8002ef2:	1c5a      	adds	r2, r3, #1
 8002ef4:	f8a7 2216 	strh.w	r2, [r7, #534]	@ 0x216
 8002ef8:	461a      	mov	r2, r3
 8002efa:	f507 7306 	add.w	r3, r7, #536	@ 0x218
 8002efe:	f5a3 7384 	sub.w	r3, r3, #264	@ 0x108
 8002f02:	7859      	ldrb	r1, [r3, #1]
 8002f04:	f507 7306 	add.w	r3, r7, #536	@ 0x218
 8002f08:	f5a3 7304 	sub.w	r3, r3, #528	@ 0x210
 8002f0c:	5499      	strb	r1, [r3, r2]
    tx_data[tx_len++] = packet.len;
 8002f0e:	f8b7 3216 	ldrh.w	r3, [r7, #534]	@ 0x216
 8002f12:	1c5a      	adds	r2, r3, #1
 8002f14:	f8a7 2216 	strh.w	r2, [r7, #534]	@ 0x216
 8002f18:	461a      	mov	r2, r3
 8002f1a:	f507 7306 	add.w	r3, r7, #536	@ 0x218
 8002f1e:	f5a3 7384 	sub.w	r3, r3, #264	@ 0x108
 8002f22:	7899      	ldrb	r1, [r3, #2]
 8002f24:	f507 7306 	add.w	r3, r7, #536	@ 0x218
 8002f28:	f5a3 7304 	sub.w	r3, r3, #528	@ 0x210
 8002f2c:	5499      	strb	r1, [r3, r2]

    if (len > 0) {
 8002f2e:	f507 7306 	add.w	r3, r7, #536	@ 0x218
 8002f32:	f2a3 2312 	subw	r3, r3, #530	@ 0x212
 8002f36:	781b      	ldrb	r3, [r3, #0]
 8002f38:	2b00      	cmp	r3, #0
 8002f3a:	d01a      	beq.n	8002f72 <Protocol_SendPacket+0x182>
        memcpy(&tx_data[tx_len], packet.data, len);
 8002f3c:	f8b7 3216 	ldrh.w	r3, [r7, #534]	@ 0x216
 8002f40:	f107 0208 	add.w	r2, r7, #8
 8002f44:	18d0      	adds	r0, r2, r3
 8002f46:	f507 7306 	add.w	r3, r7, #536	@ 0x218
 8002f4a:	f2a3 2312 	subw	r3, r3, #530	@ 0x212
 8002f4e:	781a      	ldrb	r2, [r3, #0]
 8002f50:	f507 7388 	add.w	r3, r7, #272	@ 0x110
 8002f54:	3303      	adds	r3, #3
 8002f56:	4619      	mov	r1, r3
 8002f58:	f003 ff6e 	bl	8006e38 <memcpy>
        tx_len += len;
 8002f5c:	f507 7306 	add.w	r3, r7, #536	@ 0x218
 8002f60:	f2a3 2312 	subw	r3, r3, #530	@ 0x212
 8002f64:	781b      	ldrb	r3, [r3, #0]
 8002f66:	b29a      	uxth	r2, r3
 8002f68:	f8b7 3216 	ldrh.w	r3, [r7, #534]	@ 0x216
 8002f6c:	4413      	add	r3, r2
 8002f6e:	f8a7 3216 	strh.w	r3, [r7, #534]	@ 0x216
    }

    tx_data[tx_len++] = packet.checksum;
 8002f72:	f8b7 3216 	ldrh.w	r3, [r7, #534]	@ 0x216
 8002f76:	1c5a      	adds	r2, r3, #1
 8002f78:	f8a7 2216 	strh.w	r2, [r7, #534]	@ 0x216
 8002f7c:	461a      	mov	r2, r3
 8002f7e:	f507 7306 	add.w	r3, r7, #536	@ 0x218
 8002f82:	f5a3 7384 	sub.w	r3, r3, #264	@ 0x108
 8002f86:	f893 1103 	ldrb.w	r1, [r3, #259]	@ 0x103
 8002f8a:	f507 7306 	add.w	r3, r7, #536	@ 0x218
 8002f8e:	f5a3 7304 	sub.w	r3, r3, #528	@ 0x210
 8002f92:	5499      	strb	r1, [r3, r2]
    tx_data[tx_len++] = packet.etx;
 8002f94:	f8b7 3216 	ldrh.w	r3, [r7, #534]	@ 0x216
 8002f98:	1c5a      	adds	r2, r3, #1
 8002f9a:	f8a7 2216 	strh.w	r2, [r7, #534]	@ 0x216
 8002f9e:	461a      	mov	r2, r3
 8002fa0:	f507 7306 	add.w	r3, r7, #536	@ 0x218
 8002fa4:	f5a3 7384 	sub.w	r3, r3, #264	@ 0x108
 8002fa8:	f893 1104 	ldrb.w	r1, [r3, #260]	@ 0x104
 8002fac:	f507 7306 	add.w	r3, r7, #536	@ 0x218
 8002fb0:	f5a3 7304 	sub.w	r3, r3, #528	@ 0x210
 8002fb4:	5499      	strb	r1, [r3, r2]

    // Transmit
    Protocol_Status_t status = Protocol_TransmitBytes(tx_data, tx_len);
 8002fb6:	f8b7 2216 	ldrh.w	r2, [r7, #534]	@ 0x216
 8002fba:	f107 0308 	add.w	r3, r7, #8
 8002fbe:	4611      	mov	r1, r2
 8002fc0:	4618      	mov	r0, r3
 8002fc2:	f000 fad7 	bl	8003574 <Protocol_TransmitBytes>
 8002fc6:	4603      	mov	r3, r0
 8002fc8:	f887 3215 	strb.w	r3, [r7, #533]	@ 0x215
    if (status == PROTOCOL_OK) {
 8002fcc:	f897 3215 	ldrb.w	r3, [r7, #533]	@ 0x215
 8002fd0:	2b00      	cmp	r3, #0
 8002fd2:	d106      	bne.n	8002fe2 <Protocol_SendPacket+0x1f2>
        protocol_state.stats.packets_sent++;
 8002fd4:	4b06      	ldr	r3, [pc, #24]	@ (8002ff0 <Protocol_SendPacket+0x200>)
 8002fd6:	f8d3 331c 	ldr.w	r3, [r3, #796]	@ 0x31c
 8002fda:	3301      	adds	r3, #1
 8002fdc:	4a04      	ldr	r2, [pc, #16]	@ (8002ff0 <Protocol_SendPacket+0x200>)
 8002fde:	f8c2 331c 	str.w	r3, [r2, #796]	@ 0x31c
    }

    return status;
 8002fe2:	f897 3215 	ldrb.w	r3, [r7, #533]	@ 0x215
}
 8002fe6:	4618      	mov	r0, r3
 8002fe8:	f507 7706 	add.w	r7, r7, #536	@ 0x218
 8002fec:	46bd      	mov	sp, r7
 8002fee:	bd80      	pop	{r7, pc}
 8002ff0:	20000438 	.word	0x20000438

08002ff4 <Protocol_ProcessByte>:

/**
 * @brief Process received UART byte
 */
Protocol_Status_t Protocol_ProcessByte(uint8_t byte)
{
 8002ff4:	b580      	push	{r7, lr}
 8002ff6:	b086      	sub	sp, #24
 8002ff8:	af00      	add	r7, sp, #0
 8002ffa:	4603      	mov	r3, r0
 8002ffc:	71fb      	strb	r3, [r7, #7]
    if (!protocol_state.initialized) {
 8002ffe:	4b6b      	ldr	r3, [pc, #428]	@ (80031ac <Protocol_ProcessByte+0x1b8>)
 8003000:	f893 3334 	ldrb.w	r3, [r3, #820]	@ 0x334
 8003004:	f083 0301 	eor.w	r3, r3, #1
 8003008:	b2db      	uxtb	r3, r3
 800300a:	2b00      	cmp	r3, #0
 800300c:	d001      	beq.n	8003012 <Protocol_ProcessByte+0x1e>
        return PROTOCOL_ERROR;
 800300e:	2301      	movs	r3, #1
 8003010:	e0c8      	b.n	80031a4 <Protocol_ProcessByte+0x1b0>
    }

    Packet_Buffer_t* buf = &protocol_state.rx_buffer;
 8003012:	4b66      	ldr	r3, [pc, #408]	@ (80031ac <Protocol_ProcessByte+0x1b8>)
 8003014:	617b      	str	r3, [r7, #20]
    uint32_t current_time = HAL_GetTick();
 8003016:	f000 fce9 	bl	80039ec <HAL_GetTick>
 800301a:	6138      	str	r0, [r7, #16]

    // Check for timeout
    if (buf->state != PACKET_STATE_WAIT_STX &&
 800301c:	697b      	ldr	r3, [r7, #20]
 800301e:	f893 3105 	ldrb.w	r3, [r3, #261]	@ 0x105
 8003022:	2b00      	cmp	r3, #0
 8003024:	d010      	beq.n	8003048 <Protocol_ProcessByte+0x54>
        (current_time - buf->timeout_timer) > PROTOCOL_TIMEOUT_MS) {
 8003026:	697b      	ldr	r3, [r7, #20]
 8003028:	f8d3 3108 	ldr.w	r3, [r3, #264]	@ 0x108
 800302c:	693a      	ldr	r2, [r7, #16]
 800302e:	1ad3      	subs	r3, r2, r3
    if (buf->state != PACKET_STATE_WAIT_STX &&
 8003030:	f5b3 7f7a 	cmp.w	r3, #1000	@ 0x3e8
 8003034:	d908      	bls.n	8003048 <Protocol_ProcessByte+0x54>
        Protocol_ResetRxBuffer();
 8003036:	f000 fa65 	bl	8003504 <Protocol_ResetRxBuffer>
        protocol_state.stats.timeout_errors++;
 800303a:	4b5c      	ldr	r3, [pc, #368]	@ (80031ac <Protocol_ProcessByte+0x1b8>)
 800303c:	f8d3 3328 	ldr.w	r3, [r3, #808]	@ 0x328
 8003040:	3301      	adds	r3, #1
 8003042:	4a5a      	ldr	r2, [pc, #360]	@ (80031ac <Protocol_ProcessByte+0x1b8>)
 8003044:	f8c2 3328 	str.w	r3, [r2, #808]	@ 0x328
    }

    switch (buf->state) {
 8003048:	697b      	ldr	r3, [r7, #20]
 800304a:	f893 3105 	ldrb.w	r3, [r3, #261]	@ 0x105
 800304e:	2b05      	cmp	r3, #5
 8003050:	f200 80a1 	bhi.w	8003196 <Protocol_ProcessByte+0x1a2>
 8003054:	a201      	add	r2, pc, #4	@ (adr r2, 800305c <Protocol_ProcessByte+0x68>)
 8003056:	f852 f023 	ldr.w	pc, [r2, r3, lsl #2]
 800305a:	bf00      	nop
 800305c:	08003075 	.word	0x08003075
 8003060:	08003095 	.word	0x08003095
 8003064:	080030a5 	.word	0x080030a5
 8003068:	080030cd 	.word	0x080030cd
 800306c:	08003121 	.word	0x08003121
 8003070:	08003133 	.word	0x08003133
        case PACKET_STATE_WAIT_STX:
            if (byte == PROTOCOL_STX) {
 8003074:	79fb      	ldrb	r3, [r7, #7]
 8003076:	2b02      	cmp	r3, #2
 8003078:	f040 8090 	bne.w	800319c <Protocol_ProcessByte+0x1a8>
                buf->packet.stx = byte;
 800307c:	697b      	ldr	r3, [r7, #20]
 800307e:	79fa      	ldrb	r2, [r7, #7]
 8003080:	701a      	strb	r2, [r3, #0]
                buf->state = PACKET_STATE_WAIT_CMD;
 8003082:	697b      	ldr	r3, [r7, #20]
 8003084:	2201      	movs	r2, #1
 8003086:	f883 2105 	strb.w	r2, [r3, #261]	@ 0x105
                buf->timeout_timer = current_time;
 800308a:	697b      	ldr	r3, [r7, #20]
 800308c:	693a      	ldr	r2, [r7, #16]
 800308e:	f8c3 2108 	str.w	r2, [r3, #264]	@ 0x108
            }
            break;
 8003092:	e083      	b.n	800319c <Protocol_ProcessByte+0x1a8>

        case PACKET_STATE_WAIT_CMD:
            buf->packet.cmd = byte;
 8003094:	697b      	ldr	r3, [r7, #20]
 8003096:	79fa      	ldrb	r2, [r7, #7]
 8003098:	705a      	strb	r2, [r3, #1]
            buf->state = PACKET_STATE_WAIT_LEN;
 800309a:	697b      	ldr	r3, [r7, #20]
 800309c:	2202      	movs	r2, #2
 800309e:	f883 2105 	strb.w	r2, [r3, #261]	@ 0x105
            break;
 80030a2:	e07e      	b.n	80031a2 <Protocol_ProcessByte+0x1ae>

        case PACKET_STATE_WAIT_LEN:
            buf->packet.len = byte;
 80030a4:	697b      	ldr	r3, [r7, #20]
 80030a6:	79fa      	ldrb	r2, [r7, #7]
 80030a8:	709a      	strb	r2, [r3, #2]
            buf->data_index = 0;
 80030aa:	697b      	ldr	r3, [r7, #20]
 80030ac:	2200      	movs	r2, #0
 80030ae:	f883 2106 	strb.w	r2, [r3, #262]	@ 0x106
            if (byte > 0) {
 80030b2:	79fb      	ldrb	r3, [r7, #7]
 80030b4:	2b00      	cmp	r3, #0
 80030b6:	d004      	beq.n	80030c2 <Protocol_ProcessByte+0xce>
                buf->state = PACKET_STATE_WAIT_DATA;
 80030b8:	697b      	ldr	r3, [r7, #20]
 80030ba:	2203      	movs	r2, #3
 80030bc:	f883 2105 	strb.w	r2, [r3, #261]	@ 0x105
            } else {
                buf->state = PACKET_STATE_WAIT_CHK;
            }
            break;
 80030c0:	e06f      	b.n	80031a2 <Protocol_ProcessByte+0x1ae>
                buf->state = PACKET_STATE_WAIT_CHK;
 80030c2:	697b      	ldr	r3, [r7, #20]
 80030c4:	2204      	movs	r2, #4
 80030c6:	f883 2105 	strb.w	r2, [r3, #261]	@ 0x105
            break;
 80030ca:	e06a      	b.n	80031a2 <Protocol_ProcessByte+0x1ae>

        case PACKET_STATE_WAIT_DATA:
            if (buf->data_index < buf->packet.len) {
 80030cc:	697b      	ldr	r3, [r7, #20]
 80030ce:	f893 2106 	ldrb.w	r2, [r3, #262]	@ 0x106
 80030d2:	697b      	ldr	r3, [r7, #20]
 80030d4:	789b      	ldrb	r3, [r3, #2]
 80030d6:	429a      	cmp	r2, r3
 80030d8:	d218      	bcs.n	800310c <Protocol_ProcessByte+0x118>
                buf->packet.data[buf->data_index++] = byte;
 80030da:	697b      	ldr	r3, [r7, #20]
 80030dc:	f893 3106 	ldrb.w	r3, [r3, #262]	@ 0x106
 80030e0:	1c5a      	adds	r2, r3, #1
 80030e2:	b2d1      	uxtb	r1, r2
 80030e4:	697a      	ldr	r2, [r7, #20]
 80030e6:	f882 1106 	strb.w	r1, [r2, #262]	@ 0x106
 80030ea:	461a      	mov	r2, r3
 80030ec:	697b      	ldr	r3, [r7, #20]
 80030ee:	4413      	add	r3, r2
 80030f0:	79fa      	ldrb	r2, [r7, #7]
 80030f2:	70da      	strb	r2, [r3, #3]
                if (buf->data_index >= buf->packet.len) {
 80030f4:	697b      	ldr	r3, [r7, #20]
 80030f6:	f893 2106 	ldrb.w	r2, [r3, #262]	@ 0x106
 80030fa:	697b      	ldr	r3, [r7, #20]
 80030fc:	789b      	ldrb	r3, [r3, #2]
 80030fe:	429a      	cmp	r2, r3
 8003100:	d34e      	bcc.n	80031a0 <Protocol_ProcessByte+0x1ac>
                    buf->state = PACKET_STATE_WAIT_CHK;
 8003102:	697b      	ldr	r3, [r7, #20]
 8003104:	2204      	movs	r2, #4
 8003106:	f883 2105 	strb.w	r2, [r3, #261]	@ 0x105
            } else {
                // Data overflow
                Protocol_ResetRxBuffer();
                protocol_state.stats.buffer_overruns++;
            }
            break;
 800310a:	e049      	b.n	80031a0 <Protocol_ProcessByte+0x1ac>
                Protocol_ResetRxBuffer();
 800310c:	f000 f9fa 	bl	8003504 <Protocol_ResetRxBuffer>
                protocol_state.stats.buffer_overruns++;
 8003110:	4b26      	ldr	r3, [pc, #152]	@ (80031ac <Protocol_ProcessByte+0x1b8>)
 8003112:	f8d3 332c 	ldr.w	r3, [r3, #812]	@ 0x32c
 8003116:	3301      	adds	r3, #1
 8003118:	4a24      	ldr	r2, [pc, #144]	@ (80031ac <Protocol_ProcessByte+0x1b8>)
 800311a:	f8c2 332c 	str.w	r3, [r2, #812]	@ 0x32c
            break;
 800311e:	e03f      	b.n	80031a0 <Protocol_ProcessByte+0x1ac>

        case PACKET_STATE_WAIT_CHK:
            buf->packet.checksum = byte;
 8003120:	697b      	ldr	r3, [r7, #20]
 8003122:	79fa      	ldrb	r2, [r7, #7]
 8003124:	f883 2103 	strb.w	r2, [r3, #259]	@ 0x103
            buf->state = PACKET_STATE_WAIT_ETX;
 8003128:	697b      	ldr	r3, [r7, #20]
 800312a:	2205      	movs	r2, #5
 800312c:	f883 2105 	strb.w	r2, [r3, #261]	@ 0x105
            break;
 8003130:	e037      	b.n	80031a2 <Protocol_ProcessByte+0x1ae>

        case PACKET_STATE_WAIT_ETX:
            if (byte == PROTOCOL_ETX) {
 8003132:	79fb      	ldrb	r3, [r7, #7]
 8003134:	2b03      	cmp	r3, #3
 8003136:	d12b      	bne.n	8003190 <Protocol_ProcessByte+0x19c>
                buf->packet.etx = byte;
 8003138:	697b      	ldr	r3, [r7, #20]
 800313a:	79fa      	ldrb	r2, [r7, #7]
 800313c:	f883 2104 	strb.w	r2, [r3, #260]	@ 0x104
                buf->state = PACKET_STATE_COMPLETE;
 8003140:	697b      	ldr	r3, [r7, #20]
 8003142:	2206      	movs	r2, #6
 8003144:	f883 2105 	strb.w	r2, [r3, #261]	@ 0x105

                // Verify checksum
                uint8_t calc_checksum = Protocol_CalculateChecksum(&buf->packet);
 8003148:	697b      	ldr	r3, [r7, #20]
 800314a:	4618      	mov	r0, r3
 800314c:	f000 f9f0 	bl	8003530 <Protocol_CalculateChecksum>
 8003150:	4603      	mov	r3, r0
 8003152:	73fb      	strb	r3, [r7, #15]
                if (calc_checksum == buf->packet.checksum) {
 8003154:	697b      	ldr	r3, [r7, #20]
 8003156:	f893 3103 	ldrb.w	r3, [r3, #259]	@ 0x103
 800315a:	7bfa      	ldrb	r2, [r7, #15]
 800315c:	429a      	cmp	r2, r3
 800315e:	d10d      	bne.n	800317c <Protocol_ProcessByte+0x188>
                    buf->packet_ready = true;
 8003160:	697b      	ldr	r3, [r7, #20]
 8003162:	2201      	movs	r2, #1
 8003164:	f883 210c 	strb.w	r2, [r3, #268]	@ 0x10c
                    protocol_state.stats.packets_received++;
 8003168:	4b10      	ldr	r3, [pc, #64]	@ (80031ac <Protocol_ProcessByte+0x1b8>)
 800316a:	f8d3 3320 	ldr.w	r3, [r3, #800]	@ 0x320
 800316e:	3301      	adds	r3, #1
 8003170:	4a0e      	ldr	r2, [pc, #56]	@ (80031ac <Protocol_ProcessByte+0x1b8>)
 8003172:	f8c2 3320 	str.w	r3, [r2, #800]	@ 0x320
                    Protocol_HandleCompletePacket();
 8003176:	f000 fa21 	bl	80035bc <Protocol_HandleCompletePacket>
                }
            } else {
                // Invalid ETX
                Protocol_ResetRxBuffer();
            }
            break;
 800317a:	e012      	b.n	80031a2 <Protocol_ProcessByte+0x1ae>
                    protocol_state.stats.checksum_errors++;
 800317c:	4b0b      	ldr	r3, [pc, #44]	@ (80031ac <Protocol_ProcessByte+0x1b8>)
 800317e:	f8d3 3324 	ldr.w	r3, [r3, #804]	@ 0x324
 8003182:	3301      	adds	r3, #1
 8003184:	4a09      	ldr	r2, [pc, #36]	@ (80031ac <Protocol_ProcessByte+0x1b8>)
 8003186:	f8c2 3324 	str.w	r3, [r2, #804]	@ 0x324
                    Protocol_ResetRxBuffer();
 800318a:	f000 f9bb 	bl	8003504 <Protocol_ResetRxBuffer>
            break;
 800318e:	e008      	b.n	80031a2 <Protocol_ProcessByte+0x1ae>
                Protocol_ResetRxBuffer();
 8003190:	f000 f9b8 	bl	8003504 <Protocol_ResetRxBuffer>
            break;
 8003194:	e005      	b.n	80031a2 <Protocol_ProcessByte+0x1ae>

        default:
            Protocol_ResetRxBuffer();
 8003196:	f000 f9b5 	bl	8003504 <Protocol_ResetRxBuffer>
            break;
 800319a:	e002      	b.n	80031a2 <Protocol_ProcessByte+0x1ae>
            break;
 800319c:	bf00      	nop
 800319e:	e000      	b.n	80031a2 <Protocol_ProcessByte+0x1ae>
            break;
 80031a0:	bf00      	nop
    }

    return PROTOCOL_OK;
 80031a2:	2300      	movs	r3, #0
}
 80031a4:	4618      	mov	r0, r3
 80031a6:	3718      	adds	r7, #24
 80031a8:	46bd      	mov	sp, r7
 80031aa:	bd80      	pop	{r7, pc}
 80031ac:	20000438 	.word	0x20000438

080031b0 <Protocol_RegisterCallback>:

/**
 * @brief Register callback for received packets
 */
Protocol_Status_t Protocol_RegisterCallback(Protocol_Callback_t callback)
{
 80031b0:	b480      	push	{r7}
 80031b2:	b083      	sub	sp, #12
 80031b4:	af00      	add	r7, sp, #0
 80031b6:	6078      	str	r0, [r7, #4]
    if (!protocol_state.initialized) {
 80031b8:	4b09      	ldr	r3, [pc, #36]	@ (80031e0 <Protocol_RegisterCallback+0x30>)
 80031ba:	f893 3334 	ldrb.w	r3, [r3, #820]	@ 0x334
 80031be:	f083 0301 	eor.w	r3, r3, #1
 80031c2:	b2db      	uxtb	r3, r3
 80031c4:	2b00      	cmp	r3, #0
 80031c6:	d001      	beq.n	80031cc <Protocol_RegisterCallback+0x1c>
        return PROTOCOL_ERROR;
 80031c8:	2301      	movs	r3, #1
 80031ca:	e004      	b.n	80031d6 <Protocol_RegisterCallback+0x26>
    }

    protocol_state.callback = callback;
 80031cc:	4a04      	ldr	r2, [pc, #16]	@ (80031e0 <Protocol_RegisterCallback+0x30>)
 80031ce:	687b      	ldr	r3, [r7, #4]
 80031d0:	f8c2 3318 	str.w	r3, [r2, #792]	@ 0x318
    return PROTOCOL_OK;
 80031d4:	2300      	movs	r3, #0
}
 80031d6:	4618      	mov	r0, r3
 80031d8:	370c      	adds	r7, #12
 80031da:	46bd      	mov	sp, r7
 80031dc:	bc80      	pop	{r7}
 80031de:	4770      	bx	lr
 80031e0:	20000438 	.word	0x20000438

080031e4 <Protocol_SendAck>:

/**
 * @brief Send acknowledgment packet
 */
Protocol_Status_t Protocol_SendAck(Protocol_Command_t original_cmd, uint8_t status)
{
 80031e4:	b580      	push	{r7, lr}
 80031e6:	b084      	sub	sp, #16
 80031e8:	af00      	add	r7, sp, #0
 80031ea:	4603      	mov	r3, r0
 80031ec:	460a      	mov	r2, r1
 80031ee:	71fb      	strb	r3, [r7, #7]
 80031f0:	4613      	mov	r3, r2
 80031f2:	71bb      	strb	r3, [r7, #6]
    uint8_t ack_data[2] = {original_cmd, status};
 80031f4:	79fb      	ldrb	r3, [r7, #7]
 80031f6:	733b      	strb	r3, [r7, #12]
 80031f8:	79bb      	ldrb	r3, [r7, #6]
 80031fa:	737b      	strb	r3, [r7, #13]
    return Protocol_SendPacket(CMD_ACK, ack_data, sizeof(ack_data));
 80031fc:	f107 030c 	add.w	r3, r7, #12
 8003200:	2202      	movs	r2, #2
 8003202:	4619      	mov	r1, r3
 8003204:	2008      	movs	r0, #8
 8003206:	f7ff fdf3 	bl	8002df0 <Protocol_SendPacket>
 800320a:	4603      	mov	r3, r0
}
 800320c:	4618      	mov	r0, r3
 800320e:	3710      	adds	r7, #16
 8003210:	46bd      	mov	sp, r7
 8003212:	bd80      	pop	{r7, pc}

08003214 <Protocol_SendError>:

/**
 * @brief Send error packet
 */
Protocol_Status_t Protocol_SendError(uint8_t error_code, uint8_t* error_data, uint8_t error_len)
{
 8003214:	b580      	push	{r7, lr}
 8003216:	b0c2      	sub	sp, #264	@ 0x108
 8003218:	af00      	add	r7, sp, #0
 800321a:	f507 7384 	add.w	r3, r7, #264	@ 0x108
 800321e:	f5a3 7384 	sub.w	r3, r3, #264	@ 0x108
 8003222:	6019      	str	r1, [r3, #0]
 8003224:	4611      	mov	r1, r2
 8003226:	f507 7384 	add.w	r3, r7, #264	@ 0x108
 800322a:	f2a3 1301 	subw	r3, r3, #257	@ 0x101
 800322e:	4602      	mov	r2, r0
 8003230:	701a      	strb	r2, [r3, #0]
 8003232:	f507 7384 	add.w	r3, r7, #264	@ 0x108
 8003236:	f5a3 7381 	sub.w	r3, r3, #258	@ 0x102
 800323a:	460a      	mov	r2, r1
 800323c:	701a      	strb	r2, [r3, #0]
    uint8_t err_packet[256];
    err_packet[0] = error_code;
 800323e:	f507 7384 	add.w	r3, r7, #264	@ 0x108
 8003242:	f5a3 7380 	sub.w	r3, r3, #256	@ 0x100
 8003246:	f507 7284 	add.w	r2, r7, #264	@ 0x108
 800324a:	f2a2 1201 	subw	r2, r2, #257	@ 0x101
 800324e:	7812      	ldrb	r2, [r2, #0]
 8003250:	701a      	strb	r2, [r3, #0]

    if (error_data && error_len > 0 && error_len < 255) {
 8003252:	f507 7384 	add.w	r3, r7, #264	@ 0x108
 8003256:	f5a3 7384 	sub.w	r3, r3, #264	@ 0x108
 800325a:	681b      	ldr	r3, [r3, #0]
 800325c:	2b00      	cmp	r3, #0
 800325e:	d029      	beq.n	80032b4 <Protocol_SendError+0xa0>
 8003260:	f507 7384 	add.w	r3, r7, #264	@ 0x108
 8003264:	f5a3 7381 	sub.w	r3, r3, #258	@ 0x102
 8003268:	781b      	ldrb	r3, [r3, #0]
 800326a:	2b00      	cmp	r3, #0
 800326c:	d022      	beq.n	80032b4 <Protocol_SendError+0xa0>
 800326e:	f507 7384 	add.w	r3, r7, #264	@ 0x108
 8003272:	f5a3 7381 	sub.w	r3, r3, #258	@ 0x102
 8003276:	781b      	ldrb	r3, [r3, #0]
 8003278:	2bff      	cmp	r3, #255	@ 0xff
 800327a:	d01b      	beq.n	80032b4 <Protocol_SendError+0xa0>
        memcpy(&err_packet[1], error_data, error_len);
 800327c:	f507 7384 	add.w	r3, r7, #264	@ 0x108
 8003280:	f5a3 7381 	sub.w	r3, r3, #258	@ 0x102
 8003284:	7819      	ldrb	r1, [r3, #0]
 8003286:	f507 7384 	add.w	r3, r7, #264	@ 0x108
 800328a:	f5a3 7384 	sub.w	r3, r3, #264	@ 0x108
 800328e:	f107 0208 	add.w	r2, r7, #8
 8003292:	1c50      	adds	r0, r2, #1
 8003294:	460a      	mov	r2, r1
 8003296:	6819      	ldr	r1, [r3, #0]
 8003298:	f003 fdce 	bl	8006e38 <memcpy>
        error_len += 1;
 800329c:	f507 7384 	add.w	r3, r7, #264	@ 0x108
 80032a0:	f5a3 7381 	sub.w	r3, r3, #258	@ 0x102
 80032a4:	f507 7284 	add.w	r2, r7, #264	@ 0x108
 80032a8:	f5a2 7281 	sub.w	r2, r2, #258	@ 0x102
 80032ac:	7812      	ldrb	r2, [r2, #0]
 80032ae:	3201      	adds	r2, #1
 80032b0:	701a      	strb	r2, [r3, #0]
 80032b2:	e005      	b.n	80032c0 <Protocol_SendError+0xac>
    } else {
        error_len = 1;
 80032b4:	f507 7384 	add.w	r3, r7, #264	@ 0x108
 80032b8:	f5a3 7381 	sub.w	r3, r3, #258	@ 0x102
 80032bc:	2201      	movs	r2, #1
 80032be:	701a      	strb	r2, [r3, #0]
    }

    return Protocol_SendPacket(CMD_ERROR, err_packet, error_len);
 80032c0:	f507 7384 	add.w	r3, r7, #264	@ 0x108
 80032c4:	f5a3 7381 	sub.w	r3, r3, #258	@ 0x102
 80032c8:	781a      	ldrb	r2, [r3, #0]
 80032ca:	f107 0308 	add.w	r3, r7, #8
 80032ce:	4619      	mov	r1, r3
 80032d0:	20ff      	movs	r0, #255	@ 0xff
 80032d2:	f7ff fd8d 	bl	8002df0 <Protocol_SendPacket>
 80032d6:	4603      	mov	r3, r0
}
 80032d8:	4618      	mov	r0, r3
 80032da:	f507 7784 	add.w	r7, r7, #264	@ 0x108
 80032de:	46bd      	mov	sp, r7
 80032e0:	bd80      	pop	{r7, pc}
	...

080032e4 <Protocol_SendHeartbeat>:

/**
 * @brief Send heartbeat packet
 */
Protocol_Status_t Protocol_SendHeartbeat(void)
{
 80032e4:	b580      	push	{r7, lr}
 80032e6:	b082      	sub	sp, #8
 80032e8:	af00      	add	r7, sp, #0
    uint32_t uptime = HAL_GetTick() / 1000; // Convert to seconds
 80032ea:	f000 fb7f 	bl	80039ec <HAL_GetTick>
 80032ee:	4603      	mov	r3, r0
 80032f0:	4a07      	ldr	r2, [pc, #28]	@ (8003310 <Protocol_SendHeartbeat+0x2c>)
 80032f2:	fba2 2303 	umull	r2, r3, r2, r3
 80032f6:	099b      	lsrs	r3, r3, #6
 80032f8:	607b      	str	r3, [r7, #4]
    return Protocol_SendPacket(CMD_HEARTBEAT, (uint8_t*)&uptime, sizeof(uptime));
 80032fa:	1d3b      	adds	r3, r7, #4
 80032fc:	2204      	movs	r2, #4
 80032fe:	4619      	mov	r1, r3
 8003300:	2007      	movs	r0, #7
 8003302:	f7ff fd75 	bl	8002df0 <Protocol_SendPacket>
 8003306:	4603      	mov	r3, r0
}
 8003308:	4618      	mov	r0, r3
 800330a:	3708      	adds	r7, #8
 800330c:	46bd      	mov	sp, r7
 800330e:	bd80      	pop	{r7, pc}
 8003310:	10624dd3 	.word	0x10624dd3

08003314 <Protocol_Task>:

/**
 * @brief Process protocol timeouts and maintenance
 */
void Protocol_Task(void)
{
 8003314:	b580      	push	{r7, lr}
 8003316:	b082      	sub	sp, #8
 8003318:	af00      	add	r7, sp, #0
    if (!protocol_state.initialized) {
 800331a:	4b1b      	ldr	r3, [pc, #108]	@ (8003388 <Protocol_Task+0x74>)
 800331c:	f893 3334 	ldrb.w	r3, [r3, #820]	@ 0x334
 8003320:	f083 0301 	eor.w	r3, r3, #1
 8003324:	b2db      	uxtb	r3, r3
 8003326:	2b00      	cmp	r3, #0
 8003328:	d12a      	bne.n	8003380 <Protocol_Task+0x6c>
        return;
    }

    uint32_t current_time = HAL_GetTick();
 800332a:	f000 fb5f 	bl	80039ec <HAL_GetTick>
 800332e:	6078      	str	r0, [r7, #4]

    // Send periodic heartbeat
    if ((current_time - protocol_state.last_heartbeat) >= PROTOCOL_HEARTBEAT_INTERVAL_MS) {
 8003330:	4b15      	ldr	r3, [pc, #84]	@ (8003388 <Protocol_Task+0x74>)
 8003332:	f8d3 3330 	ldr.w	r3, [r3, #816]	@ 0x330
 8003336:	687a      	ldr	r2, [r7, #4]
 8003338:	1ad3      	subs	r3, r2, r3
 800333a:	f241 3287 	movw	r2, #4999	@ 0x1387
 800333e:	4293      	cmp	r3, r2
 8003340:	d905      	bls.n	800334e <Protocol_Task+0x3a>
        Protocol_SendHeartbeat();
 8003342:	f7ff ffcf 	bl	80032e4 <Protocol_SendHeartbeat>
        protocol_state.last_heartbeat = current_time;
 8003346:	4a10      	ldr	r2, [pc, #64]	@ (8003388 <Protocol_Task+0x74>)
 8003348:	687b      	ldr	r3, [r7, #4]
 800334a:	f8c2 3330 	str.w	r3, [r2, #816]	@ 0x330
    }

    // Check for RX timeout
    Packet_Buffer_t* buf = &protocol_state.rx_buffer;
 800334e:	4b0e      	ldr	r3, [pc, #56]	@ (8003388 <Protocol_Task+0x74>)
 8003350:	603b      	str	r3, [r7, #0]
    if (buf->state != PACKET_STATE_WAIT_STX &&
 8003352:	683b      	ldr	r3, [r7, #0]
 8003354:	f893 3105 	ldrb.w	r3, [r3, #261]	@ 0x105
 8003358:	2b00      	cmp	r3, #0
 800335a:	d012      	beq.n	8003382 <Protocol_Task+0x6e>
        (current_time - buf->timeout_timer) > PROTOCOL_TIMEOUT_MS) {
 800335c:	683b      	ldr	r3, [r7, #0]
 800335e:	f8d3 3108 	ldr.w	r3, [r3, #264]	@ 0x108
 8003362:	687a      	ldr	r2, [r7, #4]
 8003364:	1ad3      	subs	r3, r2, r3
    if (buf->state != PACKET_STATE_WAIT_STX &&
 8003366:	f5b3 7f7a 	cmp.w	r3, #1000	@ 0x3e8
 800336a:	d90a      	bls.n	8003382 <Protocol_Task+0x6e>
        Protocol_ResetRxBuffer();
 800336c:	f000 f8ca 	bl	8003504 <Protocol_ResetRxBuffer>
        protocol_state.stats.timeout_errors++;
 8003370:	4b05      	ldr	r3, [pc, #20]	@ (8003388 <Protocol_Task+0x74>)
 8003372:	f8d3 3328 	ldr.w	r3, [r3, #808]	@ 0x328
 8003376:	3301      	adds	r3, #1
 8003378:	4a03      	ldr	r2, [pc, #12]	@ (8003388 <Protocol_Task+0x74>)
 800337a:	f8c2 3328 	str.w	r3, [r2, #808]	@ 0x328
 800337e:	e000      	b.n	8003382 <Protocol_Task+0x6e>
        return;
 8003380:	bf00      	nop
    }
}
 8003382:	3708      	adds	r7, #8
 8003384:	46bd      	mov	sp, r7
 8003386:	bd80      	pop	{r7, pc}
 8003388:	20000438 	.word	0x20000438

0800338c <Protocol_SendGameState>:

/**
 * @brief Send current game state
 */
Protocol_Status_t Protocol_SendGameState(const Game_State_Data_t* game_state)
{
 800338c:	b580      	push	{r7, lr}
 800338e:	b082      	sub	sp, #8
 8003390:	af00      	add	r7, sp, #0
 8003392:	6078      	str	r0, [r7, #4]
    if (!game_state) {
 8003394:	687b      	ldr	r3, [r7, #4]
 8003396:	2b00      	cmp	r3, #0
 8003398:	d101      	bne.n	800339e <Protocol_SendGameState+0x12>
        return PROTOCOL_ERROR;
 800339a:	2301      	movs	r3, #1
 800339c:	e005      	b.n	80033aa <Protocol_SendGameState+0x1e>
    }

    return Protocol_SendPacket(CMD_BOARD_STATE, (uint8_t*)game_state, sizeof(Game_State_Data_t));
 800339e:	2248      	movs	r2, #72	@ 0x48
 80033a0:	6879      	ldr	r1, [r7, #4]
 80033a2:	2001      	movs	r0, #1
 80033a4:	f7ff fd24 	bl	8002df0 <Protocol_SendPacket>
 80033a8:	4603      	mov	r3, r0
}
 80033aa:	4618      	mov	r0, r3
 80033ac:	3708      	adds	r7, #8
 80033ae:	46bd      	mov	sp, r7
 80033b0:	bd80      	pop	{r7, pc}

080033b2 <Protocol_SendKeyEvent>:

/**
 * @brief Send key event
 */
Protocol_Status_t Protocol_SendKeyEvent(uint8_t row, uint8_t col, uint8_t state, uint8_t logical_key)
{
 80033b2:	b590      	push	{r4, r7, lr}
 80033b4:	b085      	sub	sp, #20
 80033b6:	af00      	add	r7, sp, #0
 80033b8:	4604      	mov	r4, r0
 80033ba:	4608      	mov	r0, r1
 80033bc:	4611      	mov	r1, r2
 80033be:	461a      	mov	r2, r3
 80033c0:	4623      	mov	r3, r4
 80033c2:	71fb      	strb	r3, [r7, #7]
 80033c4:	4603      	mov	r3, r0
 80033c6:	71bb      	strb	r3, [r7, #6]
 80033c8:	460b      	mov	r3, r1
 80033ca:	717b      	strb	r3, [r7, #5]
 80033cc:	4613      	mov	r3, r2
 80033ce:	713b      	strb	r3, [r7, #4]
    Key_Event_Data_t key_event = {
 80033d0:	79fb      	ldrb	r3, [r7, #7]
 80033d2:	723b      	strb	r3, [r7, #8]
 80033d4:	79bb      	ldrb	r3, [r7, #6]
 80033d6:	727b      	strb	r3, [r7, #9]
 80033d8:	797b      	ldrb	r3, [r7, #5]
 80033da:	72bb      	strb	r3, [r7, #10]
 80033dc:	793b      	ldrb	r3, [r7, #4]
 80033de:	72fb      	strb	r3, [r7, #11]
        .row = row,
        .col = col,
        .state = state,
        .logical_key = logical_key,
        .timestamp = HAL_GetTick()
 80033e0:	f000 fb04 	bl	80039ec <HAL_GetTick>
 80033e4:	4603      	mov	r3, r0
    Key_Event_Data_t key_event = {
 80033e6:	60fb      	str	r3, [r7, #12]
    };

    return Protocol_SendPacket(CMD_KEY_EVENT, (uint8_t*)&key_event, sizeof(Key_Event_Data_t));
 80033e8:	f107 0308 	add.w	r3, r7, #8
 80033ec:	2208      	movs	r2, #8
 80033ee:	4619      	mov	r1, r3
 80033f0:	200a      	movs	r0, #10
 80033f2:	f7ff fcfd 	bl	8002df0 <Protocol_SendPacket>
 80033f6:	4603      	mov	r3, r0
}
 80033f8:	4618      	mov	r0, r3
 80033fa:	3714      	adds	r7, #20
 80033fc:	46bd      	mov	sp, r7
 80033fe:	bd90      	pop	{r4, r7, pc}

08003400 <Protocol_SendSystemInfo>:

/**
 * @brief Send system information
 */
Protocol_Status_t Protocol_SendSystemInfo(void)
{
 8003400:	b580      	push	{r7, lr}
 8003402:	b086      	sub	sp, #24
 8003404:	af00      	add	r7, sp, #0
    System_Info_Data_t sys_info = {
        .uptime = HAL_GetTick() / 1000,
 8003406:	f000 faf1 	bl	80039ec <HAL_GetTick>
 800340a:	4603      	mov	r3, r0
 800340c:	4a0e      	ldr	r2, [pc, #56]	@ (8003448 <Protocol_SendSystemInfo+0x48>)
 800340e:	fba2 2303 	umull	r2, r3, r2, r3
 8003412:	099b      	lsrs	r3, r3, #6
    System_Info_Data_t sys_info = {
 8003414:	607b      	str	r3, [r7, #4]
 8003416:	4b0d      	ldr	r3, [pc, #52]	@ (800344c <Protocol_SendSystemInfo+0x4c>)
 8003418:	60bb      	str	r3, [r7, #8]
        .firmware_version = {FIRMWARE_VERSION_MAJOR, FIRMWARE_VERSION_MINOR,
                           FIRMWARE_VERSION_PATCH, FIRMWARE_VERSION_BUILD},
        .free_memory = Protocol_GetFreeMemory(),
 800341a:	f000 f8e9 	bl	80035f0 <Protocol_GetFreeMemory>
 800341e:	4603      	mov	r3, r0
    System_Info_Data_t sys_info = {
 8003420:	60fb      	str	r3, [r7, #12]
        .cpu_usage = Protocol_GetCpuUsage(),
 8003422:	f000 f8ed 	bl	8003600 <Protocol_GetCpuUsage>
 8003426:	4603      	mov	r3, r0
    System_Info_Data_t sys_info = {
 8003428:	743b      	strb	r3, [r7, #16]
 800342a:	23c8      	movs	r3, #200	@ 0xc8
 800342c:	827b      	strh	r3, [r7, #18]
 800342e:	231e      	movs	r3, #30
 8003430:	82bb      	strh	r3, [r7, #20]
        .keypad_scans = 200, // Approximate scans per second
        .led_updates = 30    // Approximate updates per second
    };

    return Protocol_SendPacket(CMD_SYSTEM_INFO, (uint8_t*)&sys_info, sizeof(System_Info_Data_t));
 8003432:	1d3b      	adds	r3, r7, #4
 8003434:	2214      	movs	r2, #20
 8003436:	4619      	mov	r1, r3
 8003438:	2005      	movs	r0, #5
 800343a:	f7ff fcd9 	bl	8002df0 <Protocol_SendPacket>
 800343e:	4603      	mov	r3, r0
}
 8003440:	4618      	mov	r0, r3
 8003442:	3718      	adds	r7, #24
 8003444:	46bd      	mov	sp, r7
 8003446:	bd80      	pop	{r7, pc}
 8003448:	10624dd3 	.word	0x10624dd3
 800344c:	01000001 	.word	0x01000001

08003450 <Protocol_SendDebugMessage>:

/**
 * @brief Send debug message
 */
Protocol_Status_t Protocol_SendDebugMessage(const char* message)
{
 8003450:	b580      	push	{r7, lr}
 8003452:	b084      	sub	sp, #16
 8003454:	af00      	add	r7, sp, #0
 8003456:	6078      	str	r0, [r7, #4]
    if (!message) {
 8003458:	687b      	ldr	r3, [r7, #4]
 800345a:	2b00      	cmp	r3, #0
 800345c:	d101      	bne.n	8003462 <Protocol_SendDebugMessage+0x12>
        return PROTOCOL_ERROR;
 800345e:	2301      	movs	r3, #1
 8003460:	e00b      	b.n	800347a <Protocol_SendDebugMessage+0x2a>
    }

    uint8_t len = strlen(message);
 8003462:	6878      	ldr	r0, [r7, #4]
 8003464:	f7fc fe72 	bl	800014c <strlen>
 8003468:	4603      	mov	r3, r0
 800346a:	73fb      	strb	r3, [r7, #15]
    if (len > PROTOCOL_MAX_DATA_LEN) {
        len = PROTOCOL_MAX_DATA_LEN;
    }

    return Protocol_SendPacket(CMD_DEBUG_INFO, (uint8_t*)message, len);
 800346c:	7bfb      	ldrb	r3, [r7, #15]
 800346e:	461a      	mov	r2, r3
 8003470:	6879      	ldr	r1, [r7, #4]
 8003472:	2009      	movs	r0, #9
 8003474:	f7ff fcbc 	bl	8002df0 <Protocol_SendPacket>
 8003478:	4603      	mov	r3, r0
}
 800347a:	4618      	mov	r0, r3
 800347c:	3710      	adds	r7, #16
 800347e:	46bd      	mov	sp, r7
 8003480:	bd80      	pop	{r7, pc}

08003482 <Protocol_SendScoreUpdate>:
/**
 * @brief Send score update
 */
Protocol_Status_t Protocol_SendScoreUpdate(uint8_t black_score, uint8_t white_score,
                                          uint16_t total_score, uint8_t game_result)
{
 8003482:	b590      	push	{r4, r7, lr}
 8003484:	b085      	sub	sp, #20
 8003486:	af00      	add	r7, sp, #0
 8003488:	4604      	mov	r4, r0
 800348a:	4608      	mov	r0, r1
 800348c:	4611      	mov	r1, r2
 800348e:	461a      	mov	r2, r3
 8003490:	4623      	mov	r3, r4
 8003492:	71fb      	strb	r3, [r7, #7]
 8003494:	4603      	mov	r3, r0
 8003496:	71bb      	strb	r3, [r7, #6]
 8003498:	460b      	mov	r3, r1
 800349a:	80bb      	strh	r3, [r7, #4]
 800349c:	4613      	mov	r3, r2
 800349e:	70fb      	strb	r3, [r7, #3]
    Score_Update_Data_t score_data = {
 80034a0:	79fb      	ldrb	r3, [r7, #7]
 80034a2:	723b      	strb	r3, [r7, #8]
 80034a4:	79bb      	ldrb	r3, [r7, #6]
 80034a6:	727b      	strb	r3, [r7, #9]
 80034a8:	88bb      	ldrh	r3, [r7, #4]
 80034aa:	817b      	strh	r3, [r7, #10]
 80034ac:	78fb      	ldrb	r3, [r7, #3]
 80034ae:	733b      	strb	r3, [r7, #12]
        .white_score = white_score,
        .total_score = total_score,
        .game_result = game_result
    };

    return Protocol_SendPacket(CMD_SCORE_UPDATE, (uint8_t*)&score_data, sizeof(Score_Update_Data_t));
 80034b0:	f107 0308 	add.w	r3, r7, #8
 80034b4:	2206      	movs	r2, #6
 80034b6:	4619      	mov	r1, r3
 80034b8:	200e      	movs	r0, #14
 80034ba:	f7ff fc99 	bl	8002df0 <Protocol_SendPacket>
 80034be:	4603      	mov	r3, r0
}
 80034c0:	4618      	mov	r0, r3
 80034c2:	3714      	adds	r7, #20
 80034c4:	46bd      	mov	sp, r7
 80034c6:	bd90      	pop	{r4, r7, pc}

080034c8 <Protocol_UART_RxCallback>:

/**
 * @brief UART RX interrupt callback
 */
void Protocol_UART_RxCallback(UART_HandleTypeDef *huart)
{
 80034c8:	b580      	push	{r7, lr}
 80034ca:	b082      	sub	sp, #8
 80034cc:	af00      	add	r7, sp, #0
 80034ce:	6078      	str	r0, [r7, #4]
    if (huart == &huart1) {
 80034d0:	687b      	ldr	r3, [r7, #4]
 80034d2:	4a09      	ldr	r2, [pc, #36]	@ (80034f8 <Protocol_UART_RxCallback+0x30>)
 80034d4:	4293      	cmp	r3, r2
 80034d6:	d10a      	bne.n	80034ee <Protocol_UART_RxCallback+0x26>
        // Process the received byte
        Protocol_ProcessByte(protocol_state.rx_byte);
 80034d8:	4b08      	ldr	r3, [pc, #32]	@ (80034fc <Protocol_UART_RxCallback+0x34>)
 80034da:	f893 3335 	ldrb.w	r3, [r3, #821]	@ 0x335
 80034de:	4618      	mov	r0, r3
 80034e0:	f7ff fd88 	bl	8002ff4 <Protocol_ProcessByte>

        // Restart reception for next byte
        HAL_UART_Receive_IT(&huart1, &protocol_state.rx_byte, 1);
 80034e4:	2201      	movs	r2, #1
 80034e6:	4906      	ldr	r1, [pc, #24]	@ (8003500 <Protocol_UART_RxCallback+0x38>)
 80034e8:	4803      	ldr	r0, [pc, #12]	@ (80034f8 <Protocol_UART_RxCallback+0x30>)
 80034ea:	f002 feac 	bl	8006246 <HAL_UART_Receive_IT>
    }
}
 80034ee:	bf00      	nop
 80034f0:	3708      	adds	r7, #8
 80034f2:	46bd      	mov	sp, r7
 80034f4:	bd80      	pop	{r7, pc}
 80034f6:	bf00      	nop
 80034f8:	200002f8 	.word	0x200002f8
 80034fc:	20000438 	.word	0x20000438
 8003500:	2000076d 	.word	0x2000076d

08003504 <Protocol_ResetRxBuffer>:

/**
 * @brief Reset reception buffer
 */
static void Protocol_ResetRxBuffer(void)
{
 8003504:	b580      	push	{r7, lr}
 8003506:	b082      	sub	sp, #8
 8003508:	af00      	add	r7, sp, #0
    Packet_Buffer_t* buf = &protocol_state.rx_buffer;
 800350a:	4b08      	ldr	r3, [pc, #32]	@ (800352c <Protocol_ResetRxBuffer+0x28>)
 800350c:	607b      	str	r3, [r7, #4]
    memset(buf, 0, sizeof(Packet_Buffer_t));
 800350e:	f44f 7288 	mov.w	r2, #272	@ 0x110
 8003512:	2100      	movs	r1, #0
 8003514:	6878      	ldr	r0, [r7, #4]
 8003516:	f003 fc5b 	bl	8006dd0 <memset>
    buf->state = PACKET_STATE_WAIT_STX;
 800351a:	687b      	ldr	r3, [r7, #4]
 800351c:	2200      	movs	r2, #0
 800351e:	f883 2105 	strb.w	r2, [r3, #261]	@ 0x105
}
 8003522:	bf00      	nop
 8003524:	3708      	adds	r7, #8
 8003526:	46bd      	mov	sp, r7
 8003528:	bd80      	pop	{r7, pc}
 800352a:	bf00      	nop
 800352c:	20000438 	.word	0x20000438

08003530 <Protocol_CalculateChecksum>:

/**
 * @brief Calculate packet checksum
 */
static uint8_t Protocol_CalculateChecksum(const Protocol_Packet_t* packet)
{
 8003530:	b480      	push	{r7}
 8003532:	b085      	sub	sp, #20
 8003534:	af00      	add	r7, sp, #0
 8003536:	6078      	str	r0, [r7, #4]
    uint8_t checksum = packet->cmd ^ packet->len;
 8003538:	687b      	ldr	r3, [r7, #4]
 800353a:	785a      	ldrb	r2, [r3, #1]
 800353c:	687b      	ldr	r3, [r7, #4]
 800353e:	789b      	ldrb	r3, [r3, #2]
 8003540:	4053      	eors	r3, r2
 8003542:	73fb      	strb	r3, [r7, #15]

    for (uint8_t i = 0; i < packet->len; i++) {
 8003544:	2300      	movs	r3, #0
 8003546:	73bb      	strb	r3, [r7, #14]
 8003548:	e009      	b.n	800355e <Protocol_CalculateChecksum+0x2e>
        checksum ^= packet->data[i];
 800354a:	7bbb      	ldrb	r3, [r7, #14]
 800354c:	687a      	ldr	r2, [r7, #4]
 800354e:	4413      	add	r3, r2
 8003550:	78da      	ldrb	r2, [r3, #3]
 8003552:	7bfb      	ldrb	r3, [r7, #15]
 8003554:	4053      	eors	r3, r2
 8003556:	73fb      	strb	r3, [r7, #15]
    for (uint8_t i = 0; i < packet->len; i++) {
 8003558:	7bbb      	ldrb	r3, [r7, #14]
 800355a:	3301      	adds	r3, #1
 800355c:	73bb      	strb	r3, [r7, #14]
 800355e:	687b      	ldr	r3, [r7, #4]
 8003560:	789b      	ldrb	r3, [r3, #2]
 8003562:	7bba      	ldrb	r2, [r7, #14]
 8003564:	429a      	cmp	r2, r3
 8003566:	d3f0      	bcc.n	800354a <Protocol_CalculateChecksum+0x1a>
    }

    return checksum;
 8003568:	7bfb      	ldrb	r3, [r7, #15]
}
 800356a:	4618      	mov	r0, r3
 800356c:	3714      	adds	r7, #20
 800356e:	46bd      	mov	sp, r7
 8003570:	bc80      	pop	{r7}
 8003572:	4770      	bx	lr

08003574 <Protocol_TransmitBytes>:

/**
 * @brief Transmit bytes over UART
 */
static Protocol_Status_t Protocol_TransmitBytes(uint8_t* data, uint16_t len)
{
 8003574:	b580      	push	{r7, lr}
 8003576:	b084      	sub	sp, #16
 8003578:	af00      	add	r7, sp, #0
 800357a:	6078      	str	r0, [r7, #4]
 800357c:	460b      	mov	r3, r1
 800357e:	807b      	strh	r3, [r7, #2]
    if (!data || len == 0) {
 8003580:	687b      	ldr	r3, [r7, #4]
 8003582:	2b00      	cmp	r3, #0
 8003584:	d002      	beq.n	800358c <Protocol_TransmitBytes+0x18>
 8003586:	887b      	ldrh	r3, [r7, #2]
 8003588:	2b00      	cmp	r3, #0
 800358a:	d101      	bne.n	8003590 <Protocol_TransmitBytes+0x1c>
        return PROTOCOL_ERROR;
 800358c:	2301      	movs	r3, #1
 800358e:	e00e      	b.n	80035ae <Protocol_TransmitBytes+0x3a>
    }

    // Use blocking transmission for simplicity
    // In production, consider using DMA or interrupt-driven TX
    HAL_StatusTypeDef status = HAL_UART_Transmit(&huart1, data, len, 1000);
 8003590:	887a      	ldrh	r2, [r7, #2]
 8003592:	f44f 737a 	mov.w	r3, #1000	@ 0x3e8
 8003596:	6879      	ldr	r1, [r7, #4]
 8003598:	4807      	ldr	r0, [pc, #28]	@ (80035b8 <Protocol_TransmitBytes+0x44>)
 800359a:	f002 fdc9 	bl	8006130 <HAL_UART_Transmit>
 800359e:	4603      	mov	r3, r0
 80035a0:	73fb      	strb	r3, [r7, #15]

    return (status == HAL_OK) ? PROTOCOL_OK : PROTOCOL_ERROR;
 80035a2:	7bfb      	ldrb	r3, [r7, #15]
 80035a4:	2b00      	cmp	r3, #0
 80035a6:	bf14      	ite	ne
 80035a8:	2301      	movne	r3, #1
 80035aa:	2300      	moveq	r3, #0
 80035ac:	b2db      	uxtb	r3, r3
}
 80035ae:	4618      	mov	r0, r3
 80035b0:	3710      	adds	r7, #16
 80035b2:	46bd      	mov	sp, r7
 80035b4:	bd80      	pop	{r7, pc}
 80035b6:	bf00      	nop
 80035b8:	200002f8 	.word	0x200002f8

080035bc <Protocol_HandleCompletePacket>:

/**
 * @brief Handle complete packet reception
 */
static void Protocol_HandleCompletePacket(void)
{
 80035bc:	b580      	push	{r7, lr}
 80035be:	b082      	sub	sp, #8
 80035c0:	af00      	add	r7, sp, #0
    if (protocol_state.callback) {
 80035c2:	4b0a      	ldr	r3, [pc, #40]	@ (80035ec <Protocol_HandleCompletePacket+0x30>)
 80035c4:	f8d3 3318 	ldr.w	r3, [r3, #792]	@ 0x318
 80035c8:	2b00      	cmp	r3, #0
 80035ca:	d00b      	beq.n	80035e4 <Protocol_HandleCompletePacket+0x28>
        Packet_Buffer_t* buf = &protocol_state.rx_buffer;
 80035cc:	4b07      	ldr	r3, [pc, #28]	@ (80035ec <Protocol_HandleCompletePacket+0x30>)
 80035ce:	607b      	str	r3, [r7, #4]
        protocol_state.callback((Protocol_Command_t)buf->packet.cmd,
 80035d0:	4b06      	ldr	r3, [pc, #24]	@ (80035ec <Protocol_HandleCompletePacket+0x30>)
 80035d2:	f8d3 3318 	ldr.w	r3, [r3, #792]	@ 0x318
 80035d6:	687a      	ldr	r2, [r7, #4]
 80035d8:	7850      	ldrb	r0, [r2, #1]
                              buf->packet.data,
 80035da:	687a      	ldr	r2, [r7, #4]
 80035dc:	1cd1      	adds	r1, r2, #3
        protocol_state.callback((Protocol_Command_t)buf->packet.cmd,
 80035de:	687a      	ldr	r2, [r7, #4]
 80035e0:	7892      	ldrb	r2, [r2, #2]
 80035e2:	4798      	blx	r3
                              buf->packet.len);
    }
}
 80035e4:	bf00      	nop
 80035e6:	3708      	adds	r7, #8
 80035e8:	46bd      	mov	sp, r7
 80035ea:	bd80      	pop	{r7, pc}
 80035ec:	20000438 	.word	0x20000438

080035f0 <Protocol_GetFreeMemory>:

/**
 * @brief Get approximate free memory (placeholder)
 */
static uint32_t Protocol_GetFreeMemory(void)
{
 80035f0:	b480      	push	{r7}
 80035f2:	af00      	add	r7, sp, #0
    // Simplified memory estimation
    // In production, implement proper heap monitoring
    return 1024; // Placeholder value
 80035f4:	f44f 6380 	mov.w	r3, #1024	@ 0x400
}
 80035f8:	4618      	mov	r0, r3
 80035fa:	46bd      	mov	sp, r7
 80035fc:	bc80      	pop	{r7}
 80035fe:	4770      	bx	lr

08003600 <Protocol_GetCpuUsage>:

/**
 * @brief Get approximate CPU usage (placeholder)
 */
static uint8_t Protocol_GetCpuUsage(void)
{
 8003600:	b480      	push	{r7}
 8003602:	af00      	add	r7, sp, #0
    // Simplified CPU usage estimation
    // In production, implement proper CPU load monitoring
    return 25; // Placeholder value (25%)
 8003604:	2319      	movs	r3, #25
 8003606:	4618      	mov	r0, r3
 8003608:	46bd      	mov	sp, r7
 800360a:	bc80      	pop	{r7}
 800360c:	4770      	bx	lr
	...

08003610 <WS2812B_Init>:

/**
 * @brief Initialize WS2812B driver
 */
WS2812B_Status_t WS2812B_Init(void)
{
 8003610:	b580      	push	{r7, lr}
 8003612:	b082      	sub	sp, #8
 8003614:	af00      	add	r7, sp, #0
    /* Check if TIM2 and DMA are properly configured */
    if (htim2.Instance != TIM2) {
 8003616:	4b18      	ldr	r3, [pc, #96]	@ (8003678 <WS2812B_Init+0x68>)
 8003618:	681b      	ldr	r3, [r3, #0]
 800361a:	f1b3 4f80 	cmp.w	r3, #1073741824	@ 0x40000000
 800361e:	d001      	beq.n	8003624 <WS2812B_Init+0x14>
        return WS2812B_ERROR;
 8003620:	2301      	movs	r3, #1
 8003622:	e024      	b.n	800366e <WS2812B_Init+0x5e>
    }

    /* Clear all buffers */
    memset(pwm_buffer, 0, sizeof(pwm_buffer));
 8003624:	f44f 6245 	mov.w	r2, #3152	@ 0xc50
 8003628:	2100      	movs	r1, #0
 800362a:	4814      	ldr	r0, [pc, #80]	@ (800367c <WS2812B_Init+0x6c>)
 800362c:	f003 fbd0 	bl	8006dd0 <memset>
    memset(led_buffer, 0, sizeof(led_buffer));
 8003630:	22c0      	movs	r2, #192	@ 0xc0
 8003632:	2100      	movs	r1, #0
 8003634:	4812      	ldr	r0, [pc, #72]	@ (8003680 <WS2812B_Init+0x70>)
 8003636:	f003 fbcb 	bl	8006dd0 <memset>

    /* Initialize reset pulse at the end of buffer */
    for (uint16_t i = WS2812B_LED_COUNT * WS2812B_BITS_PER_LED; i < WS2812B_BUFFER_SIZE; i++) {
 800363a:	f44f 63c0 	mov.w	r3, #1536	@ 0x600
 800363e:	80fb      	strh	r3, [r7, #6]
 8003640:	e007      	b.n	8003652 <WS2812B_Init+0x42>
        pwm_buffer[i] = WS2812B_RESET_VAL;
 8003642:	88fb      	ldrh	r3, [r7, #6]
 8003644:	4a0d      	ldr	r2, [pc, #52]	@ (800367c <WS2812B_Init+0x6c>)
 8003646:	2100      	movs	r1, #0
 8003648:	f822 1013 	strh.w	r1, [r2, r3, lsl #1]
    for (uint16_t i = WS2812B_LED_COUNT * WS2812B_BITS_PER_LED; i < WS2812B_BUFFER_SIZE; i++) {
 800364c:	88fb      	ldrh	r3, [r7, #6]
 800364e:	3301      	adds	r3, #1
 8003650:	80fb      	strh	r3, [r7, #6]
 8003652:	88fb      	ldrh	r3, [r7, #6]
 8003654:	f5b3 6fc5 	cmp.w	r3, #1576	@ 0x628
 8003658:	d3f3      	bcc.n	8003642 <WS2812B_Init+0x32>
    }

    /* Set driver state */
    ws2812b_state.brightness = WS2812B_DEFAULT_BRIGHTNESS;
 800365a:	4b0a      	ldr	r3, [pc, #40]	@ (8003684 <WS2812B_Init+0x74>)
 800365c:	22ff      	movs	r2, #255	@ 0xff
 800365e:	701a      	strb	r2, [r3, #0]
    ws2812b_state.is_busy = 0;
 8003660:	4b08      	ldr	r3, [pc, #32]	@ (8003684 <WS2812B_Init+0x74>)
 8003662:	2200      	movs	r2, #0
 8003664:	705a      	strb	r2, [r3, #1]
    ws2812b_state.initialized = 1;
 8003666:	4b07      	ldr	r3, [pc, #28]	@ (8003684 <WS2812B_Init+0x74>)
 8003668:	2201      	movs	r2, #1
 800366a:	709a      	strb	r2, [r3, #2]

    /* PWM will be started together with DMA in WS2812B_Update() */
    /* Don't start PWM here to avoid HAL_TIM_PWM_Start_DMA() failure */
    /* This allows proper coordination between PWM and DMA lifecycle */

    return WS2812B_OK;
 800366c:	2300      	movs	r3, #0
}
 800366e:	4618      	mov	r0, r3
 8003670:	3708      	adds	r7, #8
 8003672:	46bd      	mov	sp, r7
 8003674:	bd80      	pop	{r7, pc}
 8003676:	bf00      	nop
 8003678:	2000026c 	.word	0x2000026c
 800367c:	20000770 	.word	0x20000770
 8003680:	200013c0 	.word	0x200013c0
 8003684:	20000028 	.word	0x20000028

08003688 <WS2812B_SetPixel>:

/**
 * @brief Set color of specific LED at row,col position
 */
WS2812B_Status_t WS2812B_SetPixel(uint8_t row, uint8_t col, RGB_Color_t color)
{
 8003688:	b480      	push	{r7}
 800368a:	b085      	sub	sp, #20
 800368c:	af00      	add	r7, sp, #0
 800368e:	4603      	mov	r3, r0
 8003690:	603a      	str	r2, [r7, #0]
 8003692:	71fb      	strb	r3, [r7, #7]
 8003694:	460b      	mov	r3, r1
 8003696:	71bb      	strb	r3, [r7, #6]
    /* Check initialization */
    if (!ws2812b_state.initialized) {
 8003698:	4b12      	ldr	r3, [pc, #72]	@ (80036e4 <WS2812B_SetPixel+0x5c>)
 800369a:	789b      	ldrb	r3, [r3, #2]
 800369c:	2b00      	cmp	r3, #0
 800369e:	d101      	bne.n	80036a4 <WS2812B_SetPixel+0x1c>
        return WS2812B_ERROR;
 80036a0:	2301      	movs	r3, #1
 80036a2:	e01a      	b.n	80036da <WS2812B_SetPixel+0x52>
    }

    /* Validate coordinates */
    if (!WS2812B_IS_VALID_COORD(row, col)) {
 80036a4:	79fb      	ldrb	r3, [r7, #7]
 80036a6:	2b07      	cmp	r3, #7
 80036a8:	d802      	bhi.n	80036b0 <WS2812B_SetPixel+0x28>
 80036aa:	79bb      	ldrb	r3, [r7, #6]
 80036ac:	2b07      	cmp	r3, #7
 80036ae:	d901      	bls.n	80036b4 <WS2812B_SetPixel+0x2c>
        return WS2812B_ERROR;
 80036b0:	2301      	movs	r3, #1
 80036b2:	e012      	b.n	80036da <WS2812B_SetPixel+0x52>
    }

    /* Convert to linear index */
    uint8_t index = WS2812B_GET_LED_INDEX(row, col);
 80036b4:	79fb      	ldrb	r3, [r7, #7]
 80036b6:	00db      	lsls	r3, r3, #3
 80036b8:	b2da      	uxtb	r2, r3
 80036ba:	79bb      	ldrb	r3, [r7, #6]
 80036bc:	4413      	add	r3, r2
 80036be:	73fb      	strb	r3, [r7, #15]

    /* Set color in buffer */
    led_buffer[index] = color;
 80036c0:	7bfa      	ldrb	r2, [r7, #15]
 80036c2:	4909      	ldr	r1, [pc, #36]	@ (80036e8 <WS2812B_SetPixel+0x60>)
 80036c4:	4613      	mov	r3, r2
 80036c6:	005b      	lsls	r3, r3, #1
 80036c8:	4413      	add	r3, r2
 80036ca:	440b      	add	r3, r1
 80036cc:	461a      	mov	r2, r3
 80036ce:	463b      	mov	r3, r7
 80036d0:	8819      	ldrh	r1, [r3, #0]
 80036d2:	789b      	ldrb	r3, [r3, #2]
 80036d4:	8011      	strh	r1, [r2, #0]
 80036d6:	7093      	strb	r3, [r2, #2]

    return WS2812B_OK;
 80036d8:	2300      	movs	r3, #0
}
 80036da:	4618      	mov	r0, r3
 80036dc:	3714      	adds	r7, #20
 80036de:	46bd      	mov	sp, r7
 80036e0:	bc80      	pop	{r7}
 80036e2:	4770      	bx	lr
 80036e4:	20000028 	.word	0x20000028
 80036e8:	200013c0 	.word	0x200013c0

080036ec <WS2812B_Clear>:

/**
 * @brief Clear all LEDs
 */
WS2812B_Status_t WS2812B_Clear(void)
{
 80036ec:	b580      	push	{r7, lr}
 80036ee:	af00      	add	r7, sp, #0
    /* Check initialization */
    if (!ws2812b_state.initialized) {
 80036f0:	4b06      	ldr	r3, [pc, #24]	@ (800370c <WS2812B_Clear+0x20>)
 80036f2:	789b      	ldrb	r3, [r3, #2]
 80036f4:	2b00      	cmp	r3, #0
 80036f6:	d101      	bne.n	80036fc <WS2812B_Clear+0x10>
        return WS2812B_ERROR;
 80036f8:	2301      	movs	r3, #1
 80036fa:	e005      	b.n	8003708 <WS2812B_Clear+0x1c>
    }

    /* Clear LED buffer */
    memset(led_buffer, 0, sizeof(led_buffer));
 80036fc:	22c0      	movs	r2, #192	@ 0xc0
 80036fe:	2100      	movs	r1, #0
 8003700:	4803      	ldr	r0, [pc, #12]	@ (8003710 <WS2812B_Clear+0x24>)
 8003702:	f003 fb65 	bl	8006dd0 <memset>

    return WS2812B_OK;
 8003706:	2300      	movs	r3, #0
}
 8003708:	4618      	mov	r0, r3
 800370a:	bd80      	pop	{r7, pc}
 800370c:	20000028 	.word	0x20000028
 8003710:	200013c0 	.word	0x200013c0

08003714 <WS2812B_Update>:

/**
 * @brief Update LED matrix display
 */
WS2812B_Status_t WS2812B_Update(void)
{
 8003714:	b580      	push	{r7, lr}
 8003716:	af00      	add	r7, sp, #0
    /* Check initialization */
    if (!ws2812b_state.initialized) {
 8003718:	4b11      	ldr	r3, [pc, #68]	@ (8003760 <WS2812B_Update+0x4c>)
 800371a:	789b      	ldrb	r3, [r3, #2]
 800371c:	2b00      	cmp	r3, #0
 800371e:	d101      	bne.n	8003724 <WS2812B_Update+0x10>
        return WS2812B_ERROR;
 8003720:	2301      	movs	r3, #1
 8003722:	e01a      	b.n	800375a <WS2812B_Update+0x46>
    }

    /* Check if DMA is busy */
    if (ws2812b_state.is_busy) {
 8003724:	4b0e      	ldr	r3, [pc, #56]	@ (8003760 <WS2812B_Update+0x4c>)
 8003726:	785b      	ldrb	r3, [r3, #1]
 8003728:	2b00      	cmp	r3, #0
 800372a:	d001      	beq.n	8003730 <WS2812B_Update+0x1c>
        return WS2812B_BUSY;
 800372c:	2302      	movs	r3, #2
 800372e:	e014      	b.n	800375a <WS2812B_Update+0x46>
    }

    /* Convert RGB values to PWM data */
    WS2812B_Convert_RGB_to_PWM();
 8003730:	f000 f860 	bl	80037f4 <WS2812B_Convert_RGB_to_PWM>

    /* Set busy flag */
    ws2812b_state.is_busy = 1;
 8003734:	4b0a      	ldr	r3, [pc, #40]	@ (8003760 <WS2812B_Update+0x4c>)
 8003736:	2201      	movs	r2, #1
 8003738:	705a      	strb	r2, [r3, #1]

    DEBUG_INFO("[LED] DMA Start, size=%d\r\n", WS2812B_BUFFER_SIZE);

    /* Start DMA transfer */
    if (HAL_TIM_PWM_Start_DMA(&htim2, TIM_CHANNEL_1, (uint32_t*)pwm_buffer, WS2812B_BUFFER_SIZE) != HAL_OK) {
 800373a:	f44f 63c5 	mov.w	r3, #1576	@ 0x628
 800373e:	4a09      	ldr	r2, [pc, #36]	@ (8003764 <WS2812B_Update+0x50>)
 8003740:	2100      	movs	r1, #0
 8003742:	4809      	ldr	r0, [pc, #36]	@ (8003768 <WS2812B_Update+0x54>)
 8003744:	f001 fb9c 	bl	8004e80 <HAL_TIM_PWM_Start_DMA>
 8003748:	4603      	mov	r3, r0
 800374a:	2b00      	cmp	r3, #0
 800374c:	d004      	beq.n	8003758 <WS2812B_Update+0x44>
        ws2812b_state.is_busy = 0;
 800374e:	4b04      	ldr	r3, [pc, #16]	@ (8003760 <WS2812B_Update+0x4c>)
 8003750:	2200      	movs	r2, #0
 8003752:	705a      	strb	r2, [r3, #1]
        DEBUG_ERROR("[LED] DMA Start FAILED\r\n");
        return WS2812B_ERROR;
 8003754:	2301      	movs	r3, #1
 8003756:	e000      	b.n	800375a <WS2812B_Update+0x46>
    }

    return WS2812B_OK;
 8003758:	2300      	movs	r3, #0
}
 800375a:	4618      	mov	r0, r3
 800375c:	bd80      	pop	{r7, pc}
 800375e:	bf00      	nop
 8003760:	20000028 	.word	0x20000028
 8003764:	20000770 	.word	0x20000770
 8003768:	2000026c 	.word	0x2000026c

0800376c <WS2812B_Fill>:

/**
 * @brief Fill entire matrix with single color
 */
WS2812B_Status_t WS2812B_Fill(RGB_Color_t color)
{
 800376c:	b480      	push	{r7}
 800376e:	b085      	sub	sp, #20
 8003770:	af00      	add	r7, sp, #0
 8003772:	6078      	str	r0, [r7, #4]
    /* Check initialization */
    if (!ws2812b_state.initialized) {
 8003774:	4b10      	ldr	r3, [pc, #64]	@ (80037b8 <WS2812B_Fill+0x4c>)
 8003776:	789b      	ldrb	r3, [r3, #2]
 8003778:	2b00      	cmp	r3, #0
 800377a:	d101      	bne.n	8003780 <WS2812B_Fill+0x14>
        return WS2812B_ERROR;
 800377c:	2301      	movs	r3, #1
 800377e:	e015      	b.n	80037ac <WS2812B_Fill+0x40>
    }

    /* Fill all LEDs with the same color */
    for (uint8_t i = 0; i < WS2812B_LED_COUNT; i++) {
 8003780:	2300      	movs	r3, #0
 8003782:	73fb      	strb	r3, [r7, #15]
 8003784:	e00e      	b.n	80037a4 <WS2812B_Fill+0x38>
        led_buffer[i] = color;
 8003786:	7bfa      	ldrb	r2, [r7, #15]
 8003788:	490c      	ldr	r1, [pc, #48]	@ (80037bc <WS2812B_Fill+0x50>)
 800378a:	4613      	mov	r3, r2
 800378c:	005b      	lsls	r3, r3, #1
 800378e:	4413      	add	r3, r2
 8003790:	440b      	add	r3, r1
 8003792:	461a      	mov	r2, r3
 8003794:	1d3b      	adds	r3, r7, #4
 8003796:	8819      	ldrh	r1, [r3, #0]
 8003798:	789b      	ldrb	r3, [r3, #2]
 800379a:	8011      	strh	r1, [r2, #0]
 800379c:	7093      	strb	r3, [r2, #2]
    for (uint8_t i = 0; i < WS2812B_LED_COUNT; i++) {
 800379e:	7bfb      	ldrb	r3, [r7, #15]
 80037a0:	3301      	adds	r3, #1
 80037a2:	73fb      	strb	r3, [r7, #15]
 80037a4:	7bfb      	ldrb	r3, [r7, #15]
 80037a6:	2b3f      	cmp	r3, #63	@ 0x3f
 80037a8:	d9ed      	bls.n	8003786 <WS2812B_Fill+0x1a>
    }

    return WS2812B_OK;
 80037aa:	2300      	movs	r3, #0
}
 80037ac:	4618      	mov	r0, r3
 80037ae:	3714      	adds	r7, #20
 80037b0:	46bd      	mov	sp, r7
 80037b2:	bc80      	pop	{r7}
 80037b4:	4770      	bx	lr
 80037b6:	bf00      	nop
 80037b8:	20000028 	.word	0x20000028
 80037bc:	200013c0 	.word	0x200013c0

080037c0 <WS2812B_DMA_Complete_Callback>:

/**
 * @brief DMA transfer complete callback
 */
void WS2812B_DMA_Complete_Callback(DMA_HandleTypeDef *hdma)
{
 80037c0:	b580      	push	{r7, lr}
 80037c2:	b082      	sub	sp, #8
 80037c4:	af00      	add	r7, sp, #0
 80037c6:	6078      	str	r0, [r7, #4]
    /* Check if this is our DMA channel - DMA1_Channel5 for TIM2_CH1 */
    if (hdma->Instance == DMA1_Channel5) {
 80037c8:	687b      	ldr	r3, [r7, #4]
 80037ca:	681b      	ldr	r3, [r3, #0]
 80037cc:	4a06      	ldr	r2, [pc, #24]	@ (80037e8 <WS2812B_DMA_Complete_Callback+0x28>)
 80037ce:	4293      	cmp	r3, r2
 80037d0:	d106      	bne.n	80037e0 <WS2812B_DMA_Complete_Callback+0x20>
        DEBUG_INFO("[LED] DMA Complete\r\n");

        /* Stop PWM DMA */
        HAL_TIM_PWM_Stop_DMA(&htim2, TIM_CHANNEL_1);
 80037d2:	2100      	movs	r1, #0
 80037d4:	4805      	ldr	r0, [pc, #20]	@ (80037ec <WS2812B_DMA_Complete_Callback+0x2c>)
 80037d6:	f001 fcf5 	bl	80051c4 <HAL_TIM_PWM_Stop_DMA>

        /* Clear busy flag */
        ws2812b_state.is_busy = 0;
 80037da:	4b05      	ldr	r3, [pc, #20]	@ (80037f0 <WS2812B_DMA_Complete_Callback+0x30>)
 80037dc:	2200      	movs	r2, #0
 80037de:	705a      	strb	r2, [r3, #1]
    }
}
 80037e0:	bf00      	nop
 80037e2:	3708      	adds	r7, #8
 80037e4:	46bd      	mov	sp, r7
 80037e6:	bd80      	pop	{r7, pc}
 80037e8:	40020058 	.word	0x40020058
 80037ec:	2000026c 	.word	0x2000026c
 80037f0:	20000028 	.word	0x20000028

080037f4 <WS2812B_Convert_RGB_to_PWM>:

/**
 * @brief Convert RGB buffer to PWM data buffer
 */
static void WS2812B_Convert_RGB_to_PWM(void)
{
 80037f4:	b480      	push	{r7}
 80037f6:	b085      	sub	sp, #20
 80037f8:	af00      	add	r7, sp, #0
    uint16_t buffer_index = 0;
 80037fa:	2300      	movs	r3, #0
 80037fc:	81fb      	strh	r3, [r7, #14]

    /* Process each LED */
    for (uint8_t led = 0; led < WS2812B_LED_COUNT; led++) {
 80037fe:	2300      	movs	r3, #0
 8003800:	737b      	strb	r3, [r7, #13]
 8003802:	e066      	b.n	80038d2 <WS2812B_Convert_RGB_to_PWM+0xde>
        /* Apply brightness scaling */
        uint8_t red = APPLY_BRIGHTNESS(led_buffer[led].red, ws2812b_state.brightness);
 8003804:	7b7a      	ldrb	r2, [r7, #13]
 8003806:	4937      	ldr	r1, [pc, #220]	@ (80038e4 <WS2812B_Convert_RGB_to_PWM+0xf0>)
 8003808:	4613      	mov	r3, r2
 800380a:	005b      	lsls	r3, r3, #1
 800380c:	4413      	add	r3, r2
 800380e:	440b      	add	r3, r1
 8003810:	781b      	ldrb	r3, [r3, #0]
 8003812:	461a      	mov	r2, r3
 8003814:	4b34      	ldr	r3, [pc, #208]	@ (80038e8 <WS2812B_Convert_RGB_to_PWM+0xf4>)
 8003816:	781b      	ldrb	r3, [r3, #0]
 8003818:	fb02 f303 	mul.w	r3, r2, r3
 800381c:	121b      	asrs	r3, r3, #8
 800381e:	72bb      	strb	r3, [r7, #10]
        uint8_t green = APPLY_BRIGHTNESS(led_buffer[led].green, ws2812b_state.brightness);
 8003820:	7b7a      	ldrb	r2, [r7, #13]
 8003822:	4930      	ldr	r1, [pc, #192]	@ (80038e4 <WS2812B_Convert_RGB_to_PWM+0xf0>)
 8003824:	4613      	mov	r3, r2
 8003826:	005b      	lsls	r3, r3, #1
 8003828:	4413      	add	r3, r2
 800382a:	440b      	add	r3, r1
 800382c:	3301      	adds	r3, #1
 800382e:	781b      	ldrb	r3, [r3, #0]
 8003830:	461a      	mov	r2, r3
 8003832:	4b2d      	ldr	r3, [pc, #180]	@ (80038e8 <WS2812B_Convert_RGB_to_PWM+0xf4>)
 8003834:	781b      	ldrb	r3, [r3, #0]
 8003836:	fb02 f303 	mul.w	r3, r2, r3
 800383a:	121b      	asrs	r3, r3, #8
 800383c:	727b      	strb	r3, [r7, #9]
        uint8_t blue = APPLY_BRIGHTNESS(led_buffer[led].blue, ws2812b_state.brightness);
 800383e:	7b7a      	ldrb	r2, [r7, #13]
 8003840:	4928      	ldr	r1, [pc, #160]	@ (80038e4 <WS2812B_Convert_RGB_to_PWM+0xf0>)
 8003842:	4613      	mov	r3, r2
 8003844:	005b      	lsls	r3, r3, #1
 8003846:	4413      	add	r3, r2
 8003848:	440b      	add	r3, r1
 800384a:	3302      	adds	r3, #2
 800384c:	781b      	ldrb	r3, [r3, #0]
 800384e:	461a      	mov	r2, r3
 8003850:	4b25      	ldr	r3, [pc, #148]	@ (80038e8 <WS2812B_Convert_RGB_to_PWM+0xf4>)
 8003852:	781b      	ldrb	r3, [r3, #0]
 8003854:	fb02 f303 	mul.w	r3, r2, r3
 8003858:	121b      	asrs	r3, r3, #8
 800385a:	723b      	strb	r3, [r7, #8]

        /* WS2812B expects GRB order */
        uint8_t grb_data[3] = {green, red, blue};
 800385c:	7a7b      	ldrb	r3, [r7, #9]
 800385e:	713b      	strb	r3, [r7, #4]
 8003860:	7abb      	ldrb	r3, [r7, #10]
 8003862:	717b      	strb	r3, [r7, #5]
 8003864:	7a3b      	ldrb	r3, [r7, #8]
 8003866:	71bb      	strb	r3, [r7, #6]

        /* Convert each color component to PWM values */
        for (uint8_t color_byte = 0; color_byte < 3; color_byte++) {
 8003868:	2300      	movs	r3, #0
 800386a:	733b      	strb	r3, [r7, #12]
 800386c:	e02b      	b.n	80038c6 <WS2812B_Convert_RGB_to_PWM+0xd2>
            for (int8_t bit = 7; bit >= 0; bit--) {
 800386e:	2307      	movs	r3, #7
 8003870:	72fb      	strb	r3, [r7, #11]
 8003872:	e021      	b.n	80038b8 <WS2812B_Convert_RGB_to_PWM+0xc4>
                /* Check if bit is set */
                if (grb_data[color_byte] & (1 << bit)) {
 8003874:	7b3b      	ldrb	r3, [r7, #12]
 8003876:	3310      	adds	r3, #16
 8003878:	443b      	add	r3, r7
 800387a:	f813 3c0c 	ldrb.w	r3, [r3, #-12]
 800387e:	461a      	mov	r2, r3
 8003880:	f997 300b 	ldrsb.w	r3, [r7, #11]
 8003884:	fa42 f303 	asr.w	r3, r2, r3
 8003888:	f003 0301 	and.w	r3, r3, #1
 800388c:	2b00      	cmp	r3, #0
 800388e:	d005      	beq.n	800389c <WS2812B_Convert_RGB_to_PWM+0xa8>
                    pwm_buffer[buffer_index] = WS2812B_LOGIC_1;  /* ~0.8s high */
 8003890:	89fb      	ldrh	r3, [r7, #14]
 8003892:	4a16      	ldr	r2, [pc, #88]	@ (80038ec <WS2812B_Convert_RGB_to_PWM+0xf8>)
 8003894:	213a      	movs	r1, #58	@ 0x3a
 8003896:	f822 1013 	strh.w	r1, [r2, r3, lsl #1]
 800389a:	e004      	b.n	80038a6 <WS2812B_Convert_RGB_to_PWM+0xb2>
                } else {
                    pwm_buffer[buffer_index] = WS2812B_LOGIC_0;  /* ~0.4s high */
 800389c:	89fb      	ldrh	r3, [r7, #14]
 800389e:	4a13      	ldr	r2, [pc, #76]	@ (80038ec <WS2812B_Convert_RGB_to_PWM+0xf8>)
 80038a0:	211d      	movs	r1, #29
 80038a2:	f822 1013 	strh.w	r1, [r2, r3, lsl #1]
                }
                buffer_index++;
 80038a6:	89fb      	ldrh	r3, [r7, #14]
 80038a8:	3301      	adds	r3, #1
 80038aa:	81fb      	strh	r3, [r7, #14]
            for (int8_t bit = 7; bit >= 0; bit--) {
 80038ac:	f997 300b 	ldrsb.w	r3, [r7, #11]
 80038b0:	b2db      	uxtb	r3, r3
 80038b2:	3b01      	subs	r3, #1
 80038b4:	b2db      	uxtb	r3, r3
 80038b6:	72fb      	strb	r3, [r7, #11]
 80038b8:	f997 300b 	ldrsb.w	r3, [r7, #11]
 80038bc:	2b00      	cmp	r3, #0
 80038be:	dad9      	bge.n	8003874 <WS2812B_Convert_RGB_to_PWM+0x80>
        for (uint8_t color_byte = 0; color_byte < 3; color_byte++) {
 80038c0:	7b3b      	ldrb	r3, [r7, #12]
 80038c2:	3301      	adds	r3, #1
 80038c4:	733b      	strb	r3, [r7, #12]
 80038c6:	7b3b      	ldrb	r3, [r7, #12]
 80038c8:	2b02      	cmp	r3, #2
 80038ca:	d9d0      	bls.n	800386e <WS2812B_Convert_RGB_to_PWM+0x7a>
    for (uint8_t led = 0; led < WS2812B_LED_COUNT; led++) {
 80038cc:	7b7b      	ldrb	r3, [r7, #13]
 80038ce:	3301      	adds	r3, #1
 80038d0:	737b      	strb	r3, [r7, #13]
 80038d2:	7b7b      	ldrb	r3, [r7, #13]
 80038d4:	2b3f      	cmp	r3, #63	@ 0x3f
 80038d6:	d995      	bls.n	8003804 <WS2812B_Convert_RGB_to_PWM+0x10>
            }
        }
    }

    /* Reset pulse is already set during initialization */
}
 80038d8:	bf00      	nop
 80038da:	bf00      	nop
 80038dc:	3714      	adds	r7, #20
 80038de:	46bd      	mov	sp, r7
 80038e0:	bc80      	pop	{r7}
 80038e2:	4770      	bx	lr
 80038e4:	200013c0 	.word	0x200013c0
 80038e8:	20000028 	.word	0x20000028
 80038ec:	20000770 	.word	0x20000770

080038f0 <Reset_Handler>:
  .weak Reset_Handler
  .type Reset_Handler, %function
Reset_Handler:

/* Call the clock system initialization function.*/
    bl  SystemInit
 80038f0:	f7ff fa4a 	bl	8002d88 <SystemInit>

/* Copy the data segment initializers from flash to SRAM */
  ldr r0, =_sdata
 80038f4:	480b      	ldr	r0, [pc, #44]	@ (8003924 <LoopFillZerobss+0xe>)
  ldr r1, =_edata
 80038f6:	490c      	ldr	r1, [pc, #48]	@ (8003928 <LoopFillZerobss+0x12>)
  ldr r2, =_sidata
 80038f8:	4a0c      	ldr	r2, [pc, #48]	@ (800392c <LoopFillZerobss+0x16>)
  movs r3, #0
 80038fa:	2300      	movs	r3, #0
  b LoopCopyDataInit
 80038fc:	e002      	b.n	8003904 <LoopCopyDataInit>

080038fe <CopyDataInit>:

CopyDataInit:
  ldr r4, [r2, r3]
 80038fe:	58d4      	ldr	r4, [r2, r3]
  str r4, [r0, r3]
 8003900:	50c4      	str	r4, [r0, r3]
  adds r3, r3, #4
 8003902:	3304      	adds	r3, #4

08003904 <LoopCopyDataInit>:

LoopCopyDataInit:
  adds r4, r0, r3
 8003904:	18c4      	adds	r4, r0, r3
  cmp r4, r1
 8003906:	428c      	cmp	r4, r1
  bcc CopyDataInit
 8003908:	d3f9      	bcc.n	80038fe <CopyDataInit>
  
/* Zero fill the bss segment. */
  ldr r2, =_sbss
 800390a:	4a09      	ldr	r2, [pc, #36]	@ (8003930 <LoopFillZerobss+0x1a>)
  ldr r4, =_ebss
 800390c:	4c09      	ldr	r4, [pc, #36]	@ (8003934 <LoopFillZerobss+0x1e>)
  movs r3, #0
 800390e:	2300      	movs	r3, #0
  b LoopFillZerobss
 8003910:	e001      	b.n	8003916 <LoopFillZerobss>

08003912 <FillZerobss>:

FillZerobss:
  str  r3, [r2]
 8003912:	6013      	str	r3, [r2, #0]
  adds r2, r2, #4
 8003914:	3204      	adds	r2, #4

08003916 <LoopFillZerobss>:

LoopFillZerobss:
  cmp r2, r4
 8003916:	42a2      	cmp	r2, r4
  bcc FillZerobss
 8003918:	d3fb      	bcc.n	8003912 <FillZerobss>

/* Call static constructors */
    bl __libc_init_array
 800391a:	f003 fa67 	bl	8006dec <__libc_init_array>
/* Call the application's entry point.*/
  bl main
 800391e:	f7fd fc09 	bl	8001134 <main>
  bx lr
 8003922:	4770      	bx	lr
  ldr r0, =_sdata
 8003924:	20000000 	.word	0x20000000
  ldr r1, =_edata
 8003928:	20000084 	.word	0x20000084
  ldr r2, =_sidata
 800392c:	08007b44 	.word	0x08007b44
  ldr r2, =_sbss
 8003930:	20000084 	.word	0x20000084
  ldr r4, =_ebss
 8003934:	200015cc 	.word	0x200015cc

08003938 <ADC1_2_IRQHandler>:
 * @retval : None
*/
    .section .text.Default_Handler,"ax",%progbits
Default_Handler:
Infinite_Loop:
  b Infinite_Loop
 8003938:	e7fe      	b.n	8003938 <ADC1_2_IRQHandler>
	...

0800393c <HAL_Init>:
  *         need to ensure that the SysTick time base is always set to 1 millisecond
  *         to have correct HAL operation.
  * @retval HAL status
  */
HAL_StatusTypeDef HAL_Init(void)
{
 800393c:	b580      	push	{r7, lr}
 800393e:	af00      	add	r7, sp, #0
    defined(STM32F102x6) || defined(STM32F102xB) || \
    defined(STM32F103x6) || defined(STM32F103xB) || defined(STM32F103xE) || defined(STM32F103xG) || \
    defined(STM32F105xC) || defined(STM32F107xC)

  /* Prefetch buffer is not available on value line devices */
  __HAL_FLASH_PREFETCH_BUFFER_ENABLE();
 8003940:	4b08      	ldr	r3, [pc, #32]	@ (8003964 <HAL_Init+0x28>)
 8003942:	681b      	ldr	r3, [r3, #0]
 8003944:	4a07      	ldr	r2, [pc, #28]	@ (8003964 <HAL_Init+0x28>)
 8003946:	f043 0310 	orr.w	r3, r3, #16
 800394a:	6013      	str	r3, [r2, #0]
#endif
#endif /* PREFETCH_ENABLE */

  /* Set Interrupt Group Priority */
  HAL_NVIC_SetPriorityGrouping(NVIC_PRIORITYGROUP_4);
 800394c:	2003      	movs	r0, #3
 800394e:	f000 f947 	bl	8003be0 <HAL_NVIC_SetPriorityGrouping>

  /* Use systick as time base source and configure 1ms tick (default clock after Reset is HSI) */
  HAL_InitTick(TICK_INT_PRIORITY);
 8003952:	200f      	movs	r0, #15
 8003954:	f000 f808 	bl	8003968 <HAL_InitTick>

  /* Init the low level hardware */
  HAL_MspInit();
 8003958:	f7ff f890 	bl	8002a7c <HAL_MspInit>

  /* Return function status */
  return HAL_OK;
 800395c:	2300      	movs	r3, #0
}
 800395e:	4618      	mov	r0, r3
 8003960:	bd80      	pop	{r7, pc}
 8003962:	bf00      	nop
 8003964:	40022000 	.word	0x40022000

08003968 <HAL_InitTick>:
  *       implementation  in user file.
  * @param TickPriority Tick interrupt priority.
  * @retval HAL status
  */
__weak HAL_StatusTypeDef HAL_InitTick(uint32_t TickPriority)
{
 8003968:	b580      	push	{r7, lr}
 800396a:	b082      	sub	sp, #8
 800396c:	af00      	add	r7, sp, #0
 800396e:	6078      	str	r0, [r7, #4]
  /* Configure the SysTick to have interrupt in 1ms time basis*/
  if (HAL_SYSTICK_Config(SystemCoreClock / (1000U / uwTickFreq)) > 0U)
 8003970:	4b12      	ldr	r3, [pc, #72]	@ (80039bc <HAL_InitTick+0x54>)
 8003972:	681a      	ldr	r2, [r3, #0]
 8003974:	4b12      	ldr	r3, [pc, #72]	@ (80039c0 <HAL_InitTick+0x58>)
 8003976:	781b      	ldrb	r3, [r3, #0]
 8003978:	4619      	mov	r1, r3
 800397a:	f44f 737a 	mov.w	r3, #1000	@ 0x3e8
 800397e:	fbb3 f3f1 	udiv	r3, r3, r1
 8003982:	fbb2 f3f3 	udiv	r3, r2, r3
 8003986:	4618      	mov	r0, r3
 8003988:	f000 f95f 	bl	8003c4a <HAL_SYSTICK_Config>
 800398c:	4603      	mov	r3, r0
 800398e:	2b00      	cmp	r3, #0
 8003990:	d001      	beq.n	8003996 <HAL_InitTick+0x2e>
  {
    return HAL_ERROR;
 8003992:	2301      	movs	r3, #1
 8003994:	e00e      	b.n	80039b4 <HAL_InitTick+0x4c>
  }

  /* Configure the SysTick IRQ priority */
  if (TickPriority < (1UL << __NVIC_PRIO_BITS))
 8003996:	687b      	ldr	r3, [r7, #4]
 8003998:	2b0f      	cmp	r3, #15
 800399a:	d80a      	bhi.n	80039b2 <HAL_InitTick+0x4a>
  {
    HAL_NVIC_SetPriority(SysTick_IRQn, TickPriority, 0U);
 800399c:	2200      	movs	r2, #0
 800399e:	6879      	ldr	r1, [r7, #4]
 80039a0:	f04f 30ff 	mov.w	r0, #4294967295
 80039a4:	f000 f927 	bl	8003bf6 <HAL_NVIC_SetPriority>
    uwTickPrio = TickPriority;
 80039a8:	4a06      	ldr	r2, [pc, #24]	@ (80039c4 <HAL_InitTick+0x5c>)
 80039aa:	687b      	ldr	r3, [r7, #4]
 80039ac:	6013      	str	r3, [r2, #0]
  {
    return HAL_ERROR;
  }

  /* Return function status */
  return HAL_OK;
 80039ae:	2300      	movs	r3, #0
 80039b0:	e000      	b.n	80039b4 <HAL_InitTick+0x4c>
    return HAL_ERROR;
 80039b2:	2301      	movs	r3, #1
}
 80039b4:	4618      	mov	r0, r3
 80039b6:	3708      	adds	r7, #8
 80039b8:	46bd      	mov	sp, r7
 80039ba:	bd80      	pop	{r7, pc}
 80039bc:	20000024 	.word	0x20000024
 80039c0:	20000030 	.word	0x20000030
 80039c4:	2000002c 	.word	0x2000002c

080039c8 <HAL_IncTick>:
  * @note This function is declared as __weak to be overwritten in case of other
  *      implementations in user file.
  * @retval None
  */
__weak void HAL_IncTick(void)
{
 80039c8:	b480      	push	{r7}
 80039ca:	af00      	add	r7, sp, #0
  uwTick += uwTickFreq;
 80039cc:	4b05      	ldr	r3, [pc, #20]	@ (80039e4 <HAL_IncTick+0x1c>)
 80039ce:	781b      	ldrb	r3, [r3, #0]
 80039d0:	461a      	mov	r2, r3
 80039d2:	4b05      	ldr	r3, [pc, #20]	@ (80039e8 <HAL_IncTick+0x20>)
 80039d4:	681b      	ldr	r3, [r3, #0]
 80039d6:	4413      	add	r3, r2
 80039d8:	4a03      	ldr	r2, [pc, #12]	@ (80039e8 <HAL_IncTick+0x20>)
 80039da:	6013      	str	r3, [r2, #0]
}
 80039dc:	bf00      	nop
 80039de:	46bd      	mov	sp, r7
 80039e0:	bc80      	pop	{r7}
 80039e2:	4770      	bx	lr
 80039e4:	20000030 	.word	0x20000030
 80039e8:	20001480 	.word	0x20001480

080039ec <HAL_GetTick>:
  * @note  This function is declared as __weak to be overwritten in case of other
  *       implementations in user file.
  * @retval tick value
  */
__weak uint32_t HAL_GetTick(void)
{
 80039ec:	b480      	push	{r7}
 80039ee:	af00      	add	r7, sp, #0
  return uwTick;
 80039f0:	4b02      	ldr	r3, [pc, #8]	@ (80039fc <HAL_GetTick+0x10>)
 80039f2:	681b      	ldr	r3, [r3, #0]
}
 80039f4:	4618      	mov	r0, r3
 80039f6:	46bd      	mov	sp, r7
 80039f8:	bc80      	pop	{r7}
 80039fa:	4770      	bx	lr
 80039fc:	20001480 	.word	0x20001480

08003a00 <HAL_Delay>:
  *       implementations in user file.
  * @param Delay specifies the delay time length, in milliseconds.
  * @retval None
  */
__weak void HAL_Delay(uint32_t Delay)
{
 8003a00:	b580      	push	{r7, lr}
 8003a02:	b084      	sub	sp, #16
 8003a04:	af00      	add	r7, sp, #0
 8003a06:	6078      	str	r0, [r7, #4]
  uint32_t tickstart = HAL_GetTick();
 8003a08:	f7ff fff0 	bl	80039ec <HAL_GetTick>
 8003a0c:	60b8      	str	r0, [r7, #8]
  uint32_t wait = Delay;
 8003a0e:	687b      	ldr	r3, [r7, #4]
 8003a10:	60fb      	str	r3, [r7, #12]

  /* Add a freq to guarantee minimum wait */
  if (wait < HAL_MAX_DELAY)
 8003a12:	68fb      	ldr	r3, [r7, #12]
 8003a14:	f1b3 3fff 	cmp.w	r3, #4294967295
 8003a18:	d005      	beq.n	8003a26 <HAL_Delay+0x26>
  {
    wait += (uint32_t)(uwTickFreq);
 8003a1a:	4b0a      	ldr	r3, [pc, #40]	@ (8003a44 <HAL_Delay+0x44>)
 8003a1c:	781b      	ldrb	r3, [r3, #0]
 8003a1e:	461a      	mov	r2, r3
 8003a20:	68fb      	ldr	r3, [r7, #12]
 8003a22:	4413      	add	r3, r2
 8003a24:	60fb      	str	r3, [r7, #12]
  }

  while ((HAL_GetTick() - tickstart) < wait)
 8003a26:	bf00      	nop
 8003a28:	f7ff ffe0 	bl	80039ec <HAL_GetTick>
 8003a2c:	4602      	mov	r2, r0
 8003a2e:	68bb      	ldr	r3, [r7, #8]
 8003a30:	1ad3      	subs	r3, r2, r3
 8003a32:	68fa      	ldr	r2, [r7, #12]
 8003a34:	429a      	cmp	r2, r3
 8003a36:	d8f7      	bhi.n	8003a28 <HAL_Delay+0x28>
  {
  }
}
 8003a38:	bf00      	nop
 8003a3a:	bf00      	nop
 8003a3c:	3710      	adds	r7, #16
 8003a3e:	46bd      	mov	sp, r7
 8003a40:	bd80      	pop	{r7, pc}
 8003a42:	bf00      	nop
 8003a44:	20000030 	.word	0x20000030

08003a48 <__NVIC_SetPriorityGrouping>:
           In case of a conflict between priority grouping and available
           priority bits (__NVIC_PRIO_BITS), the smallest possible priority group is set.
  \param [in]      PriorityGroup  Priority grouping field.
 */
__STATIC_INLINE void __NVIC_SetPriorityGrouping(uint32_t PriorityGroup)
{
 8003a48:	b480      	push	{r7}
 8003a4a:	b085      	sub	sp, #20
 8003a4c:	af00      	add	r7, sp, #0
 8003a4e:	6078      	str	r0, [r7, #4]
  uint32_t reg_value;
  uint32_t PriorityGroupTmp = (PriorityGroup & (uint32_t)0x07UL);             /* only values 0..7 are used          */
 8003a50:	687b      	ldr	r3, [r7, #4]
 8003a52:	f003 0307 	and.w	r3, r3, #7
 8003a56:	60fb      	str	r3, [r7, #12]

  reg_value  =  SCB->AIRCR;                                                   /* read old register configuration    */
 8003a58:	4b0c      	ldr	r3, [pc, #48]	@ (8003a8c <__NVIC_SetPriorityGrouping+0x44>)
 8003a5a:	68db      	ldr	r3, [r3, #12]
 8003a5c:	60bb      	str	r3, [r7, #8]
  reg_value &= ~((uint32_t)(SCB_AIRCR_VECTKEY_Msk | SCB_AIRCR_PRIGROUP_Msk)); /* clear bits to change               */
 8003a5e:	68ba      	ldr	r2, [r7, #8]
 8003a60:	f64f 03ff 	movw	r3, #63743	@ 0xf8ff
 8003a64:	4013      	ands	r3, r2
 8003a66:	60bb      	str	r3, [r7, #8]
  reg_value  =  (reg_value                                   |
                ((uint32_t)0x5FAUL << SCB_AIRCR_VECTKEY_Pos) |
                (PriorityGroupTmp << SCB_AIRCR_PRIGROUP_Pos) );               /* Insert write key and priority group */
 8003a68:	68fb      	ldr	r3, [r7, #12]
 8003a6a:	021a      	lsls	r2, r3, #8
                ((uint32_t)0x5FAUL << SCB_AIRCR_VECTKEY_Pos) |
 8003a6c:	68bb      	ldr	r3, [r7, #8]
 8003a6e:	4313      	orrs	r3, r2
  reg_value  =  (reg_value                                   |
 8003a70:	f043 63bf 	orr.w	r3, r3, #100139008	@ 0x5f80000
 8003a74:	f443 3300 	orr.w	r3, r3, #131072	@ 0x20000
 8003a78:	60bb      	str	r3, [r7, #8]
  SCB->AIRCR =  reg_value;
 8003a7a:	4a04      	ldr	r2, [pc, #16]	@ (8003a8c <__NVIC_SetPriorityGrouping+0x44>)
 8003a7c:	68bb      	ldr	r3, [r7, #8]
 8003a7e:	60d3      	str	r3, [r2, #12]
}
 8003a80:	bf00      	nop
 8003a82:	3714      	adds	r7, #20
 8003a84:	46bd      	mov	sp, r7
 8003a86:	bc80      	pop	{r7}
 8003a88:	4770      	bx	lr
 8003a8a:	bf00      	nop
 8003a8c:	e000ed00 	.word	0xe000ed00

08003a90 <__NVIC_GetPriorityGrouping>:
  \brief   Get Priority Grouping
  \details Reads the priority grouping field from the NVIC Interrupt Controller.
  \return                Priority grouping field (SCB->AIRCR [10:8] PRIGROUP field).
 */
__STATIC_INLINE uint32_t __NVIC_GetPriorityGrouping(void)
{
 8003a90:	b480      	push	{r7}
 8003a92:	af00      	add	r7, sp, #0
  return ((uint32_t)((SCB->AIRCR & SCB_AIRCR_PRIGROUP_Msk) >> SCB_AIRCR_PRIGROUP_Pos));
 8003a94:	4b04      	ldr	r3, [pc, #16]	@ (8003aa8 <__NVIC_GetPriorityGrouping+0x18>)
 8003a96:	68db      	ldr	r3, [r3, #12]
 8003a98:	0a1b      	lsrs	r3, r3, #8
 8003a9a:	f003 0307 	and.w	r3, r3, #7
}
 8003a9e:	4618      	mov	r0, r3
 8003aa0:	46bd      	mov	sp, r7
 8003aa2:	bc80      	pop	{r7}
 8003aa4:	4770      	bx	lr
 8003aa6:	bf00      	nop
 8003aa8:	e000ed00 	.word	0xe000ed00

08003aac <__NVIC_EnableIRQ>:
  \details Enables a device specific interrupt in the NVIC interrupt controller.
  \param [in]      IRQn  Device specific interrupt number.
  \note    IRQn must not be negative.
 */
__STATIC_INLINE void __NVIC_EnableIRQ(IRQn_Type IRQn)
{
 8003aac:	b480      	push	{r7}
 8003aae:	b083      	sub	sp, #12
 8003ab0:	af00      	add	r7, sp, #0
 8003ab2:	4603      	mov	r3, r0
 8003ab4:	71fb      	strb	r3, [r7, #7]
  if ((int32_t)(IRQn) >= 0)
 8003ab6:	f997 3007 	ldrsb.w	r3, [r7, #7]
 8003aba:	2b00      	cmp	r3, #0
 8003abc:	db0b      	blt.n	8003ad6 <__NVIC_EnableIRQ+0x2a>
  {
    NVIC->ISER[(((uint32_t)IRQn) >> 5UL)] = (uint32_t)(1UL << (((uint32_t)IRQn) & 0x1FUL));
 8003abe:	79fb      	ldrb	r3, [r7, #7]
 8003ac0:	f003 021f 	and.w	r2, r3, #31
 8003ac4:	4906      	ldr	r1, [pc, #24]	@ (8003ae0 <__NVIC_EnableIRQ+0x34>)
 8003ac6:	f997 3007 	ldrsb.w	r3, [r7, #7]
 8003aca:	095b      	lsrs	r3, r3, #5
 8003acc:	2001      	movs	r0, #1
 8003ace:	fa00 f202 	lsl.w	r2, r0, r2
 8003ad2:	f841 2023 	str.w	r2, [r1, r3, lsl #2]
  }
}
 8003ad6:	bf00      	nop
 8003ad8:	370c      	adds	r7, #12
 8003ada:	46bd      	mov	sp, r7
 8003adc:	bc80      	pop	{r7}
 8003ade:	4770      	bx	lr
 8003ae0:	e000e100 	.word	0xe000e100

08003ae4 <__NVIC_SetPriority>:
  \param [in]      IRQn  Interrupt number.
  \param [in]  priority  Priority to set.
  \note    The priority cannot be set for every processor exception.
 */
__STATIC_INLINE void __NVIC_SetPriority(IRQn_Type IRQn, uint32_t priority)
{
 8003ae4:	b480      	push	{r7}
 8003ae6:	b083      	sub	sp, #12
 8003ae8:	af00      	add	r7, sp, #0
 8003aea:	4603      	mov	r3, r0
 8003aec:	6039      	str	r1, [r7, #0]
 8003aee:	71fb      	strb	r3, [r7, #7]
  if ((int32_t)(IRQn) >= 0)
 8003af0:	f997 3007 	ldrsb.w	r3, [r7, #7]
 8003af4:	2b00      	cmp	r3, #0
 8003af6:	db0a      	blt.n	8003b0e <__NVIC_SetPriority+0x2a>
  {
    NVIC->IP[((uint32_t)IRQn)]               = (uint8_t)((priority << (8U - __NVIC_PRIO_BITS)) & (uint32_t)0xFFUL);
 8003af8:	683b      	ldr	r3, [r7, #0]
 8003afa:	b2da      	uxtb	r2, r3
 8003afc:	490c      	ldr	r1, [pc, #48]	@ (8003b30 <__NVIC_SetPriority+0x4c>)
 8003afe:	f997 3007 	ldrsb.w	r3, [r7, #7]
 8003b02:	0112      	lsls	r2, r2, #4
 8003b04:	b2d2      	uxtb	r2, r2
 8003b06:	440b      	add	r3, r1
 8003b08:	f883 2300 	strb.w	r2, [r3, #768]	@ 0x300
  }
  else
  {
    SCB->SHP[(((uint32_t)IRQn) & 0xFUL)-4UL] = (uint8_t)((priority << (8U - __NVIC_PRIO_BITS)) & (uint32_t)0xFFUL);
  }
}
 8003b0c:	e00a      	b.n	8003b24 <__NVIC_SetPriority+0x40>
    SCB->SHP[(((uint32_t)IRQn) & 0xFUL)-4UL] = (uint8_t)((priority << (8U - __NVIC_PRIO_BITS)) & (uint32_t)0xFFUL);
 8003b0e:	683b      	ldr	r3, [r7, #0]
 8003b10:	b2da      	uxtb	r2, r3
 8003b12:	4908      	ldr	r1, [pc, #32]	@ (8003b34 <__NVIC_SetPriority+0x50>)
 8003b14:	79fb      	ldrb	r3, [r7, #7]
 8003b16:	f003 030f 	and.w	r3, r3, #15
 8003b1a:	3b04      	subs	r3, #4
 8003b1c:	0112      	lsls	r2, r2, #4
 8003b1e:	b2d2      	uxtb	r2, r2
 8003b20:	440b      	add	r3, r1
 8003b22:	761a      	strb	r2, [r3, #24]
}
 8003b24:	bf00      	nop
 8003b26:	370c      	adds	r7, #12
 8003b28:	46bd      	mov	sp, r7
 8003b2a:	bc80      	pop	{r7}
 8003b2c:	4770      	bx	lr
 8003b2e:	bf00      	nop
 8003b30:	e000e100 	.word	0xe000e100
 8003b34:	e000ed00 	.word	0xe000ed00

08003b38 <NVIC_EncodePriority>:
  \param [in]   PreemptPriority  Preemptive priority value (starting from 0).
  \param [in]       SubPriority  Subpriority value (starting from 0).
  \return                        Encoded priority. Value can be used in the function \ref NVIC_SetPriority().
 */
__STATIC_INLINE uint32_t NVIC_EncodePriority (uint32_t PriorityGroup, uint32_t PreemptPriority, uint32_t SubPriority)
{
 8003b38:	b480      	push	{r7}
 8003b3a:	b089      	sub	sp, #36	@ 0x24
 8003b3c:	af00      	add	r7, sp, #0
 8003b3e:	60f8      	str	r0, [r7, #12]
 8003b40:	60b9      	str	r1, [r7, #8]
 8003b42:	607a      	str	r2, [r7, #4]
  uint32_t PriorityGroupTmp = (PriorityGroup & (uint32_t)0x07UL);   /* only values 0..7 are used          */
 8003b44:	68fb      	ldr	r3, [r7, #12]
 8003b46:	f003 0307 	and.w	r3, r3, #7
 8003b4a:	61fb      	str	r3, [r7, #28]
  uint32_t PreemptPriorityBits;
  uint32_t SubPriorityBits;

  PreemptPriorityBits = ((7UL - PriorityGroupTmp) > (uint32_t)(__NVIC_PRIO_BITS)) ? (uint32_t)(__NVIC_PRIO_BITS) : (uint32_t)(7UL - PriorityGroupTmp);
 8003b4c:	69fb      	ldr	r3, [r7, #28]
 8003b4e:	f1c3 0307 	rsb	r3, r3, #7
 8003b52:	2b04      	cmp	r3, #4
 8003b54:	bf28      	it	cs
 8003b56:	2304      	movcs	r3, #4
 8003b58:	61bb      	str	r3, [r7, #24]
  SubPriorityBits     = ((PriorityGroupTmp + (uint32_t)(__NVIC_PRIO_BITS)) < (uint32_t)7UL) ? (uint32_t)0UL : (uint32_t)((PriorityGroupTmp - 7UL) + (uint32_t)(__NVIC_PRIO_BITS));
 8003b5a:	69fb      	ldr	r3, [r7, #28]
 8003b5c:	3304      	adds	r3, #4
 8003b5e:	2b06      	cmp	r3, #6
 8003b60:	d902      	bls.n	8003b68 <NVIC_EncodePriority+0x30>
 8003b62:	69fb      	ldr	r3, [r7, #28]
 8003b64:	3b03      	subs	r3, #3
 8003b66:	e000      	b.n	8003b6a <NVIC_EncodePriority+0x32>
 8003b68:	2300      	movs	r3, #0
 8003b6a:	617b      	str	r3, [r7, #20]

  return (
           ((PreemptPriority & (uint32_t)((1UL << (PreemptPriorityBits)) - 1UL)) << SubPriorityBits) |
 8003b6c:	f04f 32ff 	mov.w	r2, #4294967295
 8003b70:	69bb      	ldr	r3, [r7, #24]
 8003b72:	fa02 f303 	lsl.w	r3, r2, r3
 8003b76:	43da      	mvns	r2, r3
 8003b78:	68bb      	ldr	r3, [r7, #8]
 8003b7a:	401a      	ands	r2, r3
 8003b7c:	697b      	ldr	r3, [r7, #20]
 8003b7e:	409a      	lsls	r2, r3
           ((SubPriority     & (uint32_t)((1UL << (SubPriorityBits    )) - 1UL)))
 8003b80:	f04f 31ff 	mov.w	r1, #4294967295
 8003b84:	697b      	ldr	r3, [r7, #20]
 8003b86:	fa01 f303 	lsl.w	r3, r1, r3
 8003b8a:	43d9      	mvns	r1, r3
 8003b8c:	687b      	ldr	r3, [r7, #4]
 8003b8e:	400b      	ands	r3, r1
           ((PreemptPriority & (uint32_t)((1UL << (PreemptPriorityBits)) - 1UL)) << SubPriorityBits) |
 8003b90:	4313      	orrs	r3, r2
         );
}
 8003b92:	4618      	mov	r0, r3
 8003b94:	3724      	adds	r7, #36	@ 0x24
 8003b96:	46bd      	mov	sp, r7
 8003b98:	bc80      	pop	{r7}
 8003b9a:	4770      	bx	lr

08003b9c <SysTick_Config>:
  \note    When the variable <b>__Vendor_SysTickConfig</b> is set to 1, then the
           function <b>SysTick_Config</b> is not included. In this case, the file <b><i>device</i>.h</b>
           must contain a vendor-specific implementation of this function.
 */
__STATIC_INLINE uint32_t SysTick_Config(uint32_t ticks)
{
 8003b9c:	b580      	push	{r7, lr}
 8003b9e:	b082      	sub	sp, #8
 8003ba0:	af00      	add	r7, sp, #0
 8003ba2:	6078      	str	r0, [r7, #4]
  if ((ticks - 1UL) > SysTick_LOAD_RELOAD_Msk)
 8003ba4:	687b      	ldr	r3, [r7, #4]
 8003ba6:	3b01      	subs	r3, #1
 8003ba8:	f1b3 7f80 	cmp.w	r3, #16777216	@ 0x1000000
 8003bac:	d301      	bcc.n	8003bb2 <SysTick_Config+0x16>
  {
    return (1UL);                                                   /* Reload value impossible */
 8003bae:	2301      	movs	r3, #1
 8003bb0:	e00f      	b.n	8003bd2 <SysTick_Config+0x36>
  }

  SysTick->LOAD  = (uint32_t)(ticks - 1UL);                         /* set reload register */
 8003bb2:	4a0a      	ldr	r2, [pc, #40]	@ (8003bdc <SysTick_Config+0x40>)
 8003bb4:	687b      	ldr	r3, [r7, #4]
 8003bb6:	3b01      	subs	r3, #1
 8003bb8:	6053      	str	r3, [r2, #4]
  NVIC_SetPriority (SysTick_IRQn, (1UL << __NVIC_PRIO_BITS) - 1UL); /* set Priority for Systick Interrupt */
 8003bba:	210f      	movs	r1, #15
 8003bbc:	f04f 30ff 	mov.w	r0, #4294967295
 8003bc0:	f7ff ff90 	bl	8003ae4 <__NVIC_SetPriority>
  SysTick->VAL   = 0UL;                                             /* Load the SysTick Counter Value */
 8003bc4:	4b05      	ldr	r3, [pc, #20]	@ (8003bdc <SysTick_Config+0x40>)
 8003bc6:	2200      	movs	r2, #0
 8003bc8:	609a      	str	r2, [r3, #8]
  SysTick->CTRL  = SysTick_CTRL_CLKSOURCE_Msk |
 8003bca:	4b04      	ldr	r3, [pc, #16]	@ (8003bdc <SysTick_Config+0x40>)
 8003bcc:	2207      	movs	r2, #7
 8003bce:	601a      	str	r2, [r3, #0]
                   SysTick_CTRL_TICKINT_Msk   |
                   SysTick_CTRL_ENABLE_Msk;                         /* Enable SysTick IRQ and SysTick Timer */
  return (0UL);                                                     /* Function successful */
 8003bd0:	2300      	movs	r3, #0
}
 8003bd2:	4618      	mov	r0, r3
 8003bd4:	3708      	adds	r7, #8
 8003bd6:	46bd      	mov	sp, r7
 8003bd8:	bd80      	pop	{r7, pc}
 8003bda:	bf00      	nop
 8003bdc:	e000e010 	.word	0xe000e010

08003be0 <HAL_NVIC_SetPriorityGrouping>:
  * @note   When the NVIC_PriorityGroup_0 is selected, IRQ preemption is no more possible. 
  *         The pending IRQ priority will be managed only by the subpriority. 
  * @retval None
  */
void HAL_NVIC_SetPriorityGrouping(uint32_t PriorityGroup)
{
 8003be0:	b580      	push	{r7, lr}
 8003be2:	b082      	sub	sp, #8
 8003be4:	af00      	add	r7, sp, #0
 8003be6:	6078      	str	r0, [r7, #4]
  /* Check the parameters */
  assert_param(IS_NVIC_PRIORITY_GROUP(PriorityGroup));
  
  /* Set the PRIGROUP[10:8] bits according to the PriorityGroup parameter value */
  NVIC_SetPriorityGrouping(PriorityGroup);
 8003be8:	6878      	ldr	r0, [r7, #4]
 8003bea:	f7ff ff2d 	bl	8003a48 <__NVIC_SetPriorityGrouping>
}
 8003bee:	bf00      	nop
 8003bf0:	3708      	adds	r7, #8
 8003bf2:	46bd      	mov	sp, r7
 8003bf4:	bd80      	pop	{r7, pc}

08003bf6 <HAL_NVIC_SetPriority>:
  *         This parameter can be a value between 0 and 15
  *         A lower priority value indicates a higher priority.          
  * @retval None
  */
void HAL_NVIC_SetPriority(IRQn_Type IRQn, uint32_t PreemptPriority, uint32_t SubPriority)
{ 
 8003bf6:	b580      	push	{r7, lr}
 8003bf8:	b086      	sub	sp, #24
 8003bfa:	af00      	add	r7, sp, #0
 8003bfc:	4603      	mov	r3, r0
 8003bfe:	60b9      	str	r1, [r7, #8]
 8003c00:	607a      	str	r2, [r7, #4]
 8003c02:	73fb      	strb	r3, [r7, #15]
  uint32_t prioritygroup = 0x00U;
 8003c04:	2300      	movs	r3, #0
 8003c06:	617b      	str	r3, [r7, #20]
  
  /* Check the parameters */
  assert_param(IS_NVIC_SUB_PRIORITY(SubPriority));
  assert_param(IS_NVIC_PREEMPTION_PRIORITY(PreemptPriority));
  
  prioritygroup = NVIC_GetPriorityGrouping();
 8003c08:	f7ff ff42 	bl	8003a90 <__NVIC_GetPriorityGrouping>
 8003c0c:	6178      	str	r0, [r7, #20]
  
  NVIC_SetPriority(IRQn, NVIC_EncodePriority(prioritygroup, PreemptPriority, SubPriority));
 8003c0e:	687a      	ldr	r2, [r7, #4]
 8003c10:	68b9      	ldr	r1, [r7, #8]
 8003c12:	6978      	ldr	r0, [r7, #20]
 8003c14:	f7ff ff90 	bl	8003b38 <NVIC_EncodePriority>
 8003c18:	4602      	mov	r2, r0
 8003c1a:	f997 300f 	ldrsb.w	r3, [r7, #15]
 8003c1e:	4611      	mov	r1, r2
 8003c20:	4618      	mov	r0, r3
 8003c22:	f7ff ff5f 	bl	8003ae4 <__NVIC_SetPriority>
}
 8003c26:	bf00      	nop
 8003c28:	3718      	adds	r7, #24
 8003c2a:	46bd      	mov	sp, r7
 8003c2c:	bd80      	pop	{r7, pc}

08003c2e <HAL_NVIC_EnableIRQ>:
  *         This parameter can be an enumerator of IRQn_Type enumeration
  *         (For the complete STM32 Devices IRQ Channels list, please refer to the appropriate CMSIS device file (stm32f10xxx.h))
  * @retval None
  */
void HAL_NVIC_EnableIRQ(IRQn_Type IRQn)
{
 8003c2e:	b580      	push	{r7, lr}
 8003c30:	b082      	sub	sp, #8
 8003c32:	af00      	add	r7, sp, #0
 8003c34:	4603      	mov	r3, r0
 8003c36:	71fb      	strb	r3, [r7, #7]
  /* Check the parameters */
  assert_param(IS_NVIC_DEVICE_IRQ(IRQn));

  /* Enable interrupt */
  NVIC_EnableIRQ(IRQn);
 8003c38:	f997 3007 	ldrsb.w	r3, [r7, #7]
 8003c3c:	4618      	mov	r0, r3
 8003c3e:	f7ff ff35 	bl	8003aac <__NVIC_EnableIRQ>
}
 8003c42:	bf00      	nop
 8003c44:	3708      	adds	r7, #8
 8003c46:	46bd      	mov	sp, r7
 8003c48:	bd80      	pop	{r7, pc}

08003c4a <HAL_SYSTICK_Config>:
  * @param  TicksNumb: Specifies the ticks Number of ticks between two interrupts.
  * @retval status:  - 0  Function succeeded.
  *                  - 1  Function failed.
  */
uint32_t HAL_SYSTICK_Config(uint32_t TicksNumb)
{
 8003c4a:	b580      	push	{r7, lr}
 8003c4c:	b082      	sub	sp, #8
 8003c4e:	af00      	add	r7, sp, #0
 8003c50:	6078      	str	r0, [r7, #4]
   return SysTick_Config(TicksNumb);
 8003c52:	6878      	ldr	r0, [r7, #4]
 8003c54:	f7ff ffa2 	bl	8003b9c <SysTick_Config>
 8003c58:	4603      	mov	r3, r0
}
 8003c5a:	4618      	mov	r0, r3
 8003c5c:	3708      	adds	r7, #8
 8003c5e:	46bd      	mov	sp, r7
 8003c60:	bd80      	pop	{r7, pc}
	...

08003c64 <HAL_DMA_Init>:
  * @param  hdma: Pointer to a DMA_HandleTypeDef structure that contains
  *               the configuration information for the specified DMA Channel.
  * @retval HAL status
  */
HAL_StatusTypeDef HAL_DMA_Init(DMA_HandleTypeDef *hdma)
{
 8003c64:	b480      	push	{r7}
 8003c66:	b085      	sub	sp, #20
 8003c68:	af00      	add	r7, sp, #0
 8003c6a:	6078      	str	r0, [r7, #4]
  uint32_t tmp = 0U;
 8003c6c:	2300      	movs	r3, #0
 8003c6e:	60fb      	str	r3, [r7, #12]

  /* Check the DMA handle allocation */
  if(hdma == NULL)
 8003c70:	687b      	ldr	r3, [r7, #4]
 8003c72:	2b00      	cmp	r3, #0
 8003c74:	d101      	bne.n	8003c7a <HAL_DMA_Init+0x16>
  {
    return HAL_ERROR;
 8003c76:	2301      	movs	r3, #1
 8003c78:	e043      	b.n	8003d02 <HAL_DMA_Init+0x9e>
    hdma->ChannelIndex = (((uint32_t)hdma->Instance - (uint32_t)DMA2_Channel1) / ((uint32_t)DMA2_Channel2 - (uint32_t)DMA2_Channel1)) << 2;
    hdma->DmaBaseAddress = DMA2;
  }
#else
  /* DMA1 */
  hdma->ChannelIndex = (((uint32_t)hdma->Instance - (uint32_t)DMA1_Channel1) / ((uint32_t)DMA1_Channel2 - (uint32_t)DMA1_Channel1)) << 2;
 8003c7a:	687b      	ldr	r3, [r7, #4]
 8003c7c:	681b      	ldr	r3, [r3, #0]
 8003c7e:	461a      	mov	r2, r3
 8003c80:	4b22      	ldr	r3, [pc, #136]	@ (8003d0c <HAL_DMA_Init+0xa8>)
 8003c82:	4413      	add	r3, r2
 8003c84:	4a22      	ldr	r2, [pc, #136]	@ (8003d10 <HAL_DMA_Init+0xac>)
 8003c86:	fba2 2303 	umull	r2, r3, r2, r3
 8003c8a:	091b      	lsrs	r3, r3, #4
 8003c8c:	009a      	lsls	r2, r3, #2
 8003c8e:	687b      	ldr	r3, [r7, #4]
 8003c90:	641a      	str	r2, [r3, #64]	@ 0x40
  hdma->DmaBaseAddress = DMA1;
 8003c92:	687b      	ldr	r3, [r7, #4]
 8003c94:	4a1f      	ldr	r2, [pc, #124]	@ (8003d14 <HAL_DMA_Init+0xb0>)
 8003c96:	63da      	str	r2, [r3, #60]	@ 0x3c
#endif /* DMA2 */

  /* Change DMA peripheral state */
  hdma->State = HAL_DMA_STATE_BUSY;
 8003c98:	687b      	ldr	r3, [r7, #4]
 8003c9a:	2202      	movs	r2, #2
 8003c9c:	f883 2021 	strb.w	r2, [r3, #33]	@ 0x21

  /* Get the CR register value */
  tmp = hdma->Instance->CCR;
 8003ca0:	687b      	ldr	r3, [r7, #4]
 8003ca2:	681b      	ldr	r3, [r3, #0]
 8003ca4:	681b      	ldr	r3, [r3, #0]
 8003ca6:	60fb      	str	r3, [r7, #12]

  /* Clear PL, MSIZE, PSIZE, MINC, PINC, CIRC and DIR bits */
  tmp &= ((uint32_t)~(DMA_CCR_PL    | DMA_CCR_MSIZE  | DMA_CCR_PSIZE  | \
 8003ca8:	68fb      	ldr	r3, [r7, #12]
 8003caa:	f423 537f 	bic.w	r3, r3, #16320	@ 0x3fc0
 8003cae:	f023 0330 	bic.w	r3, r3, #48	@ 0x30
 8003cb2:	60fb      	str	r3, [r7, #12]
                      DMA_CCR_MINC  | DMA_CCR_PINC   | DMA_CCR_CIRC   | \
                      DMA_CCR_DIR));

  /* Prepare the DMA Channel configuration */
  tmp |=  hdma->Init.Direction        |
 8003cb4:	687b      	ldr	r3, [r7, #4]
 8003cb6:	685a      	ldr	r2, [r3, #4]
          hdma->Init.PeriphInc           | hdma->Init.MemInc           |
 8003cb8:	687b      	ldr	r3, [r7, #4]
 8003cba:	689b      	ldr	r3, [r3, #8]
  tmp |=  hdma->Init.Direction        |
 8003cbc:	431a      	orrs	r2, r3
          hdma->Init.PeriphInc           | hdma->Init.MemInc           |
 8003cbe:	687b      	ldr	r3, [r7, #4]
 8003cc0:	68db      	ldr	r3, [r3, #12]
 8003cc2:	431a      	orrs	r2, r3
          hdma->Init.PeriphDataAlignment | hdma->Init.MemDataAlignment |
 8003cc4:	687b      	ldr	r3, [r7, #4]
 8003cc6:	691b      	ldr	r3, [r3, #16]
          hdma->Init.PeriphInc           | hdma->Init.MemInc           |
 8003cc8:	431a      	orrs	r2, r3
          hdma->Init.PeriphDataAlignment | hdma->Init.MemDataAlignment |
 8003cca:	687b      	ldr	r3, [r7, #4]
 8003ccc:	695b      	ldr	r3, [r3, #20]
 8003cce:	431a      	orrs	r2, r3
          hdma->Init.Mode                | hdma->Init.Priority;
 8003cd0:	687b      	ldr	r3, [r7, #4]
 8003cd2:	699b      	ldr	r3, [r3, #24]
          hdma->Init.PeriphDataAlignment | hdma->Init.MemDataAlignment |
 8003cd4:	431a      	orrs	r2, r3
          hdma->Init.Mode                | hdma->Init.Priority;
 8003cd6:	687b      	ldr	r3, [r7, #4]
 8003cd8:	69db      	ldr	r3, [r3, #28]
 8003cda:	4313      	orrs	r3, r2
  tmp |=  hdma->Init.Direction        |
 8003cdc:	68fa      	ldr	r2, [r7, #12]
 8003cde:	4313      	orrs	r3, r2
 8003ce0:	60fb      	str	r3, [r7, #12]

  /* Write to DMA Channel CR register */
  hdma->Instance->CCR = tmp;
 8003ce2:	687b      	ldr	r3, [r7, #4]
 8003ce4:	681b      	ldr	r3, [r3, #0]
 8003ce6:	68fa      	ldr	r2, [r7, #12]
 8003ce8:	601a      	str	r2, [r3, #0]

  /* Initialise the error code */
  hdma->ErrorCode = HAL_DMA_ERROR_NONE;
 8003cea:	687b      	ldr	r3, [r7, #4]
 8003cec:	2200      	movs	r2, #0
 8003cee:	639a      	str	r2, [r3, #56]	@ 0x38

  /* Initialize the DMA state*/
  hdma->State = HAL_DMA_STATE_READY;
 8003cf0:	687b      	ldr	r3, [r7, #4]
 8003cf2:	2201      	movs	r2, #1
 8003cf4:	f883 2021 	strb.w	r2, [r3, #33]	@ 0x21
  /* Allocate lock resource and initialize it */
  hdma->Lock = HAL_UNLOCKED;
 8003cf8:	687b      	ldr	r3, [r7, #4]
 8003cfa:	2200      	movs	r2, #0
 8003cfc:	f883 2020 	strb.w	r2, [r3, #32]

  return HAL_OK;
 8003d00:	2300      	movs	r3, #0
}
 8003d02:	4618      	mov	r0, r3
 8003d04:	3714      	adds	r7, #20
 8003d06:	46bd      	mov	sp, r7
 8003d08:	bc80      	pop	{r7}
 8003d0a:	4770      	bx	lr
 8003d0c:	bffdfff8 	.word	0xbffdfff8
 8003d10:	cccccccd 	.word	0xcccccccd
 8003d14:	40020000 	.word	0x40020000

08003d18 <HAL_DMA_Start_IT>:
  * @param  DstAddress: The destination memory Buffer address
  * @param  DataLength: The length of data to be transferred from source to destination
  * @retval HAL status
  */
HAL_StatusTypeDef HAL_DMA_Start_IT(DMA_HandleTypeDef *hdma, uint32_t SrcAddress, uint32_t DstAddress, uint32_t DataLength)
{
 8003d18:	b580      	push	{r7, lr}
 8003d1a:	b086      	sub	sp, #24
 8003d1c:	af00      	add	r7, sp, #0
 8003d1e:	60f8      	str	r0, [r7, #12]
 8003d20:	60b9      	str	r1, [r7, #8]
 8003d22:	607a      	str	r2, [r7, #4]
 8003d24:	603b      	str	r3, [r7, #0]
  HAL_StatusTypeDef status = HAL_OK;
 8003d26:	2300      	movs	r3, #0
 8003d28:	75fb      	strb	r3, [r7, #23]

  /* Check the parameters */
  assert_param(IS_DMA_BUFFER_SIZE(DataLength));

  /* Process locked */
  __HAL_LOCK(hdma);
 8003d2a:	68fb      	ldr	r3, [r7, #12]
 8003d2c:	f893 3020 	ldrb.w	r3, [r3, #32]
 8003d30:	2b01      	cmp	r3, #1
 8003d32:	d101      	bne.n	8003d38 <HAL_DMA_Start_IT+0x20>
 8003d34:	2302      	movs	r3, #2
 8003d36:	e04b      	b.n	8003dd0 <HAL_DMA_Start_IT+0xb8>
 8003d38:	68fb      	ldr	r3, [r7, #12]
 8003d3a:	2201      	movs	r2, #1
 8003d3c:	f883 2020 	strb.w	r2, [r3, #32]
  
  if(HAL_DMA_STATE_READY == hdma->State)
 8003d40:	68fb      	ldr	r3, [r7, #12]
 8003d42:	f893 3021 	ldrb.w	r3, [r3, #33]	@ 0x21
 8003d46:	b2db      	uxtb	r3, r3
 8003d48:	2b01      	cmp	r3, #1
 8003d4a:	d13a      	bne.n	8003dc2 <HAL_DMA_Start_IT+0xaa>
  {
    /* Change DMA peripheral state */
    hdma->State = HAL_DMA_STATE_BUSY;
 8003d4c:	68fb      	ldr	r3, [r7, #12]
 8003d4e:	2202      	movs	r2, #2
 8003d50:	f883 2021 	strb.w	r2, [r3, #33]	@ 0x21
    hdma->ErrorCode = HAL_DMA_ERROR_NONE;
 8003d54:	68fb      	ldr	r3, [r7, #12]
 8003d56:	2200      	movs	r2, #0
 8003d58:	639a      	str	r2, [r3, #56]	@ 0x38
    
    /* Disable the peripheral */
    __HAL_DMA_DISABLE(hdma);
 8003d5a:	68fb      	ldr	r3, [r7, #12]
 8003d5c:	681b      	ldr	r3, [r3, #0]
 8003d5e:	681a      	ldr	r2, [r3, #0]
 8003d60:	68fb      	ldr	r3, [r7, #12]
 8003d62:	681b      	ldr	r3, [r3, #0]
 8003d64:	f022 0201 	bic.w	r2, r2, #1
 8003d68:	601a      	str	r2, [r3, #0]
    
    /* Configure the source, destination address and the data length & clear flags*/
    DMA_SetConfig(hdma, SrcAddress, DstAddress, DataLength);
 8003d6a:	683b      	ldr	r3, [r7, #0]
 8003d6c:	687a      	ldr	r2, [r7, #4]
 8003d6e:	68b9      	ldr	r1, [r7, #8]
 8003d70:	68f8      	ldr	r0, [r7, #12]
 8003d72:	f000 f9eb 	bl	800414c <DMA_SetConfig>
    
    /* Enable the transfer complete interrupt */
    /* Enable the transfer Error interrupt */
    if(NULL != hdma->XferHalfCpltCallback)
 8003d76:	68fb      	ldr	r3, [r7, #12]
 8003d78:	6adb      	ldr	r3, [r3, #44]	@ 0x2c
 8003d7a:	2b00      	cmp	r3, #0
 8003d7c:	d008      	beq.n	8003d90 <HAL_DMA_Start_IT+0x78>
    {
      /* Enable the Half transfer complete interrupt as well */
      __HAL_DMA_ENABLE_IT(hdma, (DMA_IT_TC | DMA_IT_HT | DMA_IT_TE));
 8003d7e:	68fb      	ldr	r3, [r7, #12]
 8003d80:	681b      	ldr	r3, [r3, #0]
 8003d82:	681a      	ldr	r2, [r3, #0]
 8003d84:	68fb      	ldr	r3, [r7, #12]
 8003d86:	681b      	ldr	r3, [r3, #0]
 8003d88:	f042 020e 	orr.w	r2, r2, #14
 8003d8c:	601a      	str	r2, [r3, #0]
 8003d8e:	e00f      	b.n	8003db0 <HAL_DMA_Start_IT+0x98>
    }
    else
    {
      __HAL_DMA_DISABLE_IT(hdma, DMA_IT_HT);
 8003d90:	68fb      	ldr	r3, [r7, #12]
 8003d92:	681b      	ldr	r3, [r3, #0]
 8003d94:	681a      	ldr	r2, [r3, #0]
 8003d96:	68fb      	ldr	r3, [r7, #12]
 8003d98:	681b      	ldr	r3, [r3, #0]
 8003d9a:	f022 0204 	bic.w	r2, r2, #4
 8003d9e:	601a      	str	r2, [r3, #0]
      __HAL_DMA_ENABLE_IT(hdma, (DMA_IT_TC | DMA_IT_TE));
 8003da0:	68fb      	ldr	r3, [r7, #12]
 8003da2:	681b      	ldr	r3, [r3, #0]
 8003da4:	681a      	ldr	r2, [r3, #0]
 8003da6:	68fb      	ldr	r3, [r7, #12]
 8003da8:	681b      	ldr	r3, [r3, #0]
 8003daa:	f042 020a 	orr.w	r2, r2, #10
 8003dae:	601a      	str	r2, [r3, #0]
    }
    /* Enable the Peripheral */
    __HAL_DMA_ENABLE(hdma);
 8003db0:	68fb      	ldr	r3, [r7, #12]
 8003db2:	681b      	ldr	r3, [r3, #0]
 8003db4:	681a      	ldr	r2, [r3, #0]
 8003db6:	68fb      	ldr	r3, [r7, #12]
 8003db8:	681b      	ldr	r3, [r3, #0]
 8003dba:	f042 0201 	orr.w	r2, r2, #1
 8003dbe:	601a      	str	r2, [r3, #0]
 8003dc0:	e005      	b.n	8003dce <HAL_DMA_Start_IT+0xb6>
  }
  else
  {      
    /* Process Unlocked */
    __HAL_UNLOCK(hdma); 
 8003dc2:	68fb      	ldr	r3, [r7, #12]
 8003dc4:	2200      	movs	r2, #0
 8003dc6:	f883 2020 	strb.w	r2, [r3, #32]

    /* Remain BUSY */
    status = HAL_BUSY;
 8003dca:	2302      	movs	r3, #2
 8003dcc:	75fb      	strb	r3, [r7, #23]
  }    
  return status;
 8003dce:	7dfb      	ldrb	r3, [r7, #23]
}
 8003dd0:	4618      	mov	r0, r3
 8003dd2:	3718      	adds	r7, #24
 8003dd4:	46bd      	mov	sp, r7
 8003dd6:	bd80      	pop	{r7, pc}

08003dd8 <HAL_DMA_Abort>:
  * @param  hdma: pointer to a DMA_HandleTypeDef structure that contains
  *               the configuration information for the specified DMA Channel.
  * @retval HAL status
  */
HAL_StatusTypeDef HAL_DMA_Abort(DMA_HandleTypeDef *hdma)
{
 8003dd8:	b480      	push	{r7}
 8003dda:	b085      	sub	sp, #20
 8003ddc:	af00      	add	r7, sp, #0
 8003dde:	6078      	str	r0, [r7, #4]
  HAL_StatusTypeDef status = HAL_OK;
 8003de0:	2300      	movs	r3, #0
 8003de2:	73fb      	strb	r3, [r7, #15]
  
  if(hdma->State != HAL_DMA_STATE_BUSY)
 8003de4:	687b      	ldr	r3, [r7, #4]
 8003de6:	f893 3021 	ldrb.w	r3, [r3, #33]	@ 0x21
 8003dea:	b2db      	uxtb	r3, r3
 8003dec:	2b02      	cmp	r3, #2
 8003dee:	d008      	beq.n	8003e02 <HAL_DMA_Abort+0x2a>
  {
    /* no transfer ongoing */
    hdma->ErrorCode = HAL_DMA_ERROR_NO_XFER;
 8003df0:	687b      	ldr	r3, [r7, #4]
 8003df2:	2204      	movs	r2, #4
 8003df4:	639a      	str	r2, [r3, #56]	@ 0x38
    
    /* Process Unlocked */
    __HAL_UNLOCK(hdma);
 8003df6:	687b      	ldr	r3, [r7, #4]
 8003df8:	2200      	movs	r2, #0
 8003dfa:	f883 2020 	strb.w	r2, [r3, #32]
    
    return HAL_ERROR;
 8003dfe:	2301      	movs	r3, #1
 8003e00:	e020      	b.n	8003e44 <HAL_DMA_Abort+0x6c>
  }
  else

  {
    /* Disable DMA IT */
    __HAL_DMA_DISABLE_IT(hdma, (DMA_IT_TC | DMA_IT_HT | DMA_IT_TE));
 8003e02:	687b      	ldr	r3, [r7, #4]
 8003e04:	681b      	ldr	r3, [r3, #0]
 8003e06:	681a      	ldr	r2, [r3, #0]
 8003e08:	687b      	ldr	r3, [r7, #4]
 8003e0a:	681b      	ldr	r3, [r3, #0]
 8003e0c:	f022 020e 	bic.w	r2, r2, #14
 8003e10:	601a      	str	r2, [r3, #0]
      
    /* Disable the channel */
    __HAL_DMA_DISABLE(hdma);
 8003e12:	687b      	ldr	r3, [r7, #4]
 8003e14:	681b      	ldr	r3, [r3, #0]
 8003e16:	681a      	ldr	r2, [r3, #0]
 8003e18:	687b      	ldr	r3, [r7, #4]
 8003e1a:	681b      	ldr	r3, [r3, #0]
 8003e1c:	f022 0201 	bic.w	r2, r2, #1
 8003e20:	601a      	str	r2, [r3, #0]
      
    /* Clear all flags */
    hdma->DmaBaseAddress->IFCR = (DMA_ISR_GIF1 << hdma->ChannelIndex);
 8003e22:	687b      	ldr	r3, [r7, #4]
 8003e24:	6c1a      	ldr	r2, [r3, #64]	@ 0x40
 8003e26:	687b      	ldr	r3, [r7, #4]
 8003e28:	6bdb      	ldr	r3, [r3, #60]	@ 0x3c
 8003e2a:	2101      	movs	r1, #1
 8003e2c:	fa01 f202 	lsl.w	r2, r1, r2
 8003e30:	605a      	str	r2, [r3, #4]
  }
  /* Change the DMA state */
  hdma->State = HAL_DMA_STATE_READY;
 8003e32:	687b      	ldr	r3, [r7, #4]
 8003e34:	2201      	movs	r2, #1
 8003e36:	f883 2021 	strb.w	r2, [r3, #33]	@ 0x21

  /* Process Unlocked */
  __HAL_UNLOCK(hdma);      
 8003e3a:	687b      	ldr	r3, [r7, #4]
 8003e3c:	2200      	movs	r2, #0
 8003e3e:	f883 2020 	strb.w	r2, [r3, #32]
  
  return status; 
 8003e42:	7bfb      	ldrb	r3, [r7, #15]
}
 8003e44:	4618      	mov	r0, r3
 8003e46:	3714      	adds	r7, #20
 8003e48:	46bd      	mov	sp, r7
 8003e4a:	bc80      	pop	{r7}
 8003e4c:	4770      	bx	lr
	...

08003e50 <HAL_DMA_Abort_IT>:
  * @param  hdma  : pointer to a DMA_HandleTypeDef structure that contains
  *                 the configuration information for the specified DMA Channel.
  * @retval HAL status
  */
HAL_StatusTypeDef HAL_DMA_Abort_IT(DMA_HandleTypeDef *hdma)
{  
 8003e50:	b580      	push	{r7, lr}
 8003e52:	b084      	sub	sp, #16
 8003e54:	af00      	add	r7, sp, #0
 8003e56:	6078      	str	r0, [r7, #4]
  HAL_StatusTypeDef status = HAL_OK;
 8003e58:	2300      	movs	r3, #0
 8003e5a:	73fb      	strb	r3, [r7, #15]
  
  if(HAL_DMA_STATE_BUSY != hdma->State)
 8003e5c:	687b      	ldr	r3, [r7, #4]
 8003e5e:	f893 3021 	ldrb.w	r3, [r3, #33]	@ 0x21
 8003e62:	b2db      	uxtb	r3, r3
 8003e64:	2b02      	cmp	r3, #2
 8003e66:	d005      	beq.n	8003e74 <HAL_DMA_Abort_IT+0x24>
  {
    /* no transfer ongoing */
    hdma->ErrorCode = HAL_DMA_ERROR_NO_XFER;
 8003e68:	687b      	ldr	r3, [r7, #4]
 8003e6a:	2204      	movs	r2, #4
 8003e6c:	639a      	str	r2, [r3, #56]	@ 0x38
        
    status = HAL_ERROR;
 8003e6e:	2301      	movs	r3, #1
 8003e70:	73fb      	strb	r3, [r7, #15]
 8003e72:	e051      	b.n	8003f18 <HAL_DMA_Abort_IT+0xc8>
  }
  else
  { 
    /* Disable DMA IT */
    __HAL_DMA_DISABLE_IT(hdma, (DMA_IT_TC | DMA_IT_HT | DMA_IT_TE));
 8003e74:	687b      	ldr	r3, [r7, #4]
 8003e76:	681b      	ldr	r3, [r3, #0]
 8003e78:	681a      	ldr	r2, [r3, #0]
 8003e7a:	687b      	ldr	r3, [r7, #4]
 8003e7c:	681b      	ldr	r3, [r3, #0]
 8003e7e:	f022 020e 	bic.w	r2, r2, #14
 8003e82:	601a      	str	r2, [r3, #0]

    /* Disable the channel */
    __HAL_DMA_DISABLE(hdma);
 8003e84:	687b      	ldr	r3, [r7, #4]
 8003e86:	681b      	ldr	r3, [r3, #0]
 8003e88:	681a      	ldr	r2, [r3, #0]
 8003e8a:	687b      	ldr	r3, [r7, #4]
 8003e8c:	681b      	ldr	r3, [r3, #0]
 8003e8e:	f022 0201 	bic.w	r2, r2, #1
 8003e92:	601a      	str	r2, [r3, #0]

    /* Clear all flags */
    __HAL_DMA_CLEAR_FLAG(hdma, __HAL_DMA_GET_GI_FLAG_INDEX(hdma));
 8003e94:	687b      	ldr	r3, [r7, #4]
 8003e96:	681b      	ldr	r3, [r3, #0]
 8003e98:	4a22      	ldr	r2, [pc, #136]	@ (8003f24 <HAL_DMA_Abort_IT+0xd4>)
 8003e9a:	4293      	cmp	r3, r2
 8003e9c:	d029      	beq.n	8003ef2 <HAL_DMA_Abort_IT+0xa2>
 8003e9e:	687b      	ldr	r3, [r7, #4]
 8003ea0:	681b      	ldr	r3, [r3, #0]
 8003ea2:	4a21      	ldr	r2, [pc, #132]	@ (8003f28 <HAL_DMA_Abort_IT+0xd8>)
 8003ea4:	4293      	cmp	r3, r2
 8003ea6:	d022      	beq.n	8003eee <HAL_DMA_Abort_IT+0x9e>
 8003ea8:	687b      	ldr	r3, [r7, #4]
 8003eaa:	681b      	ldr	r3, [r3, #0]
 8003eac:	4a1f      	ldr	r2, [pc, #124]	@ (8003f2c <HAL_DMA_Abort_IT+0xdc>)
 8003eae:	4293      	cmp	r3, r2
 8003eb0:	d01a      	beq.n	8003ee8 <HAL_DMA_Abort_IT+0x98>
 8003eb2:	687b      	ldr	r3, [r7, #4]
 8003eb4:	681b      	ldr	r3, [r3, #0]
 8003eb6:	4a1e      	ldr	r2, [pc, #120]	@ (8003f30 <HAL_DMA_Abort_IT+0xe0>)
 8003eb8:	4293      	cmp	r3, r2
 8003eba:	d012      	beq.n	8003ee2 <HAL_DMA_Abort_IT+0x92>
 8003ebc:	687b      	ldr	r3, [r7, #4]
 8003ebe:	681b      	ldr	r3, [r3, #0]
 8003ec0:	4a1c      	ldr	r2, [pc, #112]	@ (8003f34 <HAL_DMA_Abort_IT+0xe4>)
 8003ec2:	4293      	cmp	r3, r2
 8003ec4:	d00a      	beq.n	8003edc <HAL_DMA_Abort_IT+0x8c>
 8003ec6:	687b      	ldr	r3, [r7, #4]
 8003ec8:	681b      	ldr	r3, [r3, #0]
 8003eca:	4a1b      	ldr	r2, [pc, #108]	@ (8003f38 <HAL_DMA_Abort_IT+0xe8>)
 8003ecc:	4293      	cmp	r3, r2
 8003ece:	d102      	bne.n	8003ed6 <HAL_DMA_Abort_IT+0x86>
 8003ed0:	f44f 1380 	mov.w	r3, #1048576	@ 0x100000
 8003ed4:	e00e      	b.n	8003ef4 <HAL_DMA_Abort_IT+0xa4>
 8003ed6:	f04f 7380 	mov.w	r3, #16777216	@ 0x1000000
 8003eda:	e00b      	b.n	8003ef4 <HAL_DMA_Abort_IT+0xa4>
 8003edc:	f44f 3380 	mov.w	r3, #65536	@ 0x10000
 8003ee0:	e008      	b.n	8003ef4 <HAL_DMA_Abort_IT+0xa4>
 8003ee2:	f44f 5380 	mov.w	r3, #4096	@ 0x1000
 8003ee6:	e005      	b.n	8003ef4 <HAL_DMA_Abort_IT+0xa4>
 8003ee8:	f44f 7380 	mov.w	r3, #256	@ 0x100
 8003eec:	e002      	b.n	8003ef4 <HAL_DMA_Abort_IT+0xa4>
 8003eee:	2310      	movs	r3, #16
 8003ef0:	e000      	b.n	8003ef4 <HAL_DMA_Abort_IT+0xa4>
 8003ef2:	2301      	movs	r3, #1
 8003ef4:	4a11      	ldr	r2, [pc, #68]	@ (8003f3c <HAL_DMA_Abort_IT+0xec>)
 8003ef6:	6053      	str	r3, [r2, #4]

    /* Change the DMA state */
    hdma->State = HAL_DMA_STATE_READY;
 8003ef8:	687b      	ldr	r3, [r7, #4]
 8003efa:	2201      	movs	r2, #1
 8003efc:	f883 2021 	strb.w	r2, [r3, #33]	@ 0x21

    /* Process Unlocked */
    __HAL_UNLOCK(hdma);
 8003f00:	687b      	ldr	r3, [r7, #4]
 8003f02:	2200      	movs	r2, #0
 8003f04:	f883 2020 	strb.w	r2, [r3, #32]

    /* Call User Abort callback */
    if(hdma->XferAbortCallback != NULL)
 8003f08:	687b      	ldr	r3, [r7, #4]
 8003f0a:	6b5b      	ldr	r3, [r3, #52]	@ 0x34
 8003f0c:	2b00      	cmp	r3, #0
 8003f0e:	d003      	beq.n	8003f18 <HAL_DMA_Abort_IT+0xc8>
    {
      hdma->XferAbortCallback(hdma);
 8003f10:	687b      	ldr	r3, [r7, #4]
 8003f12:	6b5b      	ldr	r3, [r3, #52]	@ 0x34
 8003f14:	6878      	ldr	r0, [r7, #4]
 8003f16:	4798      	blx	r3
    } 
  }
  return status;
 8003f18:	7bfb      	ldrb	r3, [r7, #15]
}
 8003f1a:	4618      	mov	r0, r3
 8003f1c:	3710      	adds	r7, #16
 8003f1e:	46bd      	mov	sp, r7
 8003f20:	bd80      	pop	{r7, pc}
 8003f22:	bf00      	nop
 8003f24:	40020008 	.word	0x40020008
 8003f28:	4002001c 	.word	0x4002001c
 8003f2c:	40020030 	.word	0x40020030
 8003f30:	40020044 	.word	0x40020044
 8003f34:	40020058 	.word	0x40020058
 8003f38:	4002006c 	.word	0x4002006c
 8003f3c:	40020000 	.word	0x40020000

08003f40 <HAL_DMA_IRQHandler>:
  * @param  hdma: pointer to a DMA_HandleTypeDef structure that contains
  *               the configuration information for the specified DMA Channel.  
  * @retval None
  */
void HAL_DMA_IRQHandler(DMA_HandleTypeDef *hdma)
{
 8003f40:	b580      	push	{r7, lr}
 8003f42:	b084      	sub	sp, #16
 8003f44:	af00      	add	r7, sp, #0
 8003f46:	6078      	str	r0, [r7, #4]
  uint32_t flag_it = hdma->DmaBaseAddress->ISR;
 8003f48:	687b      	ldr	r3, [r7, #4]
 8003f4a:	6bdb      	ldr	r3, [r3, #60]	@ 0x3c
 8003f4c:	681b      	ldr	r3, [r3, #0]
 8003f4e:	60fb      	str	r3, [r7, #12]
  uint32_t source_it = hdma->Instance->CCR;
 8003f50:	687b      	ldr	r3, [r7, #4]
 8003f52:	681b      	ldr	r3, [r3, #0]
 8003f54:	681b      	ldr	r3, [r3, #0]
 8003f56:	60bb      	str	r3, [r7, #8]
  
  /* Half Transfer Complete Interrupt management ******************************/
  if (((flag_it & (DMA_FLAG_HT1 << hdma->ChannelIndex)) != RESET) && ((source_it & DMA_IT_HT) != RESET))
 8003f58:	687b      	ldr	r3, [r7, #4]
 8003f5a:	6c1b      	ldr	r3, [r3, #64]	@ 0x40
 8003f5c:	2204      	movs	r2, #4
 8003f5e:	409a      	lsls	r2, r3
 8003f60:	68fb      	ldr	r3, [r7, #12]
 8003f62:	4013      	ands	r3, r2
 8003f64:	2b00      	cmp	r3, #0
 8003f66:	d04f      	beq.n	8004008 <HAL_DMA_IRQHandler+0xc8>
 8003f68:	68bb      	ldr	r3, [r7, #8]
 8003f6a:	f003 0304 	and.w	r3, r3, #4
 8003f6e:	2b00      	cmp	r3, #0
 8003f70:	d04a      	beq.n	8004008 <HAL_DMA_IRQHandler+0xc8>
  {
    /* Disable the half transfer interrupt if the DMA mode is not CIRCULAR */
    if((hdma->Instance->CCR & DMA_CCR_CIRC) == 0U)
 8003f72:	687b      	ldr	r3, [r7, #4]
 8003f74:	681b      	ldr	r3, [r3, #0]
 8003f76:	681b      	ldr	r3, [r3, #0]
 8003f78:	f003 0320 	and.w	r3, r3, #32
 8003f7c:	2b00      	cmp	r3, #0
 8003f7e:	d107      	bne.n	8003f90 <HAL_DMA_IRQHandler+0x50>
    {
      /* Disable the half transfer interrupt */
      __HAL_DMA_DISABLE_IT(hdma, DMA_IT_HT);
 8003f80:	687b      	ldr	r3, [r7, #4]
 8003f82:	681b      	ldr	r3, [r3, #0]
 8003f84:	681a      	ldr	r2, [r3, #0]
 8003f86:	687b      	ldr	r3, [r7, #4]
 8003f88:	681b      	ldr	r3, [r3, #0]
 8003f8a:	f022 0204 	bic.w	r2, r2, #4
 8003f8e:	601a      	str	r2, [r3, #0]
    }
    /* Clear the half transfer complete flag */
    __HAL_DMA_CLEAR_FLAG(hdma, __HAL_DMA_GET_HT_FLAG_INDEX(hdma));
 8003f90:	687b      	ldr	r3, [r7, #4]
 8003f92:	681b      	ldr	r3, [r3, #0]
 8003f94:	4a66      	ldr	r2, [pc, #408]	@ (8004130 <HAL_DMA_IRQHandler+0x1f0>)
 8003f96:	4293      	cmp	r3, r2
 8003f98:	d029      	beq.n	8003fee <HAL_DMA_IRQHandler+0xae>
 8003f9a:	687b      	ldr	r3, [r7, #4]
 8003f9c:	681b      	ldr	r3, [r3, #0]
 8003f9e:	4a65      	ldr	r2, [pc, #404]	@ (8004134 <HAL_DMA_IRQHandler+0x1f4>)
 8003fa0:	4293      	cmp	r3, r2
 8003fa2:	d022      	beq.n	8003fea <HAL_DMA_IRQHandler+0xaa>
 8003fa4:	687b      	ldr	r3, [r7, #4]
 8003fa6:	681b      	ldr	r3, [r3, #0]
 8003fa8:	4a63      	ldr	r2, [pc, #396]	@ (8004138 <HAL_DMA_IRQHandler+0x1f8>)
 8003faa:	4293      	cmp	r3, r2
 8003fac:	d01a      	beq.n	8003fe4 <HAL_DMA_IRQHandler+0xa4>
 8003fae:	687b      	ldr	r3, [r7, #4]
 8003fb0:	681b      	ldr	r3, [r3, #0]
 8003fb2:	4a62      	ldr	r2, [pc, #392]	@ (800413c <HAL_DMA_IRQHandler+0x1fc>)
 8003fb4:	4293      	cmp	r3, r2
 8003fb6:	d012      	beq.n	8003fde <HAL_DMA_IRQHandler+0x9e>
 8003fb8:	687b      	ldr	r3, [r7, #4]
 8003fba:	681b      	ldr	r3, [r3, #0]
 8003fbc:	4a60      	ldr	r2, [pc, #384]	@ (8004140 <HAL_DMA_IRQHandler+0x200>)
 8003fbe:	4293      	cmp	r3, r2
 8003fc0:	d00a      	beq.n	8003fd8 <HAL_DMA_IRQHandler+0x98>
 8003fc2:	687b      	ldr	r3, [r7, #4]
 8003fc4:	681b      	ldr	r3, [r3, #0]
 8003fc6:	4a5f      	ldr	r2, [pc, #380]	@ (8004144 <HAL_DMA_IRQHandler+0x204>)
 8003fc8:	4293      	cmp	r3, r2
 8003fca:	d102      	bne.n	8003fd2 <HAL_DMA_IRQHandler+0x92>
 8003fcc:	f44f 0380 	mov.w	r3, #4194304	@ 0x400000
 8003fd0:	e00e      	b.n	8003ff0 <HAL_DMA_IRQHandler+0xb0>
 8003fd2:	f04f 6380 	mov.w	r3, #67108864	@ 0x4000000
 8003fd6:	e00b      	b.n	8003ff0 <HAL_DMA_IRQHandler+0xb0>
 8003fd8:	f44f 2380 	mov.w	r3, #262144	@ 0x40000
 8003fdc:	e008      	b.n	8003ff0 <HAL_DMA_IRQHandler+0xb0>
 8003fde:	f44f 4380 	mov.w	r3, #16384	@ 0x4000
 8003fe2:	e005      	b.n	8003ff0 <HAL_DMA_IRQHandler+0xb0>
 8003fe4:	f44f 6380 	mov.w	r3, #1024	@ 0x400
 8003fe8:	e002      	b.n	8003ff0 <HAL_DMA_IRQHandler+0xb0>
 8003fea:	2340      	movs	r3, #64	@ 0x40
 8003fec:	e000      	b.n	8003ff0 <HAL_DMA_IRQHandler+0xb0>
 8003fee:	2304      	movs	r3, #4
 8003ff0:	4a55      	ldr	r2, [pc, #340]	@ (8004148 <HAL_DMA_IRQHandler+0x208>)
 8003ff2:	6053      	str	r3, [r2, #4]

    /* DMA peripheral state is not updated in Half Transfer */
    /* but in Transfer Complete case */

    if(hdma->XferHalfCpltCallback != NULL)
 8003ff4:	687b      	ldr	r3, [r7, #4]
 8003ff6:	6adb      	ldr	r3, [r3, #44]	@ 0x2c
 8003ff8:	2b00      	cmp	r3, #0
 8003ffa:	f000 8094 	beq.w	8004126 <HAL_DMA_IRQHandler+0x1e6>
    {
      /* Half transfer callback */
      hdma->XferHalfCpltCallback(hdma);
 8003ffe:	687b      	ldr	r3, [r7, #4]
 8004000:	6adb      	ldr	r3, [r3, #44]	@ 0x2c
 8004002:	6878      	ldr	r0, [r7, #4]
 8004004:	4798      	blx	r3
    if(hdma->XferHalfCpltCallback != NULL)
 8004006:	e08e      	b.n	8004126 <HAL_DMA_IRQHandler+0x1e6>
    }
  }

  /* Transfer Complete Interrupt management ***********************************/
  else if (((flag_it & (DMA_FLAG_TC1 << hdma->ChannelIndex)) != RESET) && ((source_it & DMA_IT_TC) != RESET))
 8004008:	687b      	ldr	r3, [r7, #4]
 800400a:	6c1b      	ldr	r3, [r3, #64]	@ 0x40
 800400c:	2202      	movs	r2, #2
 800400e:	409a      	lsls	r2, r3
 8004010:	68fb      	ldr	r3, [r7, #12]
 8004012:	4013      	ands	r3, r2
 8004014:	2b00      	cmp	r3, #0
 8004016:	d056      	beq.n	80040c6 <HAL_DMA_IRQHandler+0x186>
 8004018:	68bb      	ldr	r3, [r7, #8]
 800401a:	f003 0302 	and.w	r3, r3, #2
 800401e:	2b00      	cmp	r3, #0
 8004020:	d051      	beq.n	80040c6 <HAL_DMA_IRQHandler+0x186>
  {
    if((hdma->Instance->CCR & DMA_CCR_CIRC) == 0U)
 8004022:	687b      	ldr	r3, [r7, #4]
 8004024:	681b      	ldr	r3, [r3, #0]
 8004026:	681b      	ldr	r3, [r3, #0]
 8004028:	f003 0320 	and.w	r3, r3, #32
 800402c:	2b00      	cmp	r3, #0
 800402e:	d10b      	bne.n	8004048 <HAL_DMA_IRQHandler+0x108>
    {
      /* Disable the transfer complete and error interrupt */
      __HAL_DMA_DISABLE_IT(hdma, DMA_IT_TE | DMA_IT_TC);  
 8004030:	687b      	ldr	r3, [r7, #4]
 8004032:	681b      	ldr	r3, [r3, #0]
 8004034:	681a      	ldr	r2, [r3, #0]
 8004036:	687b      	ldr	r3, [r7, #4]
 8004038:	681b      	ldr	r3, [r3, #0]
 800403a:	f022 020a 	bic.w	r2, r2, #10
 800403e:	601a      	str	r2, [r3, #0]

      /* Change the DMA state */
      hdma->State = HAL_DMA_STATE_READY;
 8004040:	687b      	ldr	r3, [r7, #4]
 8004042:	2201      	movs	r2, #1
 8004044:	f883 2021 	strb.w	r2, [r3, #33]	@ 0x21
    }
    /* Clear the transfer complete flag */
      __HAL_DMA_CLEAR_FLAG(hdma, __HAL_DMA_GET_TC_FLAG_INDEX(hdma));
 8004048:	687b      	ldr	r3, [r7, #4]
 800404a:	681b      	ldr	r3, [r3, #0]
 800404c:	4a38      	ldr	r2, [pc, #224]	@ (8004130 <HAL_DMA_IRQHandler+0x1f0>)
 800404e:	4293      	cmp	r3, r2
 8004050:	d029      	beq.n	80040a6 <HAL_DMA_IRQHandler+0x166>
 8004052:	687b      	ldr	r3, [r7, #4]
 8004054:	681b      	ldr	r3, [r3, #0]
 8004056:	4a37      	ldr	r2, [pc, #220]	@ (8004134 <HAL_DMA_IRQHandler+0x1f4>)
 8004058:	4293      	cmp	r3, r2
 800405a:	d022      	beq.n	80040a2 <HAL_DMA_IRQHandler+0x162>
 800405c:	687b      	ldr	r3, [r7, #4]
 800405e:	681b      	ldr	r3, [r3, #0]
 8004060:	4a35      	ldr	r2, [pc, #212]	@ (8004138 <HAL_DMA_IRQHandler+0x1f8>)
 8004062:	4293      	cmp	r3, r2
 8004064:	d01a      	beq.n	800409c <HAL_DMA_IRQHandler+0x15c>
 8004066:	687b      	ldr	r3, [r7, #4]
 8004068:	681b      	ldr	r3, [r3, #0]
 800406a:	4a34      	ldr	r2, [pc, #208]	@ (800413c <HAL_DMA_IRQHandler+0x1fc>)
 800406c:	4293      	cmp	r3, r2
 800406e:	d012      	beq.n	8004096 <HAL_DMA_IRQHandler+0x156>
 8004070:	687b      	ldr	r3, [r7, #4]
 8004072:	681b      	ldr	r3, [r3, #0]
 8004074:	4a32      	ldr	r2, [pc, #200]	@ (8004140 <HAL_DMA_IRQHandler+0x200>)
 8004076:	4293      	cmp	r3, r2
 8004078:	d00a      	beq.n	8004090 <HAL_DMA_IRQHandler+0x150>
 800407a:	687b      	ldr	r3, [r7, #4]
 800407c:	681b      	ldr	r3, [r3, #0]
 800407e:	4a31      	ldr	r2, [pc, #196]	@ (8004144 <HAL_DMA_IRQHandler+0x204>)
 8004080:	4293      	cmp	r3, r2
 8004082:	d102      	bne.n	800408a <HAL_DMA_IRQHandler+0x14a>
 8004084:	f44f 1300 	mov.w	r3, #2097152	@ 0x200000
 8004088:	e00e      	b.n	80040a8 <HAL_DMA_IRQHandler+0x168>
 800408a:	f04f 7300 	mov.w	r3, #33554432	@ 0x2000000
 800408e:	e00b      	b.n	80040a8 <HAL_DMA_IRQHandler+0x168>
 8004090:	f44f 3300 	mov.w	r3, #131072	@ 0x20000
 8004094:	e008      	b.n	80040a8 <HAL_DMA_IRQHandler+0x168>
 8004096:	f44f 5300 	mov.w	r3, #8192	@ 0x2000
 800409a:	e005      	b.n	80040a8 <HAL_DMA_IRQHandler+0x168>
 800409c:	f44f 7300 	mov.w	r3, #512	@ 0x200
 80040a0:	e002      	b.n	80040a8 <HAL_DMA_IRQHandler+0x168>
 80040a2:	2320      	movs	r3, #32
 80040a4:	e000      	b.n	80040a8 <HAL_DMA_IRQHandler+0x168>
 80040a6:	2302      	movs	r3, #2
 80040a8:	4a27      	ldr	r2, [pc, #156]	@ (8004148 <HAL_DMA_IRQHandler+0x208>)
 80040aa:	6053      	str	r3, [r2, #4]

    /* Process Unlocked */
    __HAL_UNLOCK(hdma);
 80040ac:	687b      	ldr	r3, [r7, #4]
 80040ae:	2200      	movs	r2, #0
 80040b0:	f883 2020 	strb.w	r2, [r3, #32]

    if(hdma->XferCpltCallback != NULL)
 80040b4:	687b      	ldr	r3, [r7, #4]
 80040b6:	6a9b      	ldr	r3, [r3, #40]	@ 0x28
 80040b8:	2b00      	cmp	r3, #0
 80040ba:	d034      	beq.n	8004126 <HAL_DMA_IRQHandler+0x1e6>
    {
      /* Transfer complete callback */
      hdma->XferCpltCallback(hdma);
 80040bc:	687b      	ldr	r3, [r7, #4]
 80040be:	6a9b      	ldr	r3, [r3, #40]	@ 0x28
 80040c0:	6878      	ldr	r0, [r7, #4]
 80040c2:	4798      	blx	r3
    if(hdma->XferCpltCallback != NULL)
 80040c4:	e02f      	b.n	8004126 <HAL_DMA_IRQHandler+0x1e6>
    }
  }

  /* Transfer Error Interrupt management **************************************/
  else if (( RESET != (flag_it & (DMA_FLAG_TE1 << hdma->ChannelIndex))) && (RESET != (source_it & DMA_IT_TE)))
 80040c6:	687b      	ldr	r3, [r7, #4]
 80040c8:	6c1b      	ldr	r3, [r3, #64]	@ 0x40
 80040ca:	2208      	movs	r2, #8
 80040cc:	409a      	lsls	r2, r3
 80040ce:	68fb      	ldr	r3, [r7, #12]
 80040d0:	4013      	ands	r3, r2
 80040d2:	2b00      	cmp	r3, #0
 80040d4:	d028      	beq.n	8004128 <HAL_DMA_IRQHandler+0x1e8>
 80040d6:	68bb      	ldr	r3, [r7, #8]
 80040d8:	f003 0308 	and.w	r3, r3, #8
 80040dc:	2b00      	cmp	r3, #0
 80040de:	d023      	beq.n	8004128 <HAL_DMA_IRQHandler+0x1e8>
  {
    /* When a DMA transfer error occurs */
    /* A hardware clear of its EN bits is performed */
    /* Disable ALL DMA IT */
    __HAL_DMA_DISABLE_IT(hdma, (DMA_IT_TC | DMA_IT_HT | DMA_IT_TE));
 80040e0:	687b      	ldr	r3, [r7, #4]
 80040e2:	681b      	ldr	r3, [r3, #0]
 80040e4:	681a      	ldr	r2, [r3, #0]
 80040e6:	687b      	ldr	r3, [r7, #4]
 80040e8:	681b      	ldr	r3, [r3, #0]
 80040ea:	f022 020e 	bic.w	r2, r2, #14
 80040ee:	601a      	str	r2, [r3, #0]

    /* Clear all flags */
    hdma->DmaBaseAddress->IFCR = (DMA_ISR_GIF1 << hdma->ChannelIndex);
 80040f0:	687b      	ldr	r3, [r7, #4]
 80040f2:	6c1a      	ldr	r2, [r3, #64]	@ 0x40
 80040f4:	687b      	ldr	r3, [r7, #4]
 80040f6:	6bdb      	ldr	r3, [r3, #60]	@ 0x3c
 80040f8:	2101      	movs	r1, #1
 80040fa:	fa01 f202 	lsl.w	r2, r1, r2
 80040fe:	605a      	str	r2, [r3, #4]

    /* Update error code */
    hdma->ErrorCode = HAL_DMA_ERROR_TE;
 8004100:	687b      	ldr	r3, [r7, #4]
 8004102:	2201      	movs	r2, #1
 8004104:	639a      	str	r2, [r3, #56]	@ 0x38

    /* Change the DMA state */
    hdma->State = HAL_DMA_STATE_READY;
 8004106:	687b      	ldr	r3, [r7, #4]
 8004108:	2201      	movs	r2, #1
 800410a:	f883 2021 	strb.w	r2, [r3, #33]	@ 0x21

    /* Process Unlocked */
    __HAL_UNLOCK(hdma);
 800410e:	687b      	ldr	r3, [r7, #4]
 8004110:	2200      	movs	r2, #0
 8004112:	f883 2020 	strb.w	r2, [r3, #32]

    if (hdma->XferErrorCallback != NULL)
 8004116:	687b      	ldr	r3, [r7, #4]
 8004118:	6b1b      	ldr	r3, [r3, #48]	@ 0x30
 800411a:	2b00      	cmp	r3, #0
 800411c:	d004      	beq.n	8004128 <HAL_DMA_IRQHandler+0x1e8>
    {
      /* Transfer error callback */
      hdma->XferErrorCallback(hdma);
 800411e:	687b      	ldr	r3, [r7, #4]
 8004120:	6b1b      	ldr	r3, [r3, #48]	@ 0x30
 8004122:	6878      	ldr	r0, [r7, #4]
 8004124:	4798      	blx	r3
    }
  }
  return;
 8004126:	bf00      	nop
 8004128:	bf00      	nop
}
 800412a:	3710      	adds	r7, #16
 800412c:	46bd      	mov	sp, r7
 800412e:	bd80      	pop	{r7, pc}
 8004130:	40020008 	.word	0x40020008
 8004134:	4002001c 	.word	0x4002001c
 8004138:	40020030 	.word	0x40020030
 800413c:	40020044 	.word	0x40020044
 8004140:	40020058 	.word	0x40020058
 8004144:	4002006c 	.word	0x4002006c
 8004148:	40020000 	.word	0x40020000

0800414c <DMA_SetConfig>:
  * @param  DstAddress: The destination memory Buffer address
  * @param  DataLength: The length of data to be transferred from source to destination
  * @retval HAL status
  */
static void DMA_SetConfig(DMA_HandleTypeDef *hdma, uint32_t SrcAddress, uint32_t DstAddress, uint32_t DataLength)
{
 800414c:	b480      	push	{r7}
 800414e:	b085      	sub	sp, #20
 8004150:	af00      	add	r7, sp, #0
 8004152:	60f8      	str	r0, [r7, #12]
 8004154:	60b9      	str	r1, [r7, #8]
 8004156:	607a      	str	r2, [r7, #4]
 8004158:	603b      	str	r3, [r7, #0]
  /* Clear all flags */
  hdma->DmaBaseAddress->IFCR = (DMA_ISR_GIF1 << hdma->ChannelIndex);
 800415a:	68fb      	ldr	r3, [r7, #12]
 800415c:	6c1a      	ldr	r2, [r3, #64]	@ 0x40
 800415e:	68fb      	ldr	r3, [r7, #12]
 8004160:	6bdb      	ldr	r3, [r3, #60]	@ 0x3c
 8004162:	2101      	movs	r1, #1
 8004164:	fa01 f202 	lsl.w	r2, r1, r2
 8004168:	605a      	str	r2, [r3, #4]

  /* Configure DMA Channel data length */
  hdma->Instance->CNDTR = DataLength;
 800416a:	68fb      	ldr	r3, [r7, #12]
 800416c:	681b      	ldr	r3, [r3, #0]
 800416e:	683a      	ldr	r2, [r7, #0]
 8004170:	605a      	str	r2, [r3, #4]

  /* Memory to Peripheral */
  if((hdma->Init.Direction) == DMA_MEMORY_TO_PERIPH)
 8004172:	68fb      	ldr	r3, [r7, #12]
 8004174:	685b      	ldr	r3, [r3, #4]
 8004176:	2b10      	cmp	r3, #16
 8004178:	d108      	bne.n	800418c <DMA_SetConfig+0x40>
  {
    /* Configure DMA Channel destination address */
    hdma->Instance->CPAR = DstAddress;
 800417a:	68fb      	ldr	r3, [r7, #12]
 800417c:	681b      	ldr	r3, [r3, #0]
 800417e:	687a      	ldr	r2, [r7, #4]
 8004180:	609a      	str	r2, [r3, #8]

    /* Configure DMA Channel source address */
    hdma->Instance->CMAR = SrcAddress;
 8004182:	68fb      	ldr	r3, [r7, #12]
 8004184:	681b      	ldr	r3, [r3, #0]
 8004186:	68ba      	ldr	r2, [r7, #8]
 8004188:	60da      	str	r2, [r3, #12]
    hdma->Instance->CPAR = SrcAddress;

    /* Configure DMA Channel destination address */
    hdma->Instance->CMAR = DstAddress;
  }
}
 800418a:	e007      	b.n	800419c <DMA_SetConfig+0x50>
    hdma->Instance->CPAR = SrcAddress;
 800418c:	68fb      	ldr	r3, [r7, #12]
 800418e:	681b      	ldr	r3, [r3, #0]
 8004190:	68ba      	ldr	r2, [r7, #8]
 8004192:	609a      	str	r2, [r3, #8]
    hdma->Instance->CMAR = DstAddress;
 8004194:	68fb      	ldr	r3, [r7, #12]
 8004196:	681b      	ldr	r3, [r3, #0]
 8004198:	687a      	ldr	r2, [r7, #4]
 800419a:	60da      	str	r2, [r3, #12]
}
 800419c:	bf00      	nop
 800419e:	3714      	adds	r7, #20
 80041a0:	46bd      	mov	sp, r7
 80041a2:	bc80      	pop	{r7}
 80041a4:	4770      	bx	lr
	...

080041a8 <HAL_GPIO_Init>:
  * @param  GPIO_Init: pointer to a GPIO_InitTypeDef structure that contains
  *         the configuration information for the specified GPIO peripheral.
  * @retval None
  */
void HAL_GPIO_Init(GPIO_TypeDef  *GPIOx, GPIO_InitTypeDef *GPIO_Init)
{
 80041a8:	b480      	push	{r7}
 80041aa:	b08b      	sub	sp, #44	@ 0x2c
 80041ac:	af00      	add	r7, sp, #0
 80041ae:	6078      	str	r0, [r7, #4]
 80041b0:	6039      	str	r1, [r7, #0]
  uint32_t position = 0x00u;
 80041b2:	2300      	movs	r3, #0
 80041b4:	627b      	str	r3, [r7, #36]	@ 0x24
  uint32_t ioposition;
  uint32_t iocurrent;
  uint32_t temp;
  uint32_t config = 0x00u;
 80041b6:	2300      	movs	r3, #0
 80041b8:	623b      	str	r3, [r7, #32]
  assert_param(IS_GPIO_ALL_INSTANCE(GPIOx));
  assert_param(IS_GPIO_PIN(GPIO_Init->Pin));
  assert_param(IS_GPIO_MODE(GPIO_Init->Mode));

  /* Configure the port pins */
  while (((GPIO_Init->Pin) >> position) != 0x00u)
 80041ba:	e169      	b.n	8004490 <HAL_GPIO_Init+0x2e8>
  {
    /* Get the IO position */
    ioposition = (0x01uL << position);
 80041bc:	2201      	movs	r2, #1
 80041be:	6a7b      	ldr	r3, [r7, #36]	@ 0x24
 80041c0:	fa02 f303 	lsl.w	r3, r2, r3
 80041c4:	61fb      	str	r3, [r7, #28]

    /* Get the current IO position */
    iocurrent = (uint32_t)(GPIO_Init->Pin) & ioposition;
 80041c6:	683b      	ldr	r3, [r7, #0]
 80041c8:	681b      	ldr	r3, [r3, #0]
 80041ca:	69fa      	ldr	r2, [r7, #28]
 80041cc:	4013      	ands	r3, r2
 80041ce:	61bb      	str	r3, [r7, #24]

    if (iocurrent == ioposition)
 80041d0:	69ba      	ldr	r2, [r7, #24]
 80041d2:	69fb      	ldr	r3, [r7, #28]
 80041d4:	429a      	cmp	r2, r3
 80041d6:	f040 8158 	bne.w	800448a <HAL_GPIO_Init+0x2e2>
    {
      /* Check the Alternate function parameters */
      assert_param(IS_GPIO_AF_INSTANCE(GPIOx));

      /* Based on the required mode, filling config variable with MODEy[1:0] and CNFy[3:2] corresponding bits */
      switch (GPIO_Init->Mode)
 80041da:	683b      	ldr	r3, [r7, #0]
 80041dc:	685b      	ldr	r3, [r3, #4]
 80041de:	4a9a      	ldr	r2, [pc, #616]	@ (8004448 <HAL_GPIO_Init+0x2a0>)
 80041e0:	4293      	cmp	r3, r2
 80041e2:	d05e      	beq.n	80042a2 <HAL_GPIO_Init+0xfa>
 80041e4:	4a98      	ldr	r2, [pc, #608]	@ (8004448 <HAL_GPIO_Init+0x2a0>)
 80041e6:	4293      	cmp	r3, r2
 80041e8:	d875      	bhi.n	80042d6 <HAL_GPIO_Init+0x12e>
 80041ea:	4a98      	ldr	r2, [pc, #608]	@ (800444c <HAL_GPIO_Init+0x2a4>)
 80041ec:	4293      	cmp	r3, r2
 80041ee:	d058      	beq.n	80042a2 <HAL_GPIO_Init+0xfa>
 80041f0:	4a96      	ldr	r2, [pc, #600]	@ (800444c <HAL_GPIO_Init+0x2a4>)
 80041f2:	4293      	cmp	r3, r2
 80041f4:	d86f      	bhi.n	80042d6 <HAL_GPIO_Init+0x12e>
 80041f6:	4a96      	ldr	r2, [pc, #600]	@ (8004450 <HAL_GPIO_Init+0x2a8>)
 80041f8:	4293      	cmp	r3, r2
 80041fa:	d052      	beq.n	80042a2 <HAL_GPIO_Init+0xfa>
 80041fc:	4a94      	ldr	r2, [pc, #592]	@ (8004450 <HAL_GPIO_Init+0x2a8>)
 80041fe:	4293      	cmp	r3, r2
 8004200:	d869      	bhi.n	80042d6 <HAL_GPIO_Init+0x12e>
 8004202:	4a94      	ldr	r2, [pc, #592]	@ (8004454 <HAL_GPIO_Init+0x2ac>)
 8004204:	4293      	cmp	r3, r2
 8004206:	d04c      	beq.n	80042a2 <HAL_GPIO_Init+0xfa>
 8004208:	4a92      	ldr	r2, [pc, #584]	@ (8004454 <HAL_GPIO_Init+0x2ac>)
 800420a:	4293      	cmp	r3, r2
 800420c:	d863      	bhi.n	80042d6 <HAL_GPIO_Init+0x12e>
 800420e:	4a92      	ldr	r2, [pc, #584]	@ (8004458 <HAL_GPIO_Init+0x2b0>)
 8004210:	4293      	cmp	r3, r2
 8004212:	d046      	beq.n	80042a2 <HAL_GPIO_Init+0xfa>
 8004214:	4a90      	ldr	r2, [pc, #576]	@ (8004458 <HAL_GPIO_Init+0x2b0>)
 8004216:	4293      	cmp	r3, r2
 8004218:	d85d      	bhi.n	80042d6 <HAL_GPIO_Init+0x12e>
 800421a:	2b12      	cmp	r3, #18
 800421c:	d82a      	bhi.n	8004274 <HAL_GPIO_Init+0xcc>
 800421e:	2b12      	cmp	r3, #18
 8004220:	d859      	bhi.n	80042d6 <HAL_GPIO_Init+0x12e>
 8004222:	a201      	add	r2, pc, #4	@ (adr r2, 8004228 <HAL_GPIO_Init+0x80>)
 8004224:	f852 f023 	ldr.w	pc, [r2, r3, lsl #2]
 8004228:	080042a3 	.word	0x080042a3
 800422c:	0800427d 	.word	0x0800427d
 8004230:	0800428f 	.word	0x0800428f
 8004234:	080042d1 	.word	0x080042d1
 8004238:	080042d7 	.word	0x080042d7
 800423c:	080042d7 	.word	0x080042d7
 8004240:	080042d7 	.word	0x080042d7
 8004244:	080042d7 	.word	0x080042d7
 8004248:	080042d7 	.word	0x080042d7
 800424c:	080042d7 	.word	0x080042d7
 8004250:	080042d7 	.word	0x080042d7
 8004254:	080042d7 	.word	0x080042d7
 8004258:	080042d7 	.word	0x080042d7
 800425c:	080042d7 	.word	0x080042d7
 8004260:	080042d7 	.word	0x080042d7
 8004264:	080042d7 	.word	0x080042d7
 8004268:	080042d7 	.word	0x080042d7
 800426c:	08004285 	.word	0x08004285
 8004270:	08004299 	.word	0x08004299
 8004274:	4a79      	ldr	r2, [pc, #484]	@ (800445c <HAL_GPIO_Init+0x2b4>)
 8004276:	4293      	cmp	r3, r2
 8004278:	d013      	beq.n	80042a2 <HAL_GPIO_Init+0xfa>
          config = GPIO_CR_MODE_INPUT + GPIO_CR_CNF_ANALOG;
          break;

        /* Parameters are checked with assert_param */
        default:
          break;
 800427a:	e02c      	b.n	80042d6 <HAL_GPIO_Init+0x12e>
          config = GPIO_Init->Speed + GPIO_CR_CNF_GP_OUTPUT_PP;
 800427c:	683b      	ldr	r3, [r7, #0]
 800427e:	68db      	ldr	r3, [r3, #12]
 8004280:	623b      	str	r3, [r7, #32]
          break;
 8004282:	e029      	b.n	80042d8 <HAL_GPIO_Init+0x130>
          config = GPIO_Init->Speed + GPIO_CR_CNF_GP_OUTPUT_OD;
 8004284:	683b      	ldr	r3, [r7, #0]
 8004286:	68db      	ldr	r3, [r3, #12]
 8004288:	3304      	adds	r3, #4
 800428a:	623b      	str	r3, [r7, #32]
          break;
 800428c:	e024      	b.n	80042d8 <HAL_GPIO_Init+0x130>
          config = GPIO_Init->Speed + GPIO_CR_CNF_AF_OUTPUT_PP;
 800428e:	683b      	ldr	r3, [r7, #0]
 8004290:	68db      	ldr	r3, [r3, #12]
 8004292:	3308      	adds	r3, #8
 8004294:	623b      	str	r3, [r7, #32]
          break;
 8004296:	e01f      	b.n	80042d8 <HAL_GPIO_Init+0x130>
          config = GPIO_Init->Speed + GPIO_CR_CNF_AF_OUTPUT_OD;
 8004298:	683b      	ldr	r3, [r7, #0]
 800429a:	68db      	ldr	r3, [r3, #12]
 800429c:	330c      	adds	r3, #12
 800429e:	623b      	str	r3, [r7, #32]
          break;
 80042a0:	e01a      	b.n	80042d8 <HAL_GPIO_Init+0x130>
          if (GPIO_Init->Pull == GPIO_NOPULL)
 80042a2:	683b      	ldr	r3, [r7, #0]
 80042a4:	689b      	ldr	r3, [r3, #8]
 80042a6:	2b00      	cmp	r3, #0
 80042a8:	d102      	bne.n	80042b0 <HAL_GPIO_Init+0x108>
            config = GPIO_CR_MODE_INPUT + GPIO_CR_CNF_INPUT_FLOATING;
 80042aa:	2304      	movs	r3, #4
 80042ac:	623b      	str	r3, [r7, #32]
          break;
 80042ae:	e013      	b.n	80042d8 <HAL_GPIO_Init+0x130>
          else if (GPIO_Init->Pull == GPIO_PULLUP)
 80042b0:	683b      	ldr	r3, [r7, #0]
 80042b2:	689b      	ldr	r3, [r3, #8]
 80042b4:	2b01      	cmp	r3, #1
 80042b6:	d105      	bne.n	80042c4 <HAL_GPIO_Init+0x11c>
            config = GPIO_CR_MODE_INPUT + GPIO_CR_CNF_INPUT_PU_PD;
 80042b8:	2308      	movs	r3, #8
 80042ba:	623b      	str	r3, [r7, #32]
            GPIOx->BSRR = ioposition;
 80042bc:	687b      	ldr	r3, [r7, #4]
 80042be:	69fa      	ldr	r2, [r7, #28]
 80042c0:	611a      	str	r2, [r3, #16]
          break;
 80042c2:	e009      	b.n	80042d8 <HAL_GPIO_Init+0x130>
            config = GPIO_CR_MODE_INPUT + GPIO_CR_CNF_INPUT_PU_PD;
 80042c4:	2308      	movs	r3, #8
 80042c6:	623b      	str	r3, [r7, #32]
            GPIOx->BRR = ioposition;
 80042c8:	687b      	ldr	r3, [r7, #4]
 80042ca:	69fa      	ldr	r2, [r7, #28]
 80042cc:	615a      	str	r2, [r3, #20]
          break;
 80042ce:	e003      	b.n	80042d8 <HAL_GPIO_Init+0x130>
          config = GPIO_CR_MODE_INPUT + GPIO_CR_CNF_ANALOG;
 80042d0:	2300      	movs	r3, #0
 80042d2:	623b      	str	r3, [r7, #32]
          break;
 80042d4:	e000      	b.n	80042d8 <HAL_GPIO_Init+0x130>
          break;
 80042d6:	bf00      	nop
      }

      /* Check if the current bit belongs to first half or last half of the pin count number
       in order to address CRH or CRL register*/
      configregister = (iocurrent < GPIO_PIN_8) ? &GPIOx->CRL     : &GPIOx->CRH;
 80042d8:	69bb      	ldr	r3, [r7, #24]
 80042da:	2bff      	cmp	r3, #255	@ 0xff
 80042dc:	d801      	bhi.n	80042e2 <HAL_GPIO_Init+0x13a>
 80042de:	687b      	ldr	r3, [r7, #4]
 80042e0:	e001      	b.n	80042e6 <HAL_GPIO_Init+0x13e>
 80042e2:	687b      	ldr	r3, [r7, #4]
 80042e4:	3304      	adds	r3, #4
 80042e6:	617b      	str	r3, [r7, #20]
      registeroffset = (iocurrent < GPIO_PIN_8) ? (position << 2u) : ((position - 8u) << 2u);
 80042e8:	69bb      	ldr	r3, [r7, #24]
 80042ea:	2bff      	cmp	r3, #255	@ 0xff
 80042ec:	d802      	bhi.n	80042f4 <HAL_GPIO_Init+0x14c>
 80042ee:	6a7b      	ldr	r3, [r7, #36]	@ 0x24
 80042f0:	009b      	lsls	r3, r3, #2
 80042f2:	e002      	b.n	80042fa <HAL_GPIO_Init+0x152>
 80042f4:	6a7b      	ldr	r3, [r7, #36]	@ 0x24
 80042f6:	3b08      	subs	r3, #8
 80042f8:	009b      	lsls	r3, r3, #2
 80042fa:	613b      	str	r3, [r7, #16]

      /* Apply the new configuration of the pin to the register */
      MODIFY_REG((*configregister), ((GPIO_CRL_MODE0 | GPIO_CRL_CNF0) << registeroffset), (config << registeroffset));
 80042fc:	697b      	ldr	r3, [r7, #20]
 80042fe:	681a      	ldr	r2, [r3, #0]
 8004300:	210f      	movs	r1, #15
 8004302:	693b      	ldr	r3, [r7, #16]
 8004304:	fa01 f303 	lsl.w	r3, r1, r3
 8004308:	43db      	mvns	r3, r3
 800430a:	401a      	ands	r2, r3
 800430c:	6a39      	ldr	r1, [r7, #32]
 800430e:	693b      	ldr	r3, [r7, #16]
 8004310:	fa01 f303 	lsl.w	r3, r1, r3
 8004314:	431a      	orrs	r2, r3
 8004316:	697b      	ldr	r3, [r7, #20]
 8004318:	601a      	str	r2, [r3, #0]

      /*--------------------- EXTI Mode Configuration ------------------------*/
      /* Configure the External Interrupt or event for the current IO */
      if ((GPIO_Init->Mode & EXTI_MODE) == EXTI_MODE)
 800431a:	683b      	ldr	r3, [r7, #0]
 800431c:	685b      	ldr	r3, [r3, #4]
 800431e:	f003 5380 	and.w	r3, r3, #268435456	@ 0x10000000
 8004322:	2b00      	cmp	r3, #0
 8004324:	f000 80b1 	beq.w	800448a <HAL_GPIO_Init+0x2e2>
      {
        /* Enable AFIO Clock */
        __HAL_RCC_AFIO_CLK_ENABLE();
 8004328:	4b4d      	ldr	r3, [pc, #308]	@ (8004460 <HAL_GPIO_Init+0x2b8>)
 800432a:	699b      	ldr	r3, [r3, #24]
 800432c:	4a4c      	ldr	r2, [pc, #304]	@ (8004460 <HAL_GPIO_Init+0x2b8>)
 800432e:	f043 0301 	orr.w	r3, r3, #1
 8004332:	6193      	str	r3, [r2, #24]
 8004334:	4b4a      	ldr	r3, [pc, #296]	@ (8004460 <HAL_GPIO_Init+0x2b8>)
 8004336:	699b      	ldr	r3, [r3, #24]
 8004338:	f003 0301 	and.w	r3, r3, #1
 800433c:	60bb      	str	r3, [r7, #8]
 800433e:	68bb      	ldr	r3, [r7, #8]
        temp = AFIO->EXTICR[position >> 2u];
 8004340:	4a48      	ldr	r2, [pc, #288]	@ (8004464 <HAL_GPIO_Init+0x2bc>)
 8004342:	6a7b      	ldr	r3, [r7, #36]	@ 0x24
 8004344:	089b      	lsrs	r3, r3, #2
 8004346:	3302      	adds	r3, #2
 8004348:	f852 3023 	ldr.w	r3, [r2, r3, lsl #2]
 800434c:	60fb      	str	r3, [r7, #12]
        CLEAR_BIT(temp, (0x0Fu) << (4u * (position & 0x03u)));
 800434e:	6a7b      	ldr	r3, [r7, #36]	@ 0x24
 8004350:	f003 0303 	and.w	r3, r3, #3
 8004354:	009b      	lsls	r3, r3, #2
 8004356:	220f      	movs	r2, #15
 8004358:	fa02 f303 	lsl.w	r3, r2, r3
 800435c:	43db      	mvns	r3, r3
 800435e:	68fa      	ldr	r2, [r7, #12]
 8004360:	4013      	ands	r3, r2
 8004362:	60fb      	str	r3, [r7, #12]
        SET_BIT(temp, (GPIO_GET_INDEX(GPIOx)) << (4u * (position & 0x03u)));
 8004364:	687b      	ldr	r3, [r7, #4]
 8004366:	4a40      	ldr	r2, [pc, #256]	@ (8004468 <HAL_GPIO_Init+0x2c0>)
 8004368:	4293      	cmp	r3, r2
 800436a:	d013      	beq.n	8004394 <HAL_GPIO_Init+0x1ec>
 800436c:	687b      	ldr	r3, [r7, #4]
 800436e:	4a3f      	ldr	r2, [pc, #252]	@ (800446c <HAL_GPIO_Init+0x2c4>)
 8004370:	4293      	cmp	r3, r2
 8004372:	d00d      	beq.n	8004390 <HAL_GPIO_Init+0x1e8>
 8004374:	687b      	ldr	r3, [r7, #4]
 8004376:	4a3e      	ldr	r2, [pc, #248]	@ (8004470 <HAL_GPIO_Init+0x2c8>)
 8004378:	4293      	cmp	r3, r2
 800437a:	d007      	beq.n	800438c <HAL_GPIO_Init+0x1e4>
 800437c:	687b      	ldr	r3, [r7, #4]
 800437e:	4a3d      	ldr	r2, [pc, #244]	@ (8004474 <HAL_GPIO_Init+0x2cc>)
 8004380:	4293      	cmp	r3, r2
 8004382:	d101      	bne.n	8004388 <HAL_GPIO_Init+0x1e0>
 8004384:	2303      	movs	r3, #3
 8004386:	e006      	b.n	8004396 <HAL_GPIO_Init+0x1ee>
 8004388:	2304      	movs	r3, #4
 800438a:	e004      	b.n	8004396 <HAL_GPIO_Init+0x1ee>
 800438c:	2302      	movs	r3, #2
 800438e:	e002      	b.n	8004396 <HAL_GPIO_Init+0x1ee>
 8004390:	2301      	movs	r3, #1
 8004392:	e000      	b.n	8004396 <HAL_GPIO_Init+0x1ee>
 8004394:	2300      	movs	r3, #0
 8004396:	6a7a      	ldr	r2, [r7, #36]	@ 0x24
 8004398:	f002 0203 	and.w	r2, r2, #3
 800439c:	0092      	lsls	r2, r2, #2
 800439e:	4093      	lsls	r3, r2
 80043a0:	68fa      	ldr	r2, [r7, #12]
 80043a2:	4313      	orrs	r3, r2
 80043a4:	60fb      	str	r3, [r7, #12]
        AFIO->EXTICR[position >> 2u] = temp;
 80043a6:	492f      	ldr	r1, [pc, #188]	@ (8004464 <HAL_GPIO_Init+0x2bc>)
 80043a8:	6a7b      	ldr	r3, [r7, #36]	@ 0x24
 80043aa:	089b      	lsrs	r3, r3, #2
 80043ac:	3302      	adds	r3, #2
 80043ae:	68fa      	ldr	r2, [r7, #12]
 80043b0:	f841 2023 	str.w	r2, [r1, r3, lsl #2]


        /* Enable or disable the rising trigger */
        if ((GPIO_Init->Mode & RISING_EDGE) == RISING_EDGE)
 80043b4:	683b      	ldr	r3, [r7, #0]
 80043b6:	685b      	ldr	r3, [r3, #4]
 80043b8:	f403 1380 	and.w	r3, r3, #1048576	@ 0x100000
 80043bc:	2b00      	cmp	r3, #0
 80043be:	d006      	beq.n	80043ce <HAL_GPIO_Init+0x226>
        {
          SET_BIT(EXTI->RTSR, iocurrent);
 80043c0:	4b2d      	ldr	r3, [pc, #180]	@ (8004478 <HAL_GPIO_Init+0x2d0>)
 80043c2:	689a      	ldr	r2, [r3, #8]
 80043c4:	492c      	ldr	r1, [pc, #176]	@ (8004478 <HAL_GPIO_Init+0x2d0>)
 80043c6:	69bb      	ldr	r3, [r7, #24]
 80043c8:	4313      	orrs	r3, r2
 80043ca:	608b      	str	r3, [r1, #8]
 80043cc:	e006      	b.n	80043dc <HAL_GPIO_Init+0x234>
        }
        else
        {
          CLEAR_BIT(EXTI->RTSR, iocurrent);
 80043ce:	4b2a      	ldr	r3, [pc, #168]	@ (8004478 <HAL_GPIO_Init+0x2d0>)
 80043d0:	689a      	ldr	r2, [r3, #8]
 80043d2:	69bb      	ldr	r3, [r7, #24]
 80043d4:	43db      	mvns	r3, r3
 80043d6:	4928      	ldr	r1, [pc, #160]	@ (8004478 <HAL_GPIO_Init+0x2d0>)
 80043d8:	4013      	ands	r3, r2
 80043da:	608b      	str	r3, [r1, #8]
        }

        /* Enable or disable the falling trigger */
        if ((GPIO_Init->Mode & FALLING_EDGE) == FALLING_EDGE)
 80043dc:	683b      	ldr	r3, [r7, #0]
 80043de:	685b      	ldr	r3, [r3, #4]
 80043e0:	f403 1300 	and.w	r3, r3, #2097152	@ 0x200000
 80043e4:	2b00      	cmp	r3, #0
 80043e6:	d006      	beq.n	80043f6 <HAL_GPIO_Init+0x24e>
        {
          SET_BIT(EXTI->FTSR, iocurrent);
 80043e8:	4b23      	ldr	r3, [pc, #140]	@ (8004478 <HAL_GPIO_Init+0x2d0>)
 80043ea:	68da      	ldr	r2, [r3, #12]
 80043ec:	4922      	ldr	r1, [pc, #136]	@ (8004478 <HAL_GPIO_Init+0x2d0>)
 80043ee:	69bb      	ldr	r3, [r7, #24]
 80043f0:	4313      	orrs	r3, r2
 80043f2:	60cb      	str	r3, [r1, #12]
 80043f4:	e006      	b.n	8004404 <HAL_GPIO_Init+0x25c>
        }
        else
        {
          CLEAR_BIT(EXTI->FTSR, iocurrent);
 80043f6:	4b20      	ldr	r3, [pc, #128]	@ (8004478 <HAL_GPIO_Init+0x2d0>)
 80043f8:	68da      	ldr	r2, [r3, #12]
 80043fa:	69bb      	ldr	r3, [r7, #24]
 80043fc:	43db      	mvns	r3, r3
 80043fe:	491e      	ldr	r1, [pc, #120]	@ (8004478 <HAL_GPIO_Init+0x2d0>)
 8004400:	4013      	ands	r3, r2
 8004402:	60cb      	str	r3, [r1, #12]
        }

        /* Configure the event mask */
        if ((GPIO_Init->Mode & GPIO_MODE_EVT) == GPIO_MODE_EVT)
 8004404:	683b      	ldr	r3, [r7, #0]
 8004406:	685b      	ldr	r3, [r3, #4]
 8004408:	f403 3300 	and.w	r3, r3, #131072	@ 0x20000
 800440c:	2b00      	cmp	r3, #0
 800440e:	d006      	beq.n	800441e <HAL_GPIO_Init+0x276>
        {
          SET_BIT(EXTI->EMR, iocurrent);
 8004410:	4b19      	ldr	r3, [pc, #100]	@ (8004478 <HAL_GPIO_Init+0x2d0>)
 8004412:	685a      	ldr	r2, [r3, #4]
 8004414:	4918      	ldr	r1, [pc, #96]	@ (8004478 <HAL_GPIO_Init+0x2d0>)
 8004416:	69bb      	ldr	r3, [r7, #24]
 8004418:	4313      	orrs	r3, r2
 800441a:	604b      	str	r3, [r1, #4]
 800441c:	e006      	b.n	800442c <HAL_GPIO_Init+0x284>
        }
        else
        {
          CLEAR_BIT(EXTI->EMR, iocurrent);
 800441e:	4b16      	ldr	r3, [pc, #88]	@ (8004478 <HAL_GPIO_Init+0x2d0>)
 8004420:	685a      	ldr	r2, [r3, #4]
 8004422:	69bb      	ldr	r3, [r7, #24]
 8004424:	43db      	mvns	r3, r3
 8004426:	4914      	ldr	r1, [pc, #80]	@ (8004478 <HAL_GPIO_Init+0x2d0>)
 8004428:	4013      	ands	r3, r2
 800442a:	604b      	str	r3, [r1, #4]
        }

        /* Configure the interrupt mask */
        if ((GPIO_Init->Mode & GPIO_MODE_IT) == GPIO_MODE_IT)
 800442c:	683b      	ldr	r3, [r7, #0]
 800442e:	685b      	ldr	r3, [r3, #4]
 8004430:	f403 3380 	and.w	r3, r3, #65536	@ 0x10000
 8004434:	2b00      	cmp	r3, #0
 8004436:	d021      	beq.n	800447c <HAL_GPIO_Init+0x2d4>
        {
          SET_BIT(EXTI->IMR, iocurrent);
 8004438:	4b0f      	ldr	r3, [pc, #60]	@ (8004478 <HAL_GPIO_Init+0x2d0>)
 800443a:	681a      	ldr	r2, [r3, #0]
 800443c:	490e      	ldr	r1, [pc, #56]	@ (8004478 <HAL_GPIO_Init+0x2d0>)
 800443e:	69bb      	ldr	r3, [r7, #24]
 8004440:	4313      	orrs	r3, r2
 8004442:	600b      	str	r3, [r1, #0]
 8004444:	e021      	b.n	800448a <HAL_GPIO_Init+0x2e2>
 8004446:	bf00      	nop
 8004448:	10320000 	.word	0x10320000
 800444c:	10310000 	.word	0x10310000
 8004450:	10220000 	.word	0x10220000
 8004454:	10210000 	.word	0x10210000
 8004458:	10120000 	.word	0x10120000
 800445c:	10110000 	.word	0x10110000
 8004460:	40021000 	.word	0x40021000
 8004464:	40010000 	.word	0x40010000
 8004468:	40010800 	.word	0x40010800
 800446c:	40010c00 	.word	0x40010c00
 8004470:	40011000 	.word	0x40011000
 8004474:	40011400 	.word	0x40011400
 8004478:	40010400 	.word	0x40010400
        }
        else
        {
          CLEAR_BIT(EXTI->IMR, iocurrent);
 800447c:	4b0b      	ldr	r3, [pc, #44]	@ (80044ac <HAL_GPIO_Init+0x304>)
 800447e:	681a      	ldr	r2, [r3, #0]
 8004480:	69bb      	ldr	r3, [r7, #24]
 8004482:	43db      	mvns	r3, r3
 8004484:	4909      	ldr	r1, [pc, #36]	@ (80044ac <HAL_GPIO_Init+0x304>)
 8004486:	4013      	ands	r3, r2
 8004488:	600b      	str	r3, [r1, #0]
        }
      }
    }

	position++;
 800448a:	6a7b      	ldr	r3, [r7, #36]	@ 0x24
 800448c:	3301      	adds	r3, #1
 800448e:	627b      	str	r3, [r7, #36]	@ 0x24
  while (((GPIO_Init->Pin) >> position) != 0x00u)
 8004490:	683b      	ldr	r3, [r7, #0]
 8004492:	681a      	ldr	r2, [r3, #0]
 8004494:	6a7b      	ldr	r3, [r7, #36]	@ 0x24
 8004496:	fa22 f303 	lsr.w	r3, r2, r3
 800449a:	2b00      	cmp	r3, #0
 800449c:	f47f ae8e 	bne.w	80041bc <HAL_GPIO_Init+0x14>
  }
}
 80044a0:	bf00      	nop
 80044a2:	bf00      	nop
 80044a4:	372c      	adds	r7, #44	@ 0x2c
 80044a6:	46bd      	mov	sp, r7
 80044a8:	bc80      	pop	{r7}
 80044aa:	4770      	bx	lr
 80044ac:	40010400 	.word	0x40010400

080044b0 <HAL_GPIO_ReadPin>:
  * @param  GPIO_Pin: specifies the port bit to read.
  *         This parameter can be GPIO_PIN_x where x can be (0..15).
  * @retval The input port pin value.
  */
GPIO_PinState HAL_GPIO_ReadPin(GPIO_TypeDef *GPIOx, uint16_t GPIO_Pin)
{
 80044b0:	b480      	push	{r7}
 80044b2:	b085      	sub	sp, #20
 80044b4:	af00      	add	r7, sp, #0
 80044b6:	6078      	str	r0, [r7, #4]
 80044b8:	460b      	mov	r3, r1
 80044ba:	807b      	strh	r3, [r7, #2]
  GPIO_PinState bitstatus;

  /* Check the parameters */
  assert_param(IS_GPIO_PIN(GPIO_Pin));

  if ((GPIOx->IDR & GPIO_Pin) != (uint32_t)GPIO_PIN_RESET)
 80044bc:	687b      	ldr	r3, [r7, #4]
 80044be:	689a      	ldr	r2, [r3, #8]
 80044c0:	887b      	ldrh	r3, [r7, #2]
 80044c2:	4013      	ands	r3, r2
 80044c4:	2b00      	cmp	r3, #0
 80044c6:	d002      	beq.n	80044ce <HAL_GPIO_ReadPin+0x1e>
  {
    bitstatus = GPIO_PIN_SET;
 80044c8:	2301      	movs	r3, #1
 80044ca:	73fb      	strb	r3, [r7, #15]
 80044cc:	e001      	b.n	80044d2 <HAL_GPIO_ReadPin+0x22>
  }
  else
  {
    bitstatus = GPIO_PIN_RESET;
 80044ce:	2300      	movs	r3, #0
 80044d0:	73fb      	strb	r3, [r7, #15]
  }
  return bitstatus;
 80044d2:	7bfb      	ldrb	r3, [r7, #15]
}
 80044d4:	4618      	mov	r0, r3
 80044d6:	3714      	adds	r7, #20
 80044d8:	46bd      	mov	sp, r7
 80044da:	bc80      	pop	{r7}
 80044dc:	4770      	bx	lr

080044de <HAL_GPIO_WritePin>:
  *            @arg GPIO_PIN_RESET: to clear the port pin
  *            @arg GPIO_PIN_SET: to set the port pin
  * @retval None
  */
void HAL_GPIO_WritePin(GPIO_TypeDef *GPIOx, uint16_t GPIO_Pin, GPIO_PinState PinState)
{
 80044de:	b480      	push	{r7}
 80044e0:	b083      	sub	sp, #12
 80044e2:	af00      	add	r7, sp, #0
 80044e4:	6078      	str	r0, [r7, #4]
 80044e6:	460b      	mov	r3, r1
 80044e8:	807b      	strh	r3, [r7, #2]
 80044ea:	4613      	mov	r3, r2
 80044ec:	707b      	strb	r3, [r7, #1]
  /* Check the parameters */
  assert_param(IS_GPIO_PIN(GPIO_Pin));
  assert_param(IS_GPIO_PIN_ACTION(PinState));

  if (PinState != GPIO_PIN_RESET)
 80044ee:	787b      	ldrb	r3, [r7, #1]
 80044f0:	2b00      	cmp	r3, #0
 80044f2:	d003      	beq.n	80044fc <HAL_GPIO_WritePin+0x1e>
  {
    GPIOx->BSRR = GPIO_Pin;
 80044f4:	887a      	ldrh	r2, [r7, #2]
 80044f6:	687b      	ldr	r3, [r7, #4]
 80044f8:	611a      	str	r2, [r3, #16]
  }
  else
  {
    GPIOx->BSRR = (uint32_t)GPIO_Pin << 16u;
  }
}
 80044fa:	e003      	b.n	8004504 <HAL_GPIO_WritePin+0x26>
    GPIOx->BSRR = (uint32_t)GPIO_Pin << 16u;
 80044fc:	887b      	ldrh	r3, [r7, #2]
 80044fe:	041a      	lsls	r2, r3, #16
 8004500:	687b      	ldr	r3, [r7, #4]
 8004502:	611a      	str	r2, [r3, #16]
}
 8004504:	bf00      	nop
 8004506:	370c      	adds	r7, #12
 8004508:	46bd      	mov	sp, r7
 800450a:	bc80      	pop	{r7}
 800450c:	4770      	bx	lr
	...

08004510 <HAL_RCC_OscConfig>:
  *         supported by this macro. User should request a transition to HSE Off
  *         first and then HSE On or HSE Bypass.
  * @retval HAL status
  */
HAL_StatusTypeDef HAL_RCC_OscConfig(RCC_OscInitTypeDef  *RCC_OscInitStruct)
{
 8004510:	b580      	push	{r7, lr}
 8004512:	b086      	sub	sp, #24
 8004514:	af00      	add	r7, sp, #0
 8004516:	6078      	str	r0, [r7, #4]
  uint32_t tickstart;
  uint32_t pll_config;

  /* Check Null pointer */
  if (RCC_OscInitStruct == NULL)
 8004518:	687b      	ldr	r3, [r7, #4]
 800451a:	2b00      	cmp	r3, #0
 800451c:	d101      	bne.n	8004522 <HAL_RCC_OscConfig+0x12>
  {
    return HAL_ERROR;
 800451e:	2301      	movs	r3, #1
 8004520:	e272      	b.n	8004a08 <HAL_RCC_OscConfig+0x4f8>

  /* Check the parameters */
  assert_param(IS_RCC_OSCILLATORTYPE(RCC_OscInitStruct->OscillatorType));

  /*------------------------------- HSE Configuration ------------------------*/
  if (((RCC_OscInitStruct->OscillatorType) & RCC_OSCILLATORTYPE_HSE) == RCC_OSCILLATORTYPE_HSE)
 8004522:	687b      	ldr	r3, [r7, #4]
 8004524:	681b      	ldr	r3, [r3, #0]
 8004526:	f003 0301 	and.w	r3, r3, #1
 800452a:	2b00      	cmp	r3, #0
 800452c:	f000 8087 	beq.w	800463e <HAL_RCC_OscConfig+0x12e>
  {
    /* Check the parameters */
    assert_param(IS_RCC_HSE(RCC_OscInitStruct->HSEState));

    /* When the HSE is used as system clock or clock source for PLL in these cases it is not allowed to be disabled */
    if ((__HAL_RCC_GET_SYSCLK_SOURCE() == RCC_SYSCLKSOURCE_STATUS_HSE)
 8004530:	4b92      	ldr	r3, [pc, #584]	@ (800477c <HAL_RCC_OscConfig+0x26c>)
 8004532:	685b      	ldr	r3, [r3, #4]
 8004534:	f003 030c 	and.w	r3, r3, #12
 8004538:	2b04      	cmp	r3, #4
 800453a:	d00c      	beq.n	8004556 <HAL_RCC_OscConfig+0x46>
        || ((__HAL_RCC_GET_SYSCLK_SOURCE() == RCC_SYSCLKSOURCE_STATUS_PLLCLK) && (__HAL_RCC_GET_PLL_OSCSOURCE() == RCC_PLLSOURCE_HSE)))
 800453c:	4b8f      	ldr	r3, [pc, #572]	@ (800477c <HAL_RCC_OscConfig+0x26c>)
 800453e:	685b      	ldr	r3, [r3, #4]
 8004540:	f003 030c 	and.w	r3, r3, #12
 8004544:	2b08      	cmp	r3, #8
 8004546:	d112      	bne.n	800456e <HAL_RCC_OscConfig+0x5e>
 8004548:	4b8c      	ldr	r3, [pc, #560]	@ (800477c <HAL_RCC_OscConfig+0x26c>)
 800454a:	685b      	ldr	r3, [r3, #4]
 800454c:	f403 3380 	and.w	r3, r3, #65536	@ 0x10000
 8004550:	f5b3 3f80 	cmp.w	r3, #65536	@ 0x10000
 8004554:	d10b      	bne.n	800456e <HAL_RCC_OscConfig+0x5e>
    {
      if ((__HAL_RCC_GET_FLAG(RCC_FLAG_HSERDY) != RESET) && (RCC_OscInitStruct->HSEState == RCC_HSE_OFF))
 8004556:	4b89      	ldr	r3, [pc, #548]	@ (800477c <HAL_RCC_OscConfig+0x26c>)
 8004558:	681b      	ldr	r3, [r3, #0]
 800455a:	f403 3300 	and.w	r3, r3, #131072	@ 0x20000
 800455e:	2b00      	cmp	r3, #0
 8004560:	d06c      	beq.n	800463c <HAL_RCC_OscConfig+0x12c>
 8004562:	687b      	ldr	r3, [r7, #4]
 8004564:	685b      	ldr	r3, [r3, #4]
 8004566:	2b00      	cmp	r3, #0
 8004568:	d168      	bne.n	800463c <HAL_RCC_OscConfig+0x12c>
      {
        return HAL_ERROR;
 800456a:	2301      	movs	r3, #1
 800456c:	e24c      	b.n	8004a08 <HAL_RCC_OscConfig+0x4f8>
      }
    }
    else
    {
      /* Set the new HSE configuration ---------------------------------------*/
      __HAL_RCC_HSE_CONFIG(RCC_OscInitStruct->HSEState);
 800456e:	687b      	ldr	r3, [r7, #4]
 8004570:	685b      	ldr	r3, [r3, #4]
 8004572:	f5b3 3f80 	cmp.w	r3, #65536	@ 0x10000
 8004576:	d106      	bne.n	8004586 <HAL_RCC_OscConfig+0x76>
 8004578:	4b80      	ldr	r3, [pc, #512]	@ (800477c <HAL_RCC_OscConfig+0x26c>)
 800457a:	681b      	ldr	r3, [r3, #0]
 800457c:	4a7f      	ldr	r2, [pc, #508]	@ (800477c <HAL_RCC_OscConfig+0x26c>)
 800457e:	f443 3380 	orr.w	r3, r3, #65536	@ 0x10000
 8004582:	6013      	str	r3, [r2, #0]
 8004584:	e02e      	b.n	80045e4 <HAL_RCC_OscConfig+0xd4>
 8004586:	687b      	ldr	r3, [r7, #4]
 8004588:	685b      	ldr	r3, [r3, #4]
 800458a:	2b00      	cmp	r3, #0
 800458c:	d10c      	bne.n	80045a8 <HAL_RCC_OscConfig+0x98>
 800458e:	4b7b      	ldr	r3, [pc, #492]	@ (800477c <HAL_RCC_OscConfig+0x26c>)
 8004590:	681b      	ldr	r3, [r3, #0]
 8004592:	4a7a      	ldr	r2, [pc, #488]	@ (800477c <HAL_RCC_OscConfig+0x26c>)
 8004594:	f423 3380 	bic.w	r3, r3, #65536	@ 0x10000
 8004598:	6013      	str	r3, [r2, #0]
 800459a:	4b78      	ldr	r3, [pc, #480]	@ (800477c <HAL_RCC_OscConfig+0x26c>)
 800459c:	681b      	ldr	r3, [r3, #0]
 800459e:	4a77      	ldr	r2, [pc, #476]	@ (800477c <HAL_RCC_OscConfig+0x26c>)
 80045a0:	f423 2380 	bic.w	r3, r3, #262144	@ 0x40000
 80045a4:	6013      	str	r3, [r2, #0]
 80045a6:	e01d      	b.n	80045e4 <HAL_RCC_OscConfig+0xd4>
 80045a8:	687b      	ldr	r3, [r7, #4]
 80045aa:	685b      	ldr	r3, [r3, #4]
 80045ac:	f5b3 2fa0 	cmp.w	r3, #327680	@ 0x50000
 80045b0:	d10c      	bne.n	80045cc <HAL_RCC_OscConfig+0xbc>
 80045b2:	4b72      	ldr	r3, [pc, #456]	@ (800477c <HAL_RCC_OscConfig+0x26c>)
 80045b4:	681b      	ldr	r3, [r3, #0]
 80045b6:	4a71      	ldr	r2, [pc, #452]	@ (800477c <HAL_RCC_OscConfig+0x26c>)
 80045b8:	f443 2380 	orr.w	r3, r3, #262144	@ 0x40000
 80045bc:	6013      	str	r3, [r2, #0]
 80045be:	4b6f      	ldr	r3, [pc, #444]	@ (800477c <HAL_RCC_OscConfig+0x26c>)
 80045c0:	681b      	ldr	r3, [r3, #0]
 80045c2:	4a6e      	ldr	r2, [pc, #440]	@ (800477c <HAL_RCC_OscConfig+0x26c>)
 80045c4:	f443 3380 	orr.w	r3, r3, #65536	@ 0x10000
 80045c8:	6013      	str	r3, [r2, #0]
 80045ca:	e00b      	b.n	80045e4 <HAL_RCC_OscConfig+0xd4>
 80045cc:	4b6b      	ldr	r3, [pc, #428]	@ (800477c <HAL_RCC_OscConfig+0x26c>)
 80045ce:	681b      	ldr	r3, [r3, #0]
 80045d0:	4a6a      	ldr	r2, [pc, #424]	@ (800477c <HAL_RCC_OscConfig+0x26c>)
 80045d2:	f423 3380 	bic.w	r3, r3, #65536	@ 0x10000
 80045d6:	6013      	str	r3, [r2, #0]
 80045d8:	4b68      	ldr	r3, [pc, #416]	@ (800477c <HAL_RCC_OscConfig+0x26c>)
 80045da:	681b      	ldr	r3, [r3, #0]
 80045dc:	4a67      	ldr	r2, [pc, #412]	@ (800477c <HAL_RCC_OscConfig+0x26c>)
 80045de:	f423 2380 	bic.w	r3, r3, #262144	@ 0x40000
 80045e2:	6013      	str	r3, [r2, #0]


      /* Check the HSE State */
      if (RCC_OscInitStruct->HSEState != RCC_HSE_OFF)
 80045e4:	687b      	ldr	r3, [r7, #4]
 80045e6:	685b      	ldr	r3, [r3, #4]
 80045e8:	2b00      	cmp	r3, #0
 80045ea:	d013      	beq.n	8004614 <HAL_RCC_OscConfig+0x104>
      {
        /* Get Start Tick */
        tickstart = HAL_GetTick();
 80045ec:	f7ff f9fe 	bl	80039ec <HAL_GetTick>
 80045f0:	6138      	str	r0, [r7, #16]

        /* Wait till HSE is ready */
        while (__HAL_RCC_GET_FLAG(RCC_FLAG_HSERDY) == RESET)
 80045f2:	e008      	b.n	8004606 <HAL_RCC_OscConfig+0xf6>
        {
          if ((HAL_GetTick() - tickstart) > HSE_TIMEOUT_VALUE)
 80045f4:	f7ff f9fa 	bl	80039ec <HAL_GetTick>
 80045f8:	4602      	mov	r2, r0
 80045fa:	693b      	ldr	r3, [r7, #16]
 80045fc:	1ad3      	subs	r3, r2, r3
 80045fe:	2b64      	cmp	r3, #100	@ 0x64
 8004600:	d901      	bls.n	8004606 <HAL_RCC_OscConfig+0xf6>
          {
            return HAL_TIMEOUT;
 8004602:	2303      	movs	r3, #3
 8004604:	e200      	b.n	8004a08 <HAL_RCC_OscConfig+0x4f8>
        while (__HAL_RCC_GET_FLAG(RCC_FLAG_HSERDY) == RESET)
 8004606:	4b5d      	ldr	r3, [pc, #372]	@ (800477c <HAL_RCC_OscConfig+0x26c>)
 8004608:	681b      	ldr	r3, [r3, #0]
 800460a:	f403 3300 	and.w	r3, r3, #131072	@ 0x20000
 800460e:	2b00      	cmp	r3, #0
 8004610:	d0f0      	beq.n	80045f4 <HAL_RCC_OscConfig+0xe4>
 8004612:	e014      	b.n	800463e <HAL_RCC_OscConfig+0x12e>
        }
      }
      else
      {
        /* Get Start Tick */
        tickstart = HAL_GetTick();
 8004614:	f7ff f9ea 	bl	80039ec <HAL_GetTick>
 8004618:	6138      	str	r0, [r7, #16]

        /* Wait till HSE is disabled */
        while (__HAL_RCC_GET_FLAG(RCC_FLAG_HSERDY) != RESET)
 800461a:	e008      	b.n	800462e <HAL_RCC_OscConfig+0x11e>
        {
          if ((HAL_GetTick() - tickstart) > HSE_TIMEOUT_VALUE)
 800461c:	f7ff f9e6 	bl	80039ec <HAL_GetTick>
 8004620:	4602      	mov	r2, r0
 8004622:	693b      	ldr	r3, [r7, #16]
 8004624:	1ad3      	subs	r3, r2, r3
 8004626:	2b64      	cmp	r3, #100	@ 0x64
 8004628:	d901      	bls.n	800462e <HAL_RCC_OscConfig+0x11e>
          {
            return HAL_TIMEOUT;
 800462a:	2303      	movs	r3, #3
 800462c:	e1ec      	b.n	8004a08 <HAL_RCC_OscConfig+0x4f8>
        while (__HAL_RCC_GET_FLAG(RCC_FLAG_HSERDY) != RESET)
 800462e:	4b53      	ldr	r3, [pc, #332]	@ (800477c <HAL_RCC_OscConfig+0x26c>)
 8004630:	681b      	ldr	r3, [r3, #0]
 8004632:	f403 3300 	and.w	r3, r3, #131072	@ 0x20000
 8004636:	2b00      	cmp	r3, #0
 8004638:	d1f0      	bne.n	800461c <HAL_RCC_OscConfig+0x10c>
 800463a:	e000      	b.n	800463e <HAL_RCC_OscConfig+0x12e>
      if ((__HAL_RCC_GET_FLAG(RCC_FLAG_HSERDY) != RESET) && (RCC_OscInitStruct->HSEState == RCC_HSE_OFF))
 800463c:	bf00      	nop
        }
      }
    }
  }
  /*----------------------------- HSI Configuration --------------------------*/
  if (((RCC_OscInitStruct->OscillatorType) & RCC_OSCILLATORTYPE_HSI) == RCC_OSCILLATORTYPE_HSI)
 800463e:	687b      	ldr	r3, [r7, #4]
 8004640:	681b      	ldr	r3, [r3, #0]
 8004642:	f003 0302 	and.w	r3, r3, #2
 8004646:	2b00      	cmp	r3, #0
 8004648:	d063      	beq.n	8004712 <HAL_RCC_OscConfig+0x202>
    /* Check the parameters */
    assert_param(IS_RCC_HSI(RCC_OscInitStruct->HSIState));
    assert_param(IS_RCC_CALIBRATION_VALUE(RCC_OscInitStruct->HSICalibrationValue));

    /* Check if HSI is used as system clock or as PLL source when PLL is selected as system clock */
    if ((__HAL_RCC_GET_SYSCLK_SOURCE() == RCC_SYSCLKSOURCE_STATUS_HSI)
 800464a:	4b4c      	ldr	r3, [pc, #304]	@ (800477c <HAL_RCC_OscConfig+0x26c>)
 800464c:	685b      	ldr	r3, [r3, #4]
 800464e:	f003 030c 	and.w	r3, r3, #12
 8004652:	2b00      	cmp	r3, #0
 8004654:	d00b      	beq.n	800466e <HAL_RCC_OscConfig+0x15e>
        || ((__HAL_RCC_GET_SYSCLK_SOURCE() == RCC_SYSCLKSOURCE_STATUS_PLLCLK) && (__HAL_RCC_GET_PLL_OSCSOURCE() == RCC_PLLSOURCE_HSI_DIV2)))
 8004656:	4b49      	ldr	r3, [pc, #292]	@ (800477c <HAL_RCC_OscConfig+0x26c>)
 8004658:	685b      	ldr	r3, [r3, #4]
 800465a:	f003 030c 	and.w	r3, r3, #12
 800465e:	2b08      	cmp	r3, #8
 8004660:	d11c      	bne.n	800469c <HAL_RCC_OscConfig+0x18c>
 8004662:	4b46      	ldr	r3, [pc, #280]	@ (800477c <HAL_RCC_OscConfig+0x26c>)
 8004664:	685b      	ldr	r3, [r3, #4]
 8004666:	f403 3380 	and.w	r3, r3, #65536	@ 0x10000
 800466a:	2b00      	cmp	r3, #0
 800466c:	d116      	bne.n	800469c <HAL_RCC_OscConfig+0x18c>
    {
      /* When HSI is used as system clock it will not disabled */
      if ((__HAL_RCC_GET_FLAG(RCC_FLAG_HSIRDY) != RESET) && (RCC_OscInitStruct->HSIState != RCC_HSI_ON))
 800466e:	4b43      	ldr	r3, [pc, #268]	@ (800477c <HAL_RCC_OscConfig+0x26c>)
 8004670:	681b      	ldr	r3, [r3, #0]
 8004672:	f003 0302 	and.w	r3, r3, #2
 8004676:	2b00      	cmp	r3, #0
 8004678:	d005      	beq.n	8004686 <HAL_RCC_OscConfig+0x176>
 800467a:	687b      	ldr	r3, [r7, #4]
 800467c:	691b      	ldr	r3, [r3, #16]
 800467e:	2b01      	cmp	r3, #1
 8004680:	d001      	beq.n	8004686 <HAL_RCC_OscConfig+0x176>
      {
        return HAL_ERROR;
 8004682:	2301      	movs	r3, #1
 8004684:	e1c0      	b.n	8004a08 <HAL_RCC_OscConfig+0x4f8>
      }
      /* Otherwise, just the calibration is allowed */
      else
      {
        /* Adjusts the Internal High Speed oscillator (HSI) calibration value.*/
        __HAL_RCC_HSI_CALIBRATIONVALUE_ADJUST(RCC_OscInitStruct->HSICalibrationValue);
 8004686:	4b3d      	ldr	r3, [pc, #244]	@ (800477c <HAL_RCC_OscConfig+0x26c>)
 8004688:	681b      	ldr	r3, [r3, #0]
 800468a:	f023 02f8 	bic.w	r2, r3, #248	@ 0xf8
 800468e:	687b      	ldr	r3, [r7, #4]
 8004690:	695b      	ldr	r3, [r3, #20]
 8004692:	00db      	lsls	r3, r3, #3
 8004694:	4939      	ldr	r1, [pc, #228]	@ (800477c <HAL_RCC_OscConfig+0x26c>)
 8004696:	4313      	orrs	r3, r2
 8004698:	600b      	str	r3, [r1, #0]
      if ((__HAL_RCC_GET_FLAG(RCC_FLAG_HSIRDY) != RESET) && (RCC_OscInitStruct->HSIState != RCC_HSI_ON))
 800469a:	e03a      	b.n	8004712 <HAL_RCC_OscConfig+0x202>
      }
    }
    else
    {
      /* Check the HSI State */
      if (RCC_OscInitStruct->HSIState != RCC_HSI_OFF)
 800469c:	687b      	ldr	r3, [r7, #4]
 800469e:	691b      	ldr	r3, [r3, #16]
 80046a0:	2b00      	cmp	r3, #0
 80046a2:	d020      	beq.n	80046e6 <HAL_RCC_OscConfig+0x1d6>
      {
        /* Enable the Internal High Speed oscillator (HSI). */
        __HAL_RCC_HSI_ENABLE();
 80046a4:	4b36      	ldr	r3, [pc, #216]	@ (8004780 <HAL_RCC_OscConfig+0x270>)
 80046a6:	2201      	movs	r2, #1
 80046a8:	601a      	str	r2, [r3, #0]

        /* Get Start Tick */
        tickstart = HAL_GetTick();
 80046aa:	f7ff f99f 	bl	80039ec <HAL_GetTick>
 80046ae:	6138      	str	r0, [r7, #16]

        /* Wait till HSI is ready */
        while (__HAL_RCC_GET_FLAG(RCC_FLAG_HSIRDY) == RESET)
 80046b0:	e008      	b.n	80046c4 <HAL_RCC_OscConfig+0x1b4>
        {
          if ((HAL_GetTick() - tickstart) > HSI_TIMEOUT_VALUE)
 80046b2:	f7ff f99b 	bl	80039ec <HAL_GetTick>
 80046b6:	4602      	mov	r2, r0
 80046b8:	693b      	ldr	r3, [r7, #16]
 80046ba:	1ad3      	subs	r3, r2, r3
 80046bc:	2b02      	cmp	r3, #2
 80046be:	d901      	bls.n	80046c4 <HAL_RCC_OscConfig+0x1b4>
          {
            return HAL_TIMEOUT;
 80046c0:	2303      	movs	r3, #3
 80046c2:	e1a1      	b.n	8004a08 <HAL_RCC_OscConfig+0x4f8>
        while (__HAL_RCC_GET_FLAG(RCC_FLAG_HSIRDY) == RESET)
 80046c4:	4b2d      	ldr	r3, [pc, #180]	@ (800477c <HAL_RCC_OscConfig+0x26c>)
 80046c6:	681b      	ldr	r3, [r3, #0]
 80046c8:	f003 0302 	and.w	r3, r3, #2
 80046cc:	2b00      	cmp	r3, #0
 80046ce:	d0f0      	beq.n	80046b2 <HAL_RCC_OscConfig+0x1a2>
          }
        }

        /* Adjusts the Internal High Speed oscillator (HSI) calibration value.*/
        __HAL_RCC_HSI_CALIBRATIONVALUE_ADJUST(RCC_OscInitStruct->HSICalibrationValue);
 80046d0:	4b2a      	ldr	r3, [pc, #168]	@ (800477c <HAL_RCC_OscConfig+0x26c>)
 80046d2:	681b      	ldr	r3, [r3, #0]
 80046d4:	f023 02f8 	bic.w	r2, r3, #248	@ 0xf8
 80046d8:	687b      	ldr	r3, [r7, #4]
 80046da:	695b      	ldr	r3, [r3, #20]
 80046dc:	00db      	lsls	r3, r3, #3
 80046de:	4927      	ldr	r1, [pc, #156]	@ (800477c <HAL_RCC_OscConfig+0x26c>)
 80046e0:	4313      	orrs	r3, r2
 80046e2:	600b      	str	r3, [r1, #0]
 80046e4:	e015      	b.n	8004712 <HAL_RCC_OscConfig+0x202>
      }
      else
      {
        /* Disable the Internal High Speed oscillator (HSI). */
        __HAL_RCC_HSI_DISABLE();
 80046e6:	4b26      	ldr	r3, [pc, #152]	@ (8004780 <HAL_RCC_OscConfig+0x270>)
 80046e8:	2200      	movs	r2, #0
 80046ea:	601a      	str	r2, [r3, #0]

        /* Get Start Tick */
        tickstart = HAL_GetTick();
 80046ec:	f7ff f97e 	bl	80039ec <HAL_GetTick>
 80046f0:	6138      	str	r0, [r7, #16]

        /* Wait till HSI is disabled */
        while (__HAL_RCC_GET_FLAG(RCC_FLAG_HSIRDY) != RESET)
 80046f2:	e008      	b.n	8004706 <HAL_RCC_OscConfig+0x1f6>
        {
          if ((HAL_GetTick() - tickstart) > HSI_TIMEOUT_VALUE)
 80046f4:	f7ff f97a 	bl	80039ec <HAL_GetTick>
 80046f8:	4602      	mov	r2, r0
 80046fa:	693b      	ldr	r3, [r7, #16]
 80046fc:	1ad3      	subs	r3, r2, r3
 80046fe:	2b02      	cmp	r3, #2
 8004700:	d901      	bls.n	8004706 <HAL_RCC_OscConfig+0x1f6>
          {
            return HAL_TIMEOUT;
 8004702:	2303      	movs	r3, #3
 8004704:	e180      	b.n	8004a08 <HAL_RCC_OscConfig+0x4f8>
        while (__HAL_RCC_GET_FLAG(RCC_FLAG_HSIRDY) != RESET)
 8004706:	4b1d      	ldr	r3, [pc, #116]	@ (800477c <HAL_RCC_OscConfig+0x26c>)
 8004708:	681b      	ldr	r3, [r3, #0]
 800470a:	f003 0302 	and.w	r3, r3, #2
 800470e:	2b00      	cmp	r3, #0
 8004710:	d1f0      	bne.n	80046f4 <HAL_RCC_OscConfig+0x1e4>
        }
      }
    }
  }
  /*------------------------------ LSI Configuration -------------------------*/
  if (((RCC_OscInitStruct->OscillatorType) & RCC_OSCILLATORTYPE_LSI) == RCC_OSCILLATORTYPE_LSI)
 8004712:	687b      	ldr	r3, [r7, #4]
 8004714:	681b      	ldr	r3, [r3, #0]
 8004716:	f003 0308 	and.w	r3, r3, #8
 800471a:	2b00      	cmp	r3, #0
 800471c:	d03a      	beq.n	8004794 <HAL_RCC_OscConfig+0x284>
  {
    /* Check the parameters */
    assert_param(IS_RCC_LSI(RCC_OscInitStruct->LSIState));

    /* Check the LSI State */
    if (RCC_OscInitStruct->LSIState != RCC_LSI_OFF)
 800471e:	687b      	ldr	r3, [r7, #4]
 8004720:	699b      	ldr	r3, [r3, #24]
 8004722:	2b00      	cmp	r3, #0
 8004724:	d019      	beq.n	800475a <HAL_RCC_OscConfig+0x24a>
    {
      /* Enable the Internal Low Speed oscillator (LSI). */
      __HAL_RCC_LSI_ENABLE();
 8004726:	4b17      	ldr	r3, [pc, #92]	@ (8004784 <HAL_RCC_OscConfig+0x274>)
 8004728:	2201      	movs	r2, #1
 800472a:	601a      	str	r2, [r3, #0]

      /* Get Start Tick */
      tickstart = HAL_GetTick();
 800472c:	f7ff f95e 	bl	80039ec <HAL_GetTick>
 8004730:	6138      	str	r0, [r7, #16]

      /* Wait till LSI is ready */
      while (__HAL_RCC_GET_FLAG(RCC_FLAG_LSIRDY) == RESET)
 8004732:	e008      	b.n	8004746 <HAL_RCC_OscConfig+0x236>
      {
        if ((HAL_GetTick() - tickstart) > LSI_TIMEOUT_VALUE)
 8004734:	f7ff f95a 	bl	80039ec <HAL_GetTick>
 8004738:	4602      	mov	r2, r0
 800473a:	693b      	ldr	r3, [r7, #16]
 800473c:	1ad3      	subs	r3, r2, r3
 800473e:	2b02      	cmp	r3, #2
 8004740:	d901      	bls.n	8004746 <HAL_RCC_OscConfig+0x236>
        {
          return HAL_TIMEOUT;
 8004742:	2303      	movs	r3, #3
 8004744:	e160      	b.n	8004a08 <HAL_RCC_OscConfig+0x4f8>
      while (__HAL_RCC_GET_FLAG(RCC_FLAG_LSIRDY) == RESET)
 8004746:	4b0d      	ldr	r3, [pc, #52]	@ (800477c <HAL_RCC_OscConfig+0x26c>)
 8004748:	6a5b      	ldr	r3, [r3, #36]	@ 0x24
 800474a:	f003 0302 	and.w	r3, r3, #2
 800474e:	2b00      	cmp	r3, #0
 8004750:	d0f0      	beq.n	8004734 <HAL_RCC_OscConfig+0x224>
        }
      }
      /*  To have a fully stabilized clock in the specified range, a software delay of 1ms
          should be added.*/
      RCC_Delay(1);
 8004752:	2001      	movs	r0, #1
 8004754:	f000 face 	bl	8004cf4 <RCC_Delay>
 8004758:	e01c      	b.n	8004794 <HAL_RCC_OscConfig+0x284>
    }
    else
    {
      /* Disable the Internal Low Speed oscillator (LSI). */
      __HAL_RCC_LSI_DISABLE();
 800475a:	4b0a      	ldr	r3, [pc, #40]	@ (8004784 <HAL_RCC_OscConfig+0x274>)
 800475c:	2200      	movs	r2, #0
 800475e:	601a      	str	r2, [r3, #0]

      /* Get Start Tick */
      tickstart = HAL_GetTick();
 8004760:	f7ff f944 	bl	80039ec <HAL_GetTick>
 8004764:	6138      	str	r0, [r7, #16]

      /* Wait till LSI is disabled */
      while (__HAL_RCC_GET_FLAG(RCC_FLAG_LSIRDY) != RESET)
 8004766:	e00f      	b.n	8004788 <HAL_RCC_OscConfig+0x278>
      {
        if ((HAL_GetTick() - tickstart) > LSI_TIMEOUT_VALUE)
 8004768:	f7ff f940 	bl	80039ec <HAL_GetTick>
 800476c:	4602      	mov	r2, r0
 800476e:	693b      	ldr	r3, [r7, #16]
 8004770:	1ad3      	subs	r3, r2, r3
 8004772:	2b02      	cmp	r3, #2
 8004774:	d908      	bls.n	8004788 <HAL_RCC_OscConfig+0x278>
        {
          return HAL_TIMEOUT;
 8004776:	2303      	movs	r3, #3
 8004778:	e146      	b.n	8004a08 <HAL_RCC_OscConfig+0x4f8>
 800477a:	bf00      	nop
 800477c:	40021000 	.word	0x40021000
 8004780:	42420000 	.word	0x42420000
 8004784:	42420480 	.word	0x42420480
      while (__HAL_RCC_GET_FLAG(RCC_FLAG_LSIRDY) != RESET)
 8004788:	4b92      	ldr	r3, [pc, #584]	@ (80049d4 <HAL_RCC_OscConfig+0x4c4>)
 800478a:	6a5b      	ldr	r3, [r3, #36]	@ 0x24
 800478c:	f003 0302 	and.w	r3, r3, #2
 8004790:	2b00      	cmp	r3, #0
 8004792:	d1e9      	bne.n	8004768 <HAL_RCC_OscConfig+0x258>
        }
      }
    }
  }
  /*------------------------------ LSE Configuration -------------------------*/
  if (((RCC_OscInitStruct->OscillatorType) & RCC_OSCILLATORTYPE_LSE) == RCC_OSCILLATORTYPE_LSE)
 8004794:	687b      	ldr	r3, [r7, #4]
 8004796:	681b      	ldr	r3, [r3, #0]
 8004798:	f003 0304 	and.w	r3, r3, #4
 800479c:	2b00      	cmp	r3, #0
 800479e:	f000 80a6 	beq.w	80048ee <HAL_RCC_OscConfig+0x3de>
  {
    FlagStatus       pwrclkchanged = RESET;
 80047a2:	2300      	movs	r3, #0
 80047a4:	75fb      	strb	r3, [r7, #23]
    /* Check the parameters */
    assert_param(IS_RCC_LSE(RCC_OscInitStruct->LSEState));

    /* Update LSE configuration in Backup Domain control register    */
    /* Requires to enable write access to Backup Domain of necessary */
    if (__HAL_RCC_PWR_IS_CLK_DISABLED())
 80047a6:	4b8b      	ldr	r3, [pc, #556]	@ (80049d4 <HAL_RCC_OscConfig+0x4c4>)
 80047a8:	69db      	ldr	r3, [r3, #28]
 80047aa:	f003 5380 	and.w	r3, r3, #268435456	@ 0x10000000
 80047ae:	2b00      	cmp	r3, #0
 80047b0:	d10d      	bne.n	80047ce <HAL_RCC_OscConfig+0x2be>
    {
      __HAL_RCC_PWR_CLK_ENABLE();
 80047b2:	4b88      	ldr	r3, [pc, #544]	@ (80049d4 <HAL_RCC_OscConfig+0x4c4>)
 80047b4:	69db      	ldr	r3, [r3, #28]
 80047b6:	4a87      	ldr	r2, [pc, #540]	@ (80049d4 <HAL_RCC_OscConfig+0x4c4>)
 80047b8:	f043 5380 	orr.w	r3, r3, #268435456	@ 0x10000000
 80047bc:	61d3      	str	r3, [r2, #28]
 80047be:	4b85      	ldr	r3, [pc, #532]	@ (80049d4 <HAL_RCC_OscConfig+0x4c4>)
 80047c0:	69db      	ldr	r3, [r3, #28]
 80047c2:	f003 5380 	and.w	r3, r3, #268435456	@ 0x10000000
 80047c6:	60bb      	str	r3, [r7, #8]
 80047c8:	68bb      	ldr	r3, [r7, #8]
      pwrclkchanged = SET;
 80047ca:	2301      	movs	r3, #1
 80047cc:	75fb      	strb	r3, [r7, #23]
    }

    if (HAL_IS_BIT_CLR(PWR->CR, PWR_CR_DBP))
 80047ce:	4b82      	ldr	r3, [pc, #520]	@ (80049d8 <HAL_RCC_OscConfig+0x4c8>)
 80047d0:	681b      	ldr	r3, [r3, #0]
 80047d2:	f403 7380 	and.w	r3, r3, #256	@ 0x100
 80047d6:	2b00      	cmp	r3, #0
 80047d8:	d118      	bne.n	800480c <HAL_RCC_OscConfig+0x2fc>
    {
      /* Enable write access to Backup domain */
      SET_BIT(PWR->CR, PWR_CR_DBP);
 80047da:	4b7f      	ldr	r3, [pc, #508]	@ (80049d8 <HAL_RCC_OscConfig+0x4c8>)
 80047dc:	681b      	ldr	r3, [r3, #0]
 80047de:	4a7e      	ldr	r2, [pc, #504]	@ (80049d8 <HAL_RCC_OscConfig+0x4c8>)
 80047e0:	f443 7380 	orr.w	r3, r3, #256	@ 0x100
 80047e4:	6013      	str	r3, [r2, #0]

      /* Wait for Backup domain Write protection disable */
      tickstart = HAL_GetTick();
 80047e6:	f7ff f901 	bl	80039ec <HAL_GetTick>
 80047ea:	6138      	str	r0, [r7, #16]

      while (HAL_IS_BIT_CLR(PWR->CR, PWR_CR_DBP))
 80047ec:	e008      	b.n	8004800 <HAL_RCC_OscConfig+0x2f0>
      {
        if ((HAL_GetTick() - tickstart) > RCC_DBP_TIMEOUT_VALUE)
 80047ee:	f7ff f8fd 	bl	80039ec <HAL_GetTick>
 80047f2:	4602      	mov	r2, r0
 80047f4:	693b      	ldr	r3, [r7, #16]
 80047f6:	1ad3      	subs	r3, r2, r3
 80047f8:	2b64      	cmp	r3, #100	@ 0x64
 80047fa:	d901      	bls.n	8004800 <HAL_RCC_OscConfig+0x2f0>
        {
          return HAL_TIMEOUT;
 80047fc:	2303      	movs	r3, #3
 80047fe:	e103      	b.n	8004a08 <HAL_RCC_OscConfig+0x4f8>
      while (HAL_IS_BIT_CLR(PWR->CR, PWR_CR_DBP))
 8004800:	4b75      	ldr	r3, [pc, #468]	@ (80049d8 <HAL_RCC_OscConfig+0x4c8>)
 8004802:	681b      	ldr	r3, [r3, #0]
 8004804:	f403 7380 	and.w	r3, r3, #256	@ 0x100
 8004808:	2b00      	cmp	r3, #0
 800480a:	d0f0      	beq.n	80047ee <HAL_RCC_OscConfig+0x2de>
        }
      }
    }

    /* Set the new LSE configuration -----------------------------------------*/
    __HAL_RCC_LSE_CONFIG(RCC_OscInitStruct->LSEState);
 800480c:	687b      	ldr	r3, [r7, #4]
 800480e:	68db      	ldr	r3, [r3, #12]
 8004810:	2b01      	cmp	r3, #1
 8004812:	d106      	bne.n	8004822 <HAL_RCC_OscConfig+0x312>
 8004814:	4b6f      	ldr	r3, [pc, #444]	@ (80049d4 <HAL_RCC_OscConfig+0x4c4>)
 8004816:	6a1b      	ldr	r3, [r3, #32]
 8004818:	4a6e      	ldr	r2, [pc, #440]	@ (80049d4 <HAL_RCC_OscConfig+0x4c4>)
 800481a:	f043 0301 	orr.w	r3, r3, #1
 800481e:	6213      	str	r3, [r2, #32]
 8004820:	e02d      	b.n	800487e <HAL_RCC_OscConfig+0x36e>
 8004822:	687b      	ldr	r3, [r7, #4]
 8004824:	68db      	ldr	r3, [r3, #12]
 8004826:	2b00      	cmp	r3, #0
 8004828:	d10c      	bne.n	8004844 <HAL_RCC_OscConfig+0x334>
 800482a:	4b6a      	ldr	r3, [pc, #424]	@ (80049d4 <HAL_RCC_OscConfig+0x4c4>)
 800482c:	6a1b      	ldr	r3, [r3, #32]
 800482e:	4a69      	ldr	r2, [pc, #420]	@ (80049d4 <HAL_RCC_OscConfig+0x4c4>)
 8004830:	f023 0301 	bic.w	r3, r3, #1
 8004834:	6213      	str	r3, [r2, #32]
 8004836:	4b67      	ldr	r3, [pc, #412]	@ (80049d4 <HAL_RCC_OscConfig+0x4c4>)
 8004838:	6a1b      	ldr	r3, [r3, #32]
 800483a:	4a66      	ldr	r2, [pc, #408]	@ (80049d4 <HAL_RCC_OscConfig+0x4c4>)
 800483c:	f023 0304 	bic.w	r3, r3, #4
 8004840:	6213      	str	r3, [r2, #32]
 8004842:	e01c      	b.n	800487e <HAL_RCC_OscConfig+0x36e>
 8004844:	687b      	ldr	r3, [r7, #4]
 8004846:	68db      	ldr	r3, [r3, #12]
 8004848:	2b05      	cmp	r3, #5
 800484a:	d10c      	bne.n	8004866 <HAL_RCC_OscConfig+0x356>
 800484c:	4b61      	ldr	r3, [pc, #388]	@ (80049d4 <HAL_RCC_OscConfig+0x4c4>)
 800484e:	6a1b      	ldr	r3, [r3, #32]
 8004850:	4a60      	ldr	r2, [pc, #384]	@ (80049d4 <HAL_RCC_OscConfig+0x4c4>)
 8004852:	f043 0304 	orr.w	r3, r3, #4
 8004856:	6213      	str	r3, [r2, #32]
 8004858:	4b5e      	ldr	r3, [pc, #376]	@ (80049d4 <HAL_RCC_OscConfig+0x4c4>)
 800485a:	6a1b      	ldr	r3, [r3, #32]
 800485c:	4a5d      	ldr	r2, [pc, #372]	@ (80049d4 <HAL_RCC_OscConfig+0x4c4>)
 800485e:	f043 0301 	orr.w	r3, r3, #1
 8004862:	6213      	str	r3, [r2, #32]
 8004864:	e00b      	b.n	800487e <HAL_RCC_OscConfig+0x36e>
 8004866:	4b5b      	ldr	r3, [pc, #364]	@ (80049d4 <HAL_RCC_OscConfig+0x4c4>)
 8004868:	6a1b      	ldr	r3, [r3, #32]
 800486a:	4a5a      	ldr	r2, [pc, #360]	@ (80049d4 <HAL_RCC_OscConfig+0x4c4>)
 800486c:	f023 0301 	bic.w	r3, r3, #1
 8004870:	6213      	str	r3, [r2, #32]
 8004872:	4b58      	ldr	r3, [pc, #352]	@ (80049d4 <HAL_RCC_OscConfig+0x4c4>)
 8004874:	6a1b      	ldr	r3, [r3, #32]
 8004876:	4a57      	ldr	r2, [pc, #348]	@ (80049d4 <HAL_RCC_OscConfig+0x4c4>)
 8004878:	f023 0304 	bic.w	r3, r3, #4
 800487c:	6213      	str	r3, [r2, #32]
    /* Check the LSE State */
    if (RCC_OscInitStruct->LSEState != RCC_LSE_OFF)
 800487e:	687b      	ldr	r3, [r7, #4]
 8004880:	68db      	ldr	r3, [r3, #12]
 8004882:	2b00      	cmp	r3, #0
 8004884:	d015      	beq.n	80048b2 <HAL_RCC_OscConfig+0x3a2>
    {
      /* Get Start Tick */
      tickstart = HAL_GetTick();
 8004886:	f7ff f8b1 	bl	80039ec <HAL_GetTick>
 800488a:	6138      	str	r0, [r7, #16]

      /* Wait till LSE is ready */
      while (__HAL_RCC_GET_FLAG(RCC_FLAG_LSERDY) == RESET)
 800488c:	e00a      	b.n	80048a4 <HAL_RCC_OscConfig+0x394>
      {
        if ((HAL_GetTick() - tickstart) > RCC_LSE_TIMEOUT_VALUE)
 800488e:	f7ff f8ad 	bl	80039ec <HAL_GetTick>
 8004892:	4602      	mov	r2, r0
 8004894:	693b      	ldr	r3, [r7, #16]
 8004896:	1ad3      	subs	r3, r2, r3
 8004898:	f241 3288 	movw	r2, #5000	@ 0x1388
 800489c:	4293      	cmp	r3, r2
 800489e:	d901      	bls.n	80048a4 <HAL_RCC_OscConfig+0x394>
        {
          return HAL_TIMEOUT;
 80048a0:	2303      	movs	r3, #3
 80048a2:	e0b1      	b.n	8004a08 <HAL_RCC_OscConfig+0x4f8>
      while (__HAL_RCC_GET_FLAG(RCC_FLAG_LSERDY) == RESET)
 80048a4:	4b4b      	ldr	r3, [pc, #300]	@ (80049d4 <HAL_RCC_OscConfig+0x4c4>)
 80048a6:	6a1b      	ldr	r3, [r3, #32]
 80048a8:	f003 0302 	and.w	r3, r3, #2
 80048ac:	2b00      	cmp	r3, #0
 80048ae:	d0ee      	beq.n	800488e <HAL_RCC_OscConfig+0x37e>
 80048b0:	e014      	b.n	80048dc <HAL_RCC_OscConfig+0x3cc>
      }
    }
    else
    {
      /* Get Start Tick */
      tickstart = HAL_GetTick();
 80048b2:	f7ff f89b 	bl	80039ec <HAL_GetTick>
 80048b6:	6138      	str	r0, [r7, #16]

      /* Wait till LSE is disabled */
      while (__HAL_RCC_GET_FLAG(RCC_FLAG_LSERDY) != RESET)
 80048b8:	e00a      	b.n	80048d0 <HAL_RCC_OscConfig+0x3c0>
      {
        if ((HAL_GetTick() - tickstart) > RCC_LSE_TIMEOUT_VALUE)
 80048ba:	f7ff f897 	bl	80039ec <HAL_GetTick>
 80048be:	4602      	mov	r2, r0
 80048c0:	693b      	ldr	r3, [r7, #16]
 80048c2:	1ad3      	subs	r3, r2, r3
 80048c4:	f241 3288 	movw	r2, #5000	@ 0x1388
 80048c8:	4293      	cmp	r3, r2
 80048ca:	d901      	bls.n	80048d0 <HAL_RCC_OscConfig+0x3c0>
        {
          return HAL_TIMEOUT;
 80048cc:	2303      	movs	r3, #3
 80048ce:	e09b      	b.n	8004a08 <HAL_RCC_OscConfig+0x4f8>
      while (__HAL_RCC_GET_FLAG(RCC_FLAG_LSERDY) != RESET)
 80048d0:	4b40      	ldr	r3, [pc, #256]	@ (80049d4 <HAL_RCC_OscConfig+0x4c4>)
 80048d2:	6a1b      	ldr	r3, [r3, #32]
 80048d4:	f003 0302 	and.w	r3, r3, #2
 80048d8:	2b00      	cmp	r3, #0
 80048da:	d1ee      	bne.n	80048ba <HAL_RCC_OscConfig+0x3aa>
        }
      }
    }

    /* Require to disable power clock if necessary */
    if (pwrclkchanged == SET)
 80048dc:	7dfb      	ldrb	r3, [r7, #23]
 80048de:	2b01      	cmp	r3, #1
 80048e0:	d105      	bne.n	80048ee <HAL_RCC_OscConfig+0x3de>
    {
      __HAL_RCC_PWR_CLK_DISABLE();
 80048e2:	4b3c      	ldr	r3, [pc, #240]	@ (80049d4 <HAL_RCC_OscConfig+0x4c4>)
 80048e4:	69db      	ldr	r3, [r3, #28]
 80048e6:	4a3b      	ldr	r2, [pc, #236]	@ (80049d4 <HAL_RCC_OscConfig+0x4c4>)
 80048e8:	f023 5380 	bic.w	r3, r3, #268435456	@ 0x10000000
 80048ec:	61d3      	str	r3, [r2, #28]

#endif /* RCC_CR_PLL2ON */
  /*-------------------------------- PLL Configuration -----------------------*/
  /* Check the parameters */
  assert_param(IS_RCC_PLL(RCC_OscInitStruct->PLL.PLLState));
  if ((RCC_OscInitStruct->PLL.PLLState) != RCC_PLL_NONE)
 80048ee:	687b      	ldr	r3, [r7, #4]
 80048f0:	69db      	ldr	r3, [r3, #28]
 80048f2:	2b00      	cmp	r3, #0
 80048f4:	f000 8087 	beq.w	8004a06 <HAL_RCC_OscConfig+0x4f6>
  {
    /* Check if the PLL is used as system clock or not */
    if (__HAL_RCC_GET_SYSCLK_SOURCE() != RCC_SYSCLKSOURCE_STATUS_PLLCLK)
 80048f8:	4b36      	ldr	r3, [pc, #216]	@ (80049d4 <HAL_RCC_OscConfig+0x4c4>)
 80048fa:	685b      	ldr	r3, [r3, #4]
 80048fc:	f003 030c 	and.w	r3, r3, #12
 8004900:	2b08      	cmp	r3, #8
 8004902:	d061      	beq.n	80049c8 <HAL_RCC_OscConfig+0x4b8>
    {
      if ((RCC_OscInitStruct->PLL.PLLState) == RCC_PLL_ON)
 8004904:	687b      	ldr	r3, [r7, #4]
 8004906:	69db      	ldr	r3, [r3, #28]
 8004908:	2b02      	cmp	r3, #2
 800490a:	d146      	bne.n	800499a <HAL_RCC_OscConfig+0x48a>
        /* Check the parameters */
        assert_param(IS_RCC_PLLSOURCE(RCC_OscInitStruct->PLL.PLLSource));
        assert_param(IS_RCC_PLL_MUL(RCC_OscInitStruct->PLL.PLLMUL));

        /* Disable the main PLL. */
        __HAL_RCC_PLL_DISABLE();
 800490c:	4b33      	ldr	r3, [pc, #204]	@ (80049dc <HAL_RCC_OscConfig+0x4cc>)
 800490e:	2200      	movs	r2, #0
 8004910:	601a      	str	r2, [r3, #0]

        /* Get Start Tick */
        tickstart = HAL_GetTick();
 8004912:	f7ff f86b 	bl	80039ec <HAL_GetTick>
 8004916:	6138      	str	r0, [r7, #16]

        /* Wait till PLL is disabled */
        while (__HAL_RCC_GET_FLAG(RCC_FLAG_PLLRDY)  != RESET)
 8004918:	e008      	b.n	800492c <HAL_RCC_OscConfig+0x41c>
        {
          if ((HAL_GetTick() - tickstart) > PLL_TIMEOUT_VALUE)
 800491a:	f7ff f867 	bl	80039ec <HAL_GetTick>
 800491e:	4602      	mov	r2, r0
 8004920:	693b      	ldr	r3, [r7, #16]
 8004922:	1ad3      	subs	r3, r2, r3
 8004924:	2b02      	cmp	r3, #2
 8004926:	d901      	bls.n	800492c <HAL_RCC_OscConfig+0x41c>
          {
            return HAL_TIMEOUT;
 8004928:	2303      	movs	r3, #3
 800492a:	e06d      	b.n	8004a08 <HAL_RCC_OscConfig+0x4f8>
        while (__HAL_RCC_GET_FLAG(RCC_FLAG_PLLRDY)  != RESET)
 800492c:	4b29      	ldr	r3, [pc, #164]	@ (80049d4 <HAL_RCC_OscConfig+0x4c4>)
 800492e:	681b      	ldr	r3, [r3, #0]
 8004930:	f003 7300 	and.w	r3, r3, #33554432	@ 0x2000000
 8004934:	2b00      	cmp	r3, #0
 8004936:	d1f0      	bne.n	800491a <HAL_RCC_OscConfig+0x40a>
          }
        }

        /* Configure the HSE prediv factor --------------------------------*/
        /* It can be written only when the PLL is disabled. Not used in PLL source is different than HSE */
        if (RCC_OscInitStruct->PLL.PLLSource == RCC_PLLSOURCE_HSE)
 8004938:	687b      	ldr	r3, [r7, #4]
 800493a:	6a1b      	ldr	r3, [r3, #32]
 800493c:	f5b3 3f80 	cmp.w	r3, #65536	@ 0x10000
 8004940:	d108      	bne.n	8004954 <HAL_RCC_OscConfig+0x444>
          /* Set PREDIV1 source */
          SET_BIT(RCC->CFGR2, RCC_OscInitStruct->Prediv1Source);
#endif /* RCC_CFGR2_PREDIV1SRC */

          /* Set PREDIV1 Value */
          __HAL_RCC_HSE_PREDIV_CONFIG(RCC_OscInitStruct->HSEPredivValue);
 8004942:	4b24      	ldr	r3, [pc, #144]	@ (80049d4 <HAL_RCC_OscConfig+0x4c4>)
 8004944:	685b      	ldr	r3, [r3, #4]
 8004946:	f423 3200 	bic.w	r2, r3, #131072	@ 0x20000
 800494a:	687b      	ldr	r3, [r7, #4]
 800494c:	689b      	ldr	r3, [r3, #8]
 800494e:	4921      	ldr	r1, [pc, #132]	@ (80049d4 <HAL_RCC_OscConfig+0x4c4>)
 8004950:	4313      	orrs	r3, r2
 8004952:	604b      	str	r3, [r1, #4]
        }

        /* Configure the main PLL clock source and multiplication factors. */
        __HAL_RCC_PLL_CONFIG(RCC_OscInitStruct->PLL.PLLSource,
 8004954:	4b1f      	ldr	r3, [pc, #124]	@ (80049d4 <HAL_RCC_OscConfig+0x4c4>)
 8004956:	685b      	ldr	r3, [r3, #4]
 8004958:	f423 1274 	bic.w	r2, r3, #3997696	@ 0x3d0000
 800495c:	687b      	ldr	r3, [r7, #4]
 800495e:	6a19      	ldr	r1, [r3, #32]
 8004960:	687b      	ldr	r3, [r7, #4]
 8004962:	6a5b      	ldr	r3, [r3, #36]	@ 0x24
 8004964:	430b      	orrs	r3, r1
 8004966:	491b      	ldr	r1, [pc, #108]	@ (80049d4 <HAL_RCC_OscConfig+0x4c4>)
 8004968:	4313      	orrs	r3, r2
 800496a:	604b      	str	r3, [r1, #4]
                             RCC_OscInitStruct->PLL.PLLMUL);
        /* Enable the main PLL. */
        __HAL_RCC_PLL_ENABLE();
 800496c:	4b1b      	ldr	r3, [pc, #108]	@ (80049dc <HAL_RCC_OscConfig+0x4cc>)
 800496e:	2201      	movs	r2, #1
 8004970:	601a      	str	r2, [r3, #0]

        /* Get Start Tick */
        tickstart = HAL_GetTick();
 8004972:	f7ff f83b 	bl	80039ec <HAL_GetTick>
 8004976:	6138      	str	r0, [r7, #16]

        /* Wait till PLL is ready */
        while (__HAL_RCC_GET_FLAG(RCC_FLAG_PLLRDY)  == RESET)
 8004978:	e008      	b.n	800498c <HAL_RCC_OscConfig+0x47c>
        {
          if ((HAL_GetTick() - tickstart) > PLL_TIMEOUT_VALUE)
 800497a:	f7ff f837 	bl	80039ec <HAL_GetTick>
 800497e:	4602      	mov	r2, r0
 8004980:	693b      	ldr	r3, [r7, #16]
 8004982:	1ad3      	subs	r3, r2, r3
 8004984:	2b02      	cmp	r3, #2
 8004986:	d901      	bls.n	800498c <HAL_RCC_OscConfig+0x47c>
          {
            return HAL_TIMEOUT;
 8004988:	2303      	movs	r3, #3
 800498a:	e03d      	b.n	8004a08 <HAL_RCC_OscConfig+0x4f8>
        while (__HAL_RCC_GET_FLAG(RCC_FLAG_PLLRDY)  == RESET)
 800498c:	4b11      	ldr	r3, [pc, #68]	@ (80049d4 <HAL_RCC_OscConfig+0x4c4>)
 800498e:	681b      	ldr	r3, [r3, #0]
 8004990:	f003 7300 	and.w	r3, r3, #33554432	@ 0x2000000
 8004994:	2b00      	cmp	r3, #0
 8004996:	d0f0      	beq.n	800497a <HAL_RCC_OscConfig+0x46a>
 8004998:	e035      	b.n	8004a06 <HAL_RCC_OscConfig+0x4f6>
        }
      }
      else
      {
        /* Disable the main PLL. */
        __HAL_RCC_PLL_DISABLE();
 800499a:	4b10      	ldr	r3, [pc, #64]	@ (80049dc <HAL_RCC_OscConfig+0x4cc>)
 800499c:	2200      	movs	r2, #0
 800499e:	601a      	str	r2, [r3, #0]

        /* Get Start Tick */
        tickstart = HAL_GetTick();
 80049a0:	f7ff f824 	bl	80039ec <HAL_GetTick>
 80049a4:	6138      	str	r0, [r7, #16]

        /* Wait till PLL is disabled */
        while (__HAL_RCC_GET_FLAG(RCC_FLAG_PLLRDY)  != RESET)
 80049a6:	e008      	b.n	80049ba <HAL_RCC_OscConfig+0x4aa>
        {
          if ((HAL_GetTick() - tickstart) > PLL_TIMEOUT_VALUE)
 80049a8:	f7ff f820 	bl	80039ec <HAL_GetTick>
 80049ac:	4602      	mov	r2, r0
 80049ae:	693b      	ldr	r3, [r7, #16]
 80049b0:	1ad3      	subs	r3, r2, r3
 80049b2:	2b02      	cmp	r3, #2
 80049b4:	d901      	bls.n	80049ba <HAL_RCC_OscConfig+0x4aa>
          {
            return HAL_TIMEOUT;
 80049b6:	2303      	movs	r3, #3
 80049b8:	e026      	b.n	8004a08 <HAL_RCC_OscConfig+0x4f8>
        while (__HAL_RCC_GET_FLAG(RCC_FLAG_PLLRDY)  != RESET)
 80049ba:	4b06      	ldr	r3, [pc, #24]	@ (80049d4 <HAL_RCC_OscConfig+0x4c4>)
 80049bc:	681b      	ldr	r3, [r3, #0]
 80049be:	f003 7300 	and.w	r3, r3, #33554432	@ 0x2000000
 80049c2:	2b00      	cmp	r3, #0
 80049c4:	d1f0      	bne.n	80049a8 <HAL_RCC_OscConfig+0x498>
 80049c6:	e01e      	b.n	8004a06 <HAL_RCC_OscConfig+0x4f6>
      }
    }
    else
    {
      /* Check if there is a request to disable the PLL used as System clock source */
      if ((RCC_OscInitStruct->PLL.PLLState) == RCC_PLL_OFF)
 80049c8:	687b      	ldr	r3, [r7, #4]
 80049ca:	69db      	ldr	r3, [r3, #28]
 80049cc:	2b01      	cmp	r3, #1
 80049ce:	d107      	bne.n	80049e0 <HAL_RCC_OscConfig+0x4d0>
      {
        return HAL_ERROR;
 80049d0:	2301      	movs	r3, #1
 80049d2:	e019      	b.n	8004a08 <HAL_RCC_OscConfig+0x4f8>
 80049d4:	40021000 	.word	0x40021000
 80049d8:	40007000 	.word	0x40007000
 80049dc:	42420060 	.word	0x42420060
      }
      else
      {
        /* Do not return HAL_ERROR if request repeats the current configuration */
        pll_config = RCC->CFGR;
 80049e0:	4b0b      	ldr	r3, [pc, #44]	@ (8004a10 <HAL_RCC_OscConfig+0x500>)
 80049e2:	685b      	ldr	r3, [r3, #4]
 80049e4:	60fb      	str	r3, [r7, #12]
        if ((READ_BIT(pll_config, RCC_CFGR_PLLSRC) != RCC_OscInitStruct->PLL.PLLSource) ||
 80049e6:	68fb      	ldr	r3, [r7, #12]
 80049e8:	f403 3280 	and.w	r2, r3, #65536	@ 0x10000
 80049ec:	687b      	ldr	r3, [r7, #4]
 80049ee:	6a1b      	ldr	r3, [r3, #32]
 80049f0:	429a      	cmp	r2, r3
 80049f2:	d106      	bne.n	8004a02 <HAL_RCC_OscConfig+0x4f2>
            (READ_BIT(pll_config, RCC_CFGR_PLLMULL) != RCC_OscInitStruct->PLL.PLLMUL))
 80049f4:	68fb      	ldr	r3, [r7, #12]
 80049f6:	f403 1270 	and.w	r2, r3, #3932160	@ 0x3c0000
 80049fa:	687b      	ldr	r3, [r7, #4]
 80049fc:	6a5b      	ldr	r3, [r3, #36]	@ 0x24
        if ((READ_BIT(pll_config, RCC_CFGR_PLLSRC) != RCC_OscInitStruct->PLL.PLLSource) ||
 80049fe:	429a      	cmp	r2, r3
 8004a00:	d001      	beq.n	8004a06 <HAL_RCC_OscConfig+0x4f6>
        {
          return HAL_ERROR;
 8004a02:	2301      	movs	r3, #1
 8004a04:	e000      	b.n	8004a08 <HAL_RCC_OscConfig+0x4f8>
        }
      }
    }
  }

  return HAL_OK;
 8004a06:	2300      	movs	r3, #0
}
 8004a08:	4618      	mov	r0, r3
 8004a0a:	3718      	adds	r7, #24
 8004a0c:	46bd      	mov	sp, r7
 8004a0e:	bd80      	pop	{r7, pc}
 8004a10:	40021000 	.word	0x40021000

08004a14 <HAL_RCC_ClockConfig>:
  *         You can use @ref HAL_RCC_GetClockConfig() function to know which clock is
  *         currently used as system clock source.
  * @retval HAL status
  */
HAL_StatusTypeDef HAL_RCC_ClockConfig(RCC_ClkInitTypeDef  *RCC_ClkInitStruct, uint32_t FLatency)
{
 8004a14:	b580      	push	{r7, lr}
 8004a16:	b084      	sub	sp, #16
 8004a18:	af00      	add	r7, sp, #0
 8004a1a:	6078      	str	r0, [r7, #4]
 8004a1c:	6039      	str	r1, [r7, #0]
  uint32_t tickstart;

  /* Check Null pointer */
  if (RCC_ClkInitStruct == NULL)
 8004a1e:	687b      	ldr	r3, [r7, #4]
 8004a20:	2b00      	cmp	r3, #0
 8004a22:	d101      	bne.n	8004a28 <HAL_RCC_ClockConfig+0x14>
  {
    return HAL_ERROR;
 8004a24:	2301      	movs	r3, #1
 8004a26:	e0d0      	b.n	8004bca <HAL_RCC_ClockConfig+0x1b6>
  must be correctly programmed according to the frequency of the CPU clock
    (HCLK) of the device. */

#if defined(FLASH_ACR_LATENCY)
  /* Increasing the number of wait states because of higher CPU frequency */
  if (FLatency > __HAL_FLASH_GET_LATENCY())
 8004a28:	4b6a      	ldr	r3, [pc, #424]	@ (8004bd4 <HAL_RCC_ClockConfig+0x1c0>)
 8004a2a:	681b      	ldr	r3, [r3, #0]
 8004a2c:	f003 0307 	and.w	r3, r3, #7
 8004a30:	683a      	ldr	r2, [r7, #0]
 8004a32:	429a      	cmp	r2, r3
 8004a34:	d910      	bls.n	8004a58 <HAL_RCC_ClockConfig+0x44>
  {
    /* Program the new number of wait states to the LATENCY bits in the FLASH_ACR register */
    __HAL_FLASH_SET_LATENCY(FLatency);
 8004a36:	4b67      	ldr	r3, [pc, #412]	@ (8004bd4 <HAL_RCC_ClockConfig+0x1c0>)
 8004a38:	681b      	ldr	r3, [r3, #0]
 8004a3a:	f023 0207 	bic.w	r2, r3, #7
 8004a3e:	4965      	ldr	r1, [pc, #404]	@ (8004bd4 <HAL_RCC_ClockConfig+0x1c0>)
 8004a40:	683b      	ldr	r3, [r7, #0]
 8004a42:	4313      	orrs	r3, r2
 8004a44:	600b      	str	r3, [r1, #0]

    /* Check that the new number of wait states is taken into account to access the Flash
    memory by reading the FLASH_ACR register */
    if (__HAL_FLASH_GET_LATENCY() != FLatency)
 8004a46:	4b63      	ldr	r3, [pc, #396]	@ (8004bd4 <HAL_RCC_ClockConfig+0x1c0>)
 8004a48:	681b      	ldr	r3, [r3, #0]
 8004a4a:	f003 0307 	and.w	r3, r3, #7
 8004a4e:	683a      	ldr	r2, [r7, #0]
 8004a50:	429a      	cmp	r2, r3
 8004a52:	d001      	beq.n	8004a58 <HAL_RCC_ClockConfig+0x44>
  {
    return HAL_ERROR;
 8004a54:	2301      	movs	r3, #1
 8004a56:	e0b8      	b.n	8004bca <HAL_RCC_ClockConfig+0x1b6>
  }
}

#endif /* FLASH_ACR_LATENCY */
/*-------------------------- HCLK Configuration --------------------------*/
if (((RCC_ClkInitStruct->ClockType) & RCC_CLOCKTYPE_HCLK) == RCC_CLOCKTYPE_HCLK)
 8004a58:	687b      	ldr	r3, [r7, #4]
 8004a5a:	681b      	ldr	r3, [r3, #0]
 8004a5c:	f003 0302 	and.w	r3, r3, #2
 8004a60:	2b00      	cmp	r3, #0
 8004a62:	d020      	beq.n	8004aa6 <HAL_RCC_ClockConfig+0x92>
  {
    /* Set the highest APBx dividers in order to ensure that we do not go through
    a non-spec phase whatever we decrease or increase HCLK. */
    if (((RCC_ClkInitStruct->ClockType) & RCC_CLOCKTYPE_PCLK1) == RCC_CLOCKTYPE_PCLK1)
 8004a64:	687b      	ldr	r3, [r7, #4]
 8004a66:	681b      	ldr	r3, [r3, #0]
 8004a68:	f003 0304 	and.w	r3, r3, #4
 8004a6c:	2b00      	cmp	r3, #0
 8004a6e:	d005      	beq.n	8004a7c <HAL_RCC_ClockConfig+0x68>
    {
      MODIFY_REG(RCC->CFGR, RCC_CFGR_PPRE1, RCC_HCLK_DIV16);
 8004a70:	4b59      	ldr	r3, [pc, #356]	@ (8004bd8 <HAL_RCC_ClockConfig+0x1c4>)
 8004a72:	685b      	ldr	r3, [r3, #4]
 8004a74:	4a58      	ldr	r2, [pc, #352]	@ (8004bd8 <HAL_RCC_ClockConfig+0x1c4>)
 8004a76:	f443 63e0 	orr.w	r3, r3, #1792	@ 0x700
 8004a7a:	6053      	str	r3, [r2, #4]
    }

    if (((RCC_ClkInitStruct->ClockType) & RCC_CLOCKTYPE_PCLK2) == RCC_CLOCKTYPE_PCLK2)
 8004a7c:	687b      	ldr	r3, [r7, #4]
 8004a7e:	681b      	ldr	r3, [r3, #0]
 8004a80:	f003 0308 	and.w	r3, r3, #8
 8004a84:	2b00      	cmp	r3, #0
 8004a86:	d005      	beq.n	8004a94 <HAL_RCC_ClockConfig+0x80>
    {
      MODIFY_REG(RCC->CFGR, RCC_CFGR_PPRE2, (RCC_HCLK_DIV16 << 3));
 8004a88:	4b53      	ldr	r3, [pc, #332]	@ (8004bd8 <HAL_RCC_ClockConfig+0x1c4>)
 8004a8a:	685b      	ldr	r3, [r3, #4]
 8004a8c:	4a52      	ldr	r2, [pc, #328]	@ (8004bd8 <HAL_RCC_ClockConfig+0x1c4>)
 8004a8e:	f443 5360 	orr.w	r3, r3, #14336	@ 0x3800
 8004a92:	6053      	str	r3, [r2, #4]
    }

    /* Set the new HCLK clock divider */
    assert_param(IS_RCC_HCLK(RCC_ClkInitStruct->AHBCLKDivider));
    MODIFY_REG(RCC->CFGR, RCC_CFGR_HPRE, RCC_ClkInitStruct->AHBCLKDivider);
 8004a94:	4b50      	ldr	r3, [pc, #320]	@ (8004bd8 <HAL_RCC_ClockConfig+0x1c4>)
 8004a96:	685b      	ldr	r3, [r3, #4]
 8004a98:	f023 02f0 	bic.w	r2, r3, #240	@ 0xf0
 8004a9c:	687b      	ldr	r3, [r7, #4]
 8004a9e:	689b      	ldr	r3, [r3, #8]
 8004aa0:	494d      	ldr	r1, [pc, #308]	@ (8004bd8 <HAL_RCC_ClockConfig+0x1c4>)
 8004aa2:	4313      	orrs	r3, r2
 8004aa4:	604b      	str	r3, [r1, #4]
  }

  /*------------------------- SYSCLK Configuration ---------------------------*/
  if (((RCC_ClkInitStruct->ClockType) & RCC_CLOCKTYPE_SYSCLK) == RCC_CLOCKTYPE_SYSCLK)
 8004aa6:	687b      	ldr	r3, [r7, #4]
 8004aa8:	681b      	ldr	r3, [r3, #0]
 8004aaa:	f003 0301 	and.w	r3, r3, #1
 8004aae:	2b00      	cmp	r3, #0
 8004ab0:	d040      	beq.n	8004b34 <HAL_RCC_ClockConfig+0x120>
  {
    assert_param(IS_RCC_SYSCLKSOURCE(RCC_ClkInitStruct->SYSCLKSource));

    /* HSE is selected as System Clock Source */
    if (RCC_ClkInitStruct->SYSCLKSource == RCC_SYSCLKSOURCE_HSE)
 8004ab2:	687b      	ldr	r3, [r7, #4]
 8004ab4:	685b      	ldr	r3, [r3, #4]
 8004ab6:	2b01      	cmp	r3, #1
 8004ab8:	d107      	bne.n	8004aca <HAL_RCC_ClockConfig+0xb6>
    {
      /* Check the HSE ready flag */
      if (__HAL_RCC_GET_FLAG(RCC_FLAG_HSERDY) == RESET)
 8004aba:	4b47      	ldr	r3, [pc, #284]	@ (8004bd8 <HAL_RCC_ClockConfig+0x1c4>)
 8004abc:	681b      	ldr	r3, [r3, #0]
 8004abe:	f403 3300 	and.w	r3, r3, #131072	@ 0x20000
 8004ac2:	2b00      	cmp	r3, #0
 8004ac4:	d115      	bne.n	8004af2 <HAL_RCC_ClockConfig+0xde>
      {
        return HAL_ERROR;
 8004ac6:	2301      	movs	r3, #1
 8004ac8:	e07f      	b.n	8004bca <HAL_RCC_ClockConfig+0x1b6>
      }
    }
    /* PLL is selected as System Clock Source */
    else if (RCC_ClkInitStruct->SYSCLKSource == RCC_SYSCLKSOURCE_PLLCLK)
 8004aca:	687b      	ldr	r3, [r7, #4]
 8004acc:	685b      	ldr	r3, [r3, #4]
 8004ace:	2b02      	cmp	r3, #2
 8004ad0:	d107      	bne.n	8004ae2 <HAL_RCC_ClockConfig+0xce>
    {
      /* Check the PLL ready flag */
      if (__HAL_RCC_GET_FLAG(RCC_FLAG_PLLRDY) == RESET)
 8004ad2:	4b41      	ldr	r3, [pc, #260]	@ (8004bd8 <HAL_RCC_ClockConfig+0x1c4>)
 8004ad4:	681b      	ldr	r3, [r3, #0]
 8004ad6:	f003 7300 	and.w	r3, r3, #33554432	@ 0x2000000
 8004ada:	2b00      	cmp	r3, #0
 8004adc:	d109      	bne.n	8004af2 <HAL_RCC_ClockConfig+0xde>
      {
        return HAL_ERROR;
 8004ade:	2301      	movs	r3, #1
 8004ae0:	e073      	b.n	8004bca <HAL_RCC_ClockConfig+0x1b6>
    }
    /* HSI is selected as System Clock Source */
    else
    {
      /* Check the HSI ready flag */
      if (__HAL_RCC_GET_FLAG(RCC_FLAG_HSIRDY) == RESET)
 8004ae2:	4b3d      	ldr	r3, [pc, #244]	@ (8004bd8 <HAL_RCC_ClockConfig+0x1c4>)
 8004ae4:	681b      	ldr	r3, [r3, #0]
 8004ae6:	f003 0302 	and.w	r3, r3, #2
 8004aea:	2b00      	cmp	r3, #0
 8004aec:	d101      	bne.n	8004af2 <HAL_RCC_ClockConfig+0xde>
      {
        return HAL_ERROR;
 8004aee:	2301      	movs	r3, #1
 8004af0:	e06b      	b.n	8004bca <HAL_RCC_ClockConfig+0x1b6>
      }
    }
    __HAL_RCC_SYSCLK_CONFIG(RCC_ClkInitStruct->SYSCLKSource);
 8004af2:	4b39      	ldr	r3, [pc, #228]	@ (8004bd8 <HAL_RCC_ClockConfig+0x1c4>)
 8004af4:	685b      	ldr	r3, [r3, #4]
 8004af6:	f023 0203 	bic.w	r2, r3, #3
 8004afa:	687b      	ldr	r3, [r7, #4]
 8004afc:	685b      	ldr	r3, [r3, #4]
 8004afe:	4936      	ldr	r1, [pc, #216]	@ (8004bd8 <HAL_RCC_ClockConfig+0x1c4>)
 8004b00:	4313      	orrs	r3, r2
 8004b02:	604b      	str	r3, [r1, #4]

    /* Get Start Tick */
    tickstart = HAL_GetTick();
 8004b04:	f7fe ff72 	bl	80039ec <HAL_GetTick>
 8004b08:	60f8      	str	r0, [r7, #12]

    while (__HAL_RCC_GET_SYSCLK_SOURCE() != (RCC_ClkInitStruct->SYSCLKSource << RCC_CFGR_SWS_Pos))
 8004b0a:	e00a      	b.n	8004b22 <HAL_RCC_ClockConfig+0x10e>
    {
      if ((HAL_GetTick() - tickstart) > CLOCKSWITCH_TIMEOUT_VALUE)
 8004b0c:	f7fe ff6e 	bl	80039ec <HAL_GetTick>
 8004b10:	4602      	mov	r2, r0
 8004b12:	68fb      	ldr	r3, [r7, #12]
 8004b14:	1ad3      	subs	r3, r2, r3
 8004b16:	f241 3288 	movw	r2, #5000	@ 0x1388
 8004b1a:	4293      	cmp	r3, r2
 8004b1c:	d901      	bls.n	8004b22 <HAL_RCC_ClockConfig+0x10e>
      {
        return HAL_TIMEOUT;
 8004b1e:	2303      	movs	r3, #3
 8004b20:	e053      	b.n	8004bca <HAL_RCC_ClockConfig+0x1b6>
    while (__HAL_RCC_GET_SYSCLK_SOURCE() != (RCC_ClkInitStruct->SYSCLKSource << RCC_CFGR_SWS_Pos))
 8004b22:	4b2d      	ldr	r3, [pc, #180]	@ (8004bd8 <HAL_RCC_ClockConfig+0x1c4>)
 8004b24:	685b      	ldr	r3, [r3, #4]
 8004b26:	f003 020c 	and.w	r2, r3, #12
 8004b2a:	687b      	ldr	r3, [r7, #4]
 8004b2c:	685b      	ldr	r3, [r3, #4]
 8004b2e:	009b      	lsls	r3, r3, #2
 8004b30:	429a      	cmp	r2, r3
 8004b32:	d1eb      	bne.n	8004b0c <HAL_RCC_ClockConfig+0xf8>
    }
  }

#if defined(FLASH_ACR_LATENCY)
  /* Decreasing the number of wait states because of lower CPU frequency */
  if (FLatency < __HAL_FLASH_GET_LATENCY())
 8004b34:	4b27      	ldr	r3, [pc, #156]	@ (8004bd4 <HAL_RCC_ClockConfig+0x1c0>)
 8004b36:	681b      	ldr	r3, [r3, #0]
 8004b38:	f003 0307 	and.w	r3, r3, #7
 8004b3c:	683a      	ldr	r2, [r7, #0]
 8004b3e:	429a      	cmp	r2, r3
 8004b40:	d210      	bcs.n	8004b64 <HAL_RCC_ClockConfig+0x150>
  {
    /* Program the new number of wait states to the LATENCY bits in the FLASH_ACR register */
    __HAL_FLASH_SET_LATENCY(FLatency);
 8004b42:	4b24      	ldr	r3, [pc, #144]	@ (8004bd4 <HAL_RCC_ClockConfig+0x1c0>)
 8004b44:	681b      	ldr	r3, [r3, #0]
 8004b46:	f023 0207 	bic.w	r2, r3, #7
 8004b4a:	4922      	ldr	r1, [pc, #136]	@ (8004bd4 <HAL_RCC_ClockConfig+0x1c0>)
 8004b4c:	683b      	ldr	r3, [r7, #0]
 8004b4e:	4313      	orrs	r3, r2
 8004b50:	600b      	str	r3, [r1, #0]

    /* Check that the new number of wait states is taken into account to access the Flash
    memory by reading the FLASH_ACR register */
    if (__HAL_FLASH_GET_LATENCY() != FLatency)
 8004b52:	4b20      	ldr	r3, [pc, #128]	@ (8004bd4 <HAL_RCC_ClockConfig+0x1c0>)
 8004b54:	681b      	ldr	r3, [r3, #0]
 8004b56:	f003 0307 	and.w	r3, r3, #7
 8004b5a:	683a      	ldr	r2, [r7, #0]
 8004b5c:	429a      	cmp	r2, r3
 8004b5e:	d001      	beq.n	8004b64 <HAL_RCC_ClockConfig+0x150>
  {
    return HAL_ERROR;
 8004b60:	2301      	movs	r3, #1
 8004b62:	e032      	b.n	8004bca <HAL_RCC_ClockConfig+0x1b6>
  }
}
#endif /* FLASH_ACR_LATENCY */

/*-------------------------- PCLK1 Configuration ---------------------------*/
if (((RCC_ClkInitStruct->ClockType) & RCC_CLOCKTYPE_PCLK1) == RCC_CLOCKTYPE_PCLK1)
 8004b64:	687b      	ldr	r3, [r7, #4]
 8004b66:	681b      	ldr	r3, [r3, #0]
 8004b68:	f003 0304 	and.w	r3, r3, #4
 8004b6c:	2b00      	cmp	r3, #0
 8004b6e:	d008      	beq.n	8004b82 <HAL_RCC_ClockConfig+0x16e>
  {
    assert_param(IS_RCC_PCLK(RCC_ClkInitStruct->APB1CLKDivider));
    MODIFY_REG(RCC->CFGR, RCC_CFGR_PPRE1, RCC_ClkInitStruct->APB1CLKDivider);
 8004b70:	4b19      	ldr	r3, [pc, #100]	@ (8004bd8 <HAL_RCC_ClockConfig+0x1c4>)
 8004b72:	685b      	ldr	r3, [r3, #4]
 8004b74:	f423 62e0 	bic.w	r2, r3, #1792	@ 0x700
 8004b78:	687b      	ldr	r3, [r7, #4]
 8004b7a:	68db      	ldr	r3, [r3, #12]
 8004b7c:	4916      	ldr	r1, [pc, #88]	@ (8004bd8 <HAL_RCC_ClockConfig+0x1c4>)
 8004b7e:	4313      	orrs	r3, r2
 8004b80:	604b      	str	r3, [r1, #4]
  }

  /*-------------------------- PCLK2 Configuration ---------------------------*/
  if (((RCC_ClkInitStruct->ClockType) & RCC_CLOCKTYPE_PCLK2) == RCC_CLOCKTYPE_PCLK2)
 8004b82:	687b      	ldr	r3, [r7, #4]
 8004b84:	681b      	ldr	r3, [r3, #0]
 8004b86:	f003 0308 	and.w	r3, r3, #8
 8004b8a:	2b00      	cmp	r3, #0
 8004b8c:	d009      	beq.n	8004ba2 <HAL_RCC_ClockConfig+0x18e>
  {
    assert_param(IS_RCC_PCLK(RCC_ClkInitStruct->APB2CLKDivider));
    MODIFY_REG(RCC->CFGR, RCC_CFGR_PPRE2, ((RCC_ClkInitStruct->APB2CLKDivider) << 3));
 8004b8e:	4b12      	ldr	r3, [pc, #72]	@ (8004bd8 <HAL_RCC_ClockConfig+0x1c4>)
 8004b90:	685b      	ldr	r3, [r3, #4]
 8004b92:	f423 5260 	bic.w	r2, r3, #14336	@ 0x3800
 8004b96:	687b      	ldr	r3, [r7, #4]
 8004b98:	691b      	ldr	r3, [r3, #16]
 8004b9a:	00db      	lsls	r3, r3, #3
 8004b9c:	490e      	ldr	r1, [pc, #56]	@ (8004bd8 <HAL_RCC_ClockConfig+0x1c4>)
 8004b9e:	4313      	orrs	r3, r2
 8004ba0:	604b      	str	r3, [r1, #4]
  }

  /* Update the SystemCoreClock global variable */
  SystemCoreClock = HAL_RCC_GetSysClockFreq() >> AHBPrescTable[(RCC->CFGR & RCC_CFGR_HPRE) >> RCC_CFGR_HPRE_Pos];
 8004ba2:	f000 f821 	bl	8004be8 <HAL_RCC_GetSysClockFreq>
 8004ba6:	4602      	mov	r2, r0
 8004ba8:	4b0b      	ldr	r3, [pc, #44]	@ (8004bd8 <HAL_RCC_ClockConfig+0x1c4>)
 8004baa:	685b      	ldr	r3, [r3, #4]
 8004bac:	091b      	lsrs	r3, r3, #4
 8004bae:	f003 030f 	and.w	r3, r3, #15
 8004bb2:	490a      	ldr	r1, [pc, #40]	@ (8004bdc <HAL_RCC_ClockConfig+0x1c8>)
 8004bb4:	5ccb      	ldrb	r3, [r1, r3]
 8004bb6:	fa22 f303 	lsr.w	r3, r2, r3
 8004bba:	4a09      	ldr	r2, [pc, #36]	@ (8004be0 <HAL_RCC_ClockConfig+0x1cc>)
 8004bbc:	6013      	str	r3, [r2, #0]

  /* Configure the source of time base considering new system clocks settings*/
  HAL_InitTick(uwTickPrio);
 8004bbe:	4b09      	ldr	r3, [pc, #36]	@ (8004be4 <HAL_RCC_ClockConfig+0x1d0>)
 8004bc0:	681b      	ldr	r3, [r3, #0]
 8004bc2:	4618      	mov	r0, r3
 8004bc4:	f7fe fed0 	bl	8003968 <HAL_InitTick>

  return HAL_OK;
 8004bc8:	2300      	movs	r3, #0
}
 8004bca:	4618      	mov	r0, r3
 8004bcc:	3710      	adds	r7, #16
 8004bce:	46bd      	mov	sp, r7
 8004bd0:	bd80      	pop	{r7, pc}
 8004bd2:	bf00      	nop
 8004bd4:	40022000 	.word	0x40022000
 8004bd8:	40021000 	.word	0x40021000
 8004bdc:	080079d4 	.word	0x080079d4
 8004be0:	20000024 	.word	0x20000024
 8004be4:	2000002c 	.word	0x2000002c

08004be8 <HAL_RCC_GetSysClockFreq>:
  *         right SYSCLK value. Otherwise, any configuration based on this function will be incorrect.
  *
  * @retval SYSCLK frequency
  */
uint32_t HAL_RCC_GetSysClockFreq(void)
{
 8004be8:	b480      	push	{r7}
 8004bea:	b087      	sub	sp, #28
 8004bec:	af00      	add	r7, sp, #0
#else
  static const uint8_t aPredivFactorTable[2U] = {1, 2};
#endif /*RCC_CFGR2_PREDIV1*/

#endif
  uint32_t tmpreg = 0U, prediv = 0U, pllclk = 0U, pllmul = 0U;
 8004bee:	2300      	movs	r3, #0
 8004bf0:	60fb      	str	r3, [r7, #12]
 8004bf2:	2300      	movs	r3, #0
 8004bf4:	60bb      	str	r3, [r7, #8]
 8004bf6:	2300      	movs	r3, #0
 8004bf8:	617b      	str	r3, [r7, #20]
 8004bfa:	2300      	movs	r3, #0
 8004bfc:	607b      	str	r3, [r7, #4]
  uint32_t sysclockfreq = 0U;
 8004bfe:	2300      	movs	r3, #0
 8004c00:	613b      	str	r3, [r7, #16]
#if defined(RCC_CFGR2_PREDIV1SRC)
  uint32_t prediv2 = 0U, pll2mul = 0U;
#endif /*RCC_CFGR2_PREDIV1SRC*/

  tmpreg = RCC->CFGR;
 8004c02:	4b1e      	ldr	r3, [pc, #120]	@ (8004c7c <HAL_RCC_GetSysClockFreq+0x94>)
 8004c04:	685b      	ldr	r3, [r3, #4]
 8004c06:	60fb      	str	r3, [r7, #12]

  /* Get SYSCLK source -------------------------------------------------------*/
  switch (tmpreg & RCC_CFGR_SWS)
 8004c08:	68fb      	ldr	r3, [r7, #12]
 8004c0a:	f003 030c 	and.w	r3, r3, #12
 8004c0e:	2b04      	cmp	r3, #4
 8004c10:	d002      	beq.n	8004c18 <HAL_RCC_GetSysClockFreq+0x30>
 8004c12:	2b08      	cmp	r3, #8
 8004c14:	d003      	beq.n	8004c1e <HAL_RCC_GetSysClockFreq+0x36>
 8004c16:	e027      	b.n	8004c68 <HAL_RCC_GetSysClockFreq+0x80>
  {
    case RCC_SYSCLKSOURCE_STATUS_HSE:  /* HSE used as system clock */
    {
      sysclockfreq = HSE_VALUE;
 8004c18:	4b19      	ldr	r3, [pc, #100]	@ (8004c80 <HAL_RCC_GetSysClockFreq+0x98>)
 8004c1a:	613b      	str	r3, [r7, #16]
      break;
 8004c1c:	e027      	b.n	8004c6e <HAL_RCC_GetSysClockFreq+0x86>
    }
    case RCC_SYSCLKSOURCE_STATUS_PLLCLK:  /* PLL used as system clock */
    {
      pllmul = aPLLMULFactorTable[(uint32_t)(tmpreg & RCC_CFGR_PLLMULL) >> RCC_CFGR_PLLMULL_Pos];
 8004c1e:	68fb      	ldr	r3, [r7, #12]
 8004c20:	0c9b      	lsrs	r3, r3, #18
 8004c22:	f003 030f 	and.w	r3, r3, #15
 8004c26:	4a17      	ldr	r2, [pc, #92]	@ (8004c84 <HAL_RCC_GetSysClockFreq+0x9c>)
 8004c28:	5cd3      	ldrb	r3, [r2, r3]
 8004c2a:	607b      	str	r3, [r7, #4]
      if ((tmpreg & RCC_CFGR_PLLSRC) != RCC_PLLSOURCE_HSI_DIV2)
 8004c2c:	68fb      	ldr	r3, [r7, #12]
 8004c2e:	f403 3380 	and.w	r3, r3, #65536	@ 0x10000
 8004c32:	2b00      	cmp	r3, #0
 8004c34:	d010      	beq.n	8004c58 <HAL_RCC_GetSysClockFreq+0x70>
      {
#if defined(RCC_CFGR2_PREDIV1)
        prediv = aPredivFactorTable[(uint32_t)(RCC->CFGR2 & RCC_CFGR2_PREDIV1) >> RCC_CFGR2_PREDIV1_Pos];
#else
        prediv = aPredivFactorTable[(uint32_t)(RCC->CFGR & RCC_CFGR_PLLXTPRE) >> RCC_CFGR_PLLXTPRE_Pos];
 8004c36:	4b11      	ldr	r3, [pc, #68]	@ (8004c7c <HAL_RCC_GetSysClockFreq+0x94>)
 8004c38:	685b      	ldr	r3, [r3, #4]
 8004c3a:	0c5b      	lsrs	r3, r3, #17
 8004c3c:	f003 0301 	and.w	r3, r3, #1
 8004c40:	4a11      	ldr	r2, [pc, #68]	@ (8004c88 <HAL_RCC_GetSysClockFreq+0xa0>)
 8004c42:	5cd3      	ldrb	r3, [r2, r3]
 8004c44:	60bb      	str	r3, [r7, #8]
        {
          pllclk = pllclk / 2;
        }
#else
        /* HSE used as PLL clock source : PLLCLK = HSE/PREDIV1 * PLLMUL */
        pllclk = (uint32_t)((HSE_VALUE  * pllmul) / prediv);
 8004c46:	687b      	ldr	r3, [r7, #4]
 8004c48:	4a0d      	ldr	r2, [pc, #52]	@ (8004c80 <HAL_RCC_GetSysClockFreq+0x98>)
 8004c4a:	fb03 f202 	mul.w	r2, r3, r2
 8004c4e:	68bb      	ldr	r3, [r7, #8]
 8004c50:	fbb2 f3f3 	udiv	r3, r2, r3
 8004c54:	617b      	str	r3, [r7, #20]
 8004c56:	e004      	b.n	8004c62 <HAL_RCC_GetSysClockFreq+0x7a>
#endif /*RCC_CFGR2_PREDIV1SRC*/
      }
      else
      {
        /* HSI used as PLL clock source : PLLCLK = HSI/2 * PLLMUL */
        pllclk = (uint32_t)((HSI_VALUE >> 1) * pllmul);
 8004c58:	687b      	ldr	r3, [r7, #4]
 8004c5a:	4a0c      	ldr	r2, [pc, #48]	@ (8004c8c <HAL_RCC_GetSysClockFreq+0xa4>)
 8004c5c:	fb02 f303 	mul.w	r3, r2, r3
 8004c60:	617b      	str	r3, [r7, #20]
      }
      sysclockfreq = pllclk;
 8004c62:	697b      	ldr	r3, [r7, #20]
 8004c64:	613b      	str	r3, [r7, #16]
      break;
 8004c66:	e002      	b.n	8004c6e <HAL_RCC_GetSysClockFreq+0x86>
    }
    case RCC_SYSCLKSOURCE_STATUS_HSI:  /* HSI used as system clock source */
    default: /* HSI used as system clock */
    {
      sysclockfreq = HSI_VALUE;
 8004c68:	4b05      	ldr	r3, [pc, #20]	@ (8004c80 <HAL_RCC_GetSysClockFreq+0x98>)
 8004c6a:	613b      	str	r3, [r7, #16]
      break;
 8004c6c:	bf00      	nop
    }
  }
  return sysclockfreq;
 8004c6e:	693b      	ldr	r3, [r7, #16]
}
 8004c70:	4618      	mov	r0, r3
 8004c72:	371c      	adds	r7, #28
 8004c74:	46bd      	mov	sp, r7
 8004c76:	bc80      	pop	{r7}
 8004c78:	4770      	bx	lr
 8004c7a:	bf00      	nop
 8004c7c:	40021000 	.word	0x40021000
 8004c80:	007a1200 	.word	0x007a1200
 8004c84:	080079ec 	.word	0x080079ec
 8004c88:	080079fc 	.word	0x080079fc
 8004c8c:	003d0900 	.word	0x003d0900

08004c90 <HAL_RCC_GetHCLKFreq>:
  * @note   The SystemCoreClock CMSIS variable is used to store System Clock Frequency
  *         and updated within this function
  * @retval HCLK frequency
  */
uint32_t HAL_RCC_GetHCLKFreq(void)
{
 8004c90:	b480      	push	{r7}
 8004c92:	af00      	add	r7, sp, #0
  return SystemCoreClock;
 8004c94:	4b02      	ldr	r3, [pc, #8]	@ (8004ca0 <HAL_RCC_GetHCLKFreq+0x10>)
 8004c96:	681b      	ldr	r3, [r3, #0]
}
 8004c98:	4618      	mov	r0, r3
 8004c9a:	46bd      	mov	sp, r7
 8004c9c:	bc80      	pop	{r7}
 8004c9e:	4770      	bx	lr
 8004ca0:	20000024 	.word	0x20000024

08004ca4 <HAL_RCC_GetPCLK1Freq>:
  * @note   Each time PCLK1 changes, this function must be called to update the
  *         right PCLK1 value. Otherwise, any configuration based on this function will be incorrect.
  * @retval PCLK1 frequency
  */
uint32_t HAL_RCC_GetPCLK1Freq(void)
{
 8004ca4:	b580      	push	{r7, lr}
 8004ca6:	af00      	add	r7, sp, #0
  /* Get HCLK source and Compute PCLK1 frequency ---------------------------*/
  return (HAL_RCC_GetHCLKFreq() >> APBPrescTable[(RCC->CFGR & RCC_CFGR_PPRE1) >> RCC_CFGR_PPRE1_Pos]);
 8004ca8:	f7ff fff2 	bl	8004c90 <HAL_RCC_GetHCLKFreq>
 8004cac:	4602      	mov	r2, r0
 8004cae:	4b05      	ldr	r3, [pc, #20]	@ (8004cc4 <HAL_RCC_GetPCLK1Freq+0x20>)
 8004cb0:	685b      	ldr	r3, [r3, #4]
 8004cb2:	0a1b      	lsrs	r3, r3, #8
 8004cb4:	f003 0307 	and.w	r3, r3, #7
 8004cb8:	4903      	ldr	r1, [pc, #12]	@ (8004cc8 <HAL_RCC_GetPCLK1Freq+0x24>)
 8004cba:	5ccb      	ldrb	r3, [r1, r3]
 8004cbc:	fa22 f303 	lsr.w	r3, r2, r3
}
 8004cc0:	4618      	mov	r0, r3
 8004cc2:	bd80      	pop	{r7, pc}
 8004cc4:	40021000 	.word	0x40021000
 8004cc8:	080079e4 	.word	0x080079e4

08004ccc <HAL_RCC_GetPCLK2Freq>:
  * @note   Each time PCLK2 changes, this function must be called to update the
  *         right PCLK2 value. Otherwise, any configuration based on this function will be incorrect.
  * @retval PCLK2 frequency
  */
uint32_t HAL_RCC_GetPCLK2Freq(void)
{
 8004ccc:	b580      	push	{r7, lr}
 8004cce:	af00      	add	r7, sp, #0
  /* Get HCLK source and Compute PCLK2 frequency ---------------------------*/
  return (HAL_RCC_GetHCLKFreq() >> APBPrescTable[(RCC->CFGR & RCC_CFGR_PPRE2) >> RCC_CFGR_PPRE2_Pos]);
 8004cd0:	f7ff ffde 	bl	8004c90 <HAL_RCC_GetHCLKFreq>
 8004cd4:	4602      	mov	r2, r0
 8004cd6:	4b05      	ldr	r3, [pc, #20]	@ (8004cec <HAL_RCC_GetPCLK2Freq+0x20>)
 8004cd8:	685b      	ldr	r3, [r3, #4]
 8004cda:	0adb      	lsrs	r3, r3, #11
 8004cdc:	f003 0307 	and.w	r3, r3, #7
 8004ce0:	4903      	ldr	r1, [pc, #12]	@ (8004cf0 <HAL_RCC_GetPCLK2Freq+0x24>)
 8004ce2:	5ccb      	ldrb	r3, [r1, r3]
 8004ce4:	fa22 f303 	lsr.w	r3, r2, r3
}
 8004ce8:	4618      	mov	r0, r3
 8004cea:	bd80      	pop	{r7, pc}
 8004cec:	40021000 	.word	0x40021000
 8004cf0:	080079e4 	.word	0x080079e4

08004cf4 <RCC_Delay>:
  * @brief  This function provides delay (in milliseconds) based on CPU cycles method.
  * @param  mdelay: specifies the delay time length, in milliseconds.
  * @retval None
  */
static void RCC_Delay(uint32_t mdelay)
{
 8004cf4:	b480      	push	{r7}
 8004cf6:	b085      	sub	sp, #20
 8004cf8:	af00      	add	r7, sp, #0
 8004cfa:	6078      	str	r0, [r7, #4]
  __IO uint32_t Delay = mdelay * (SystemCoreClock / 8U / 1000U);
 8004cfc:	4b0a      	ldr	r3, [pc, #40]	@ (8004d28 <RCC_Delay+0x34>)
 8004cfe:	681b      	ldr	r3, [r3, #0]
 8004d00:	4a0a      	ldr	r2, [pc, #40]	@ (8004d2c <RCC_Delay+0x38>)
 8004d02:	fba2 2303 	umull	r2, r3, r2, r3
 8004d06:	0a5b      	lsrs	r3, r3, #9
 8004d08:	687a      	ldr	r2, [r7, #4]
 8004d0a:	fb02 f303 	mul.w	r3, r2, r3
 8004d0e:	60fb      	str	r3, [r7, #12]
  do
  {
    __NOP();
 8004d10:	bf00      	nop
  }
  while (Delay --);
 8004d12:	68fb      	ldr	r3, [r7, #12]
 8004d14:	1e5a      	subs	r2, r3, #1
 8004d16:	60fa      	str	r2, [r7, #12]
 8004d18:	2b00      	cmp	r3, #0
 8004d1a:	d1f9      	bne.n	8004d10 <RCC_Delay+0x1c>
}
 8004d1c:	bf00      	nop
 8004d1e:	bf00      	nop
 8004d20:	3714      	adds	r7, #20
 8004d22:	46bd      	mov	sp, r7
 8004d24:	bc80      	pop	{r7}
 8004d26:	4770      	bx	lr
 8004d28:	20000024 	.word	0x20000024
 8004d2c:	10624dd3 	.word	0x10624dd3

08004d30 <HAL_TIM_Base_Init>:
  *         Ex: call @ref HAL_TIM_Base_DeInit() before HAL_TIM_Base_Init()
  * @param  htim TIM Base handle
  * @retval HAL status
  */
HAL_StatusTypeDef HAL_TIM_Base_Init(TIM_HandleTypeDef *htim)
{
 8004d30:	b580      	push	{r7, lr}
 8004d32:	b082      	sub	sp, #8
 8004d34:	af00      	add	r7, sp, #0
 8004d36:	6078      	str	r0, [r7, #4]
  /* Check the TIM handle allocation */
  if (htim == NULL)
 8004d38:	687b      	ldr	r3, [r7, #4]
 8004d3a:	2b00      	cmp	r3, #0
 8004d3c:	d101      	bne.n	8004d42 <HAL_TIM_Base_Init+0x12>
  {
    return HAL_ERROR;
 8004d3e:	2301      	movs	r3, #1
 8004d40:	e041      	b.n	8004dc6 <HAL_TIM_Base_Init+0x96>
  assert_param(IS_TIM_COUNTER_MODE(htim->Init.CounterMode));
  assert_param(IS_TIM_CLOCKDIVISION_DIV(htim->Init.ClockDivision));
  assert_param(IS_TIM_PERIOD(htim->Init.Period));
  assert_param(IS_TIM_AUTORELOAD_PRELOAD(htim->Init.AutoReloadPreload));

  if (htim->State == HAL_TIM_STATE_RESET)
 8004d42:	687b      	ldr	r3, [r7, #4]
 8004d44:	f893 303d 	ldrb.w	r3, [r3, #61]	@ 0x3d
 8004d48:	b2db      	uxtb	r3, r3
 8004d4a:	2b00      	cmp	r3, #0
 8004d4c:	d106      	bne.n	8004d5c <HAL_TIM_Base_Init+0x2c>
  {
    /* Allocate lock resource and initialize it */
    htim->Lock = HAL_UNLOCKED;
 8004d4e:	687b      	ldr	r3, [r7, #4]
 8004d50:	2200      	movs	r2, #0
 8004d52:	f883 203c 	strb.w	r2, [r3, #60]	@ 0x3c
    }
    /* Init the low level hardware : GPIO, CLOCK, NVIC */
    htim->Base_MspInitCallback(htim);
#else
    /* Init the low level hardware : GPIO, CLOCK, NVIC */
    HAL_TIM_Base_MspInit(htim);
 8004d56:	6878      	ldr	r0, [r7, #4]
 8004d58:	f7fd fec2 	bl	8002ae0 <HAL_TIM_Base_MspInit>
#endif /* USE_HAL_TIM_REGISTER_CALLBACKS */
  }

  /* Set the TIM state */
  htim->State = HAL_TIM_STATE_BUSY;
 8004d5c:	687b      	ldr	r3, [r7, #4]
 8004d5e:	2202      	movs	r2, #2
 8004d60:	f883 203d 	strb.w	r2, [r3, #61]	@ 0x3d

  /* Set the Time Base configuration */
  TIM_Base_SetConfig(htim->Instance, &htim->Init);
 8004d64:	687b      	ldr	r3, [r7, #4]
 8004d66:	681a      	ldr	r2, [r3, #0]
 8004d68:	687b      	ldr	r3, [r7, #4]
 8004d6a:	3304      	adds	r3, #4
 8004d6c:	4619      	mov	r1, r3
 8004d6e:	4610      	mov	r0, r2
 8004d70:	f000 fe6e 	bl	8005a50 <TIM_Base_SetConfig>

  /* Initialize the DMA burst operation state */
  htim->DMABurstState = HAL_DMA_BURST_STATE_READY;
 8004d74:	687b      	ldr	r3, [r7, #4]
 8004d76:	2201      	movs	r2, #1
 8004d78:	f883 2046 	strb.w	r2, [r3, #70]	@ 0x46

  /* Initialize the TIM channels state */
  TIM_CHANNEL_STATE_SET_ALL(htim, HAL_TIM_CHANNEL_STATE_READY);
 8004d7c:	687b      	ldr	r3, [r7, #4]
 8004d7e:	2201      	movs	r2, #1
 8004d80:	f883 203e 	strb.w	r2, [r3, #62]	@ 0x3e
 8004d84:	687b      	ldr	r3, [r7, #4]
 8004d86:	2201      	movs	r2, #1
 8004d88:	f883 203f 	strb.w	r2, [r3, #63]	@ 0x3f
 8004d8c:	687b      	ldr	r3, [r7, #4]
 8004d8e:	2201      	movs	r2, #1
 8004d90:	f883 2040 	strb.w	r2, [r3, #64]	@ 0x40
 8004d94:	687b      	ldr	r3, [r7, #4]
 8004d96:	2201      	movs	r2, #1
 8004d98:	f883 2041 	strb.w	r2, [r3, #65]	@ 0x41
  TIM_CHANNEL_N_STATE_SET_ALL(htim, HAL_TIM_CHANNEL_STATE_READY);
 8004d9c:	687b      	ldr	r3, [r7, #4]
 8004d9e:	2201      	movs	r2, #1
 8004da0:	f883 2042 	strb.w	r2, [r3, #66]	@ 0x42
 8004da4:	687b      	ldr	r3, [r7, #4]
 8004da6:	2201      	movs	r2, #1
 8004da8:	f883 2043 	strb.w	r2, [r3, #67]	@ 0x43
 8004dac:	687b      	ldr	r3, [r7, #4]
 8004dae:	2201      	movs	r2, #1
 8004db0:	f883 2044 	strb.w	r2, [r3, #68]	@ 0x44
 8004db4:	687b      	ldr	r3, [r7, #4]
 8004db6:	2201      	movs	r2, #1
 8004db8:	f883 2045 	strb.w	r2, [r3, #69]	@ 0x45

  /* Initialize the TIM state*/
  htim->State = HAL_TIM_STATE_READY;
 8004dbc:	687b      	ldr	r3, [r7, #4]
 8004dbe:	2201      	movs	r2, #1
 8004dc0:	f883 203d 	strb.w	r2, [r3, #61]	@ 0x3d

  return HAL_OK;
 8004dc4:	2300      	movs	r3, #0
}
 8004dc6:	4618      	mov	r0, r3
 8004dc8:	3708      	adds	r7, #8
 8004dca:	46bd      	mov	sp, r7
 8004dcc:	bd80      	pop	{r7, pc}

08004dce <HAL_TIM_PWM_Init>:
  *         Ex: call @ref HAL_TIM_PWM_DeInit() before HAL_TIM_PWM_Init()
  * @param  htim TIM PWM handle
  * @retval HAL status
  */
HAL_StatusTypeDef HAL_TIM_PWM_Init(TIM_HandleTypeDef *htim)
{
 8004dce:	b580      	push	{r7, lr}
 8004dd0:	b082      	sub	sp, #8
 8004dd2:	af00      	add	r7, sp, #0
 8004dd4:	6078      	str	r0, [r7, #4]
  /* Check the TIM handle allocation */
  if (htim == NULL)
 8004dd6:	687b      	ldr	r3, [r7, #4]
 8004dd8:	2b00      	cmp	r3, #0
 8004dda:	d101      	bne.n	8004de0 <HAL_TIM_PWM_Init+0x12>
  {
    return HAL_ERROR;
 8004ddc:	2301      	movs	r3, #1
 8004dde:	e041      	b.n	8004e64 <HAL_TIM_PWM_Init+0x96>
  assert_param(IS_TIM_COUNTER_MODE(htim->Init.CounterMode));
  assert_param(IS_TIM_CLOCKDIVISION_DIV(htim->Init.ClockDivision));
  assert_param(IS_TIM_PERIOD(htim->Init.Period));
  assert_param(IS_TIM_AUTORELOAD_PRELOAD(htim->Init.AutoReloadPreload));

  if (htim->State == HAL_TIM_STATE_RESET)
 8004de0:	687b      	ldr	r3, [r7, #4]
 8004de2:	f893 303d 	ldrb.w	r3, [r3, #61]	@ 0x3d
 8004de6:	b2db      	uxtb	r3, r3
 8004de8:	2b00      	cmp	r3, #0
 8004dea:	d106      	bne.n	8004dfa <HAL_TIM_PWM_Init+0x2c>
  {
    /* Allocate lock resource and initialize it */
    htim->Lock = HAL_UNLOCKED;
 8004dec:	687b      	ldr	r3, [r7, #4]
 8004dee:	2200      	movs	r2, #0
 8004df0:	f883 203c 	strb.w	r2, [r3, #60]	@ 0x3c
    }
    /* Init the low level hardware : GPIO, CLOCK, NVIC */
    htim->PWM_MspInitCallback(htim);
#else
    /* Init the low level hardware : GPIO, CLOCK, NVIC and DMA */
    HAL_TIM_PWM_MspInit(htim);
 8004df4:	6878      	ldr	r0, [r7, #4]
 8004df6:	f000 f839 	bl	8004e6c <HAL_TIM_PWM_MspInit>
#endif /* USE_HAL_TIM_REGISTER_CALLBACKS */
  }

  /* Set the TIM state */
  htim->State = HAL_TIM_STATE_BUSY;
 8004dfa:	687b      	ldr	r3, [r7, #4]
 8004dfc:	2202      	movs	r2, #2
 8004dfe:	f883 203d 	strb.w	r2, [r3, #61]	@ 0x3d

  /* Init the base time for the PWM */
  TIM_Base_SetConfig(htim->Instance, &htim->Init);
 8004e02:	687b      	ldr	r3, [r7, #4]
 8004e04:	681a      	ldr	r2, [r3, #0]
 8004e06:	687b      	ldr	r3, [r7, #4]
 8004e08:	3304      	adds	r3, #4
 8004e0a:	4619      	mov	r1, r3
 8004e0c:	4610      	mov	r0, r2
 8004e0e:	f000 fe1f 	bl	8005a50 <TIM_Base_SetConfig>

  /* Initialize the DMA burst operation state */
  htim->DMABurstState = HAL_DMA_BURST_STATE_READY;
 8004e12:	687b      	ldr	r3, [r7, #4]
 8004e14:	2201      	movs	r2, #1
 8004e16:	f883 2046 	strb.w	r2, [r3, #70]	@ 0x46

  /* Initialize the TIM channels state */
  TIM_CHANNEL_STATE_SET_ALL(htim, HAL_TIM_CHANNEL_STATE_READY);
 8004e1a:	687b      	ldr	r3, [r7, #4]
 8004e1c:	2201      	movs	r2, #1
 8004e1e:	f883 203e 	strb.w	r2, [r3, #62]	@ 0x3e
 8004e22:	687b      	ldr	r3, [r7, #4]
 8004e24:	2201      	movs	r2, #1
 8004e26:	f883 203f 	strb.w	r2, [r3, #63]	@ 0x3f
 8004e2a:	687b      	ldr	r3, [r7, #4]
 8004e2c:	2201      	movs	r2, #1
 8004e2e:	f883 2040 	strb.w	r2, [r3, #64]	@ 0x40
 8004e32:	687b      	ldr	r3, [r7, #4]
 8004e34:	2201      	movs	r2, #1
 8004e36:	f883 2041 	strb.w	r2, [r3, #65]	@ 0x41
  TIM_CHANNEL_N_STATE_SET_ALL(htim, HAL_TIM_CHANNEL_STATE_READY);
 8004e3a:	687b      	ldr	r3, [r7, #4]
 8004e3c:	2201      	movs	r2, #1
 8004e3e:	f883 2042 	strb.w	r2, [r3, #66]	@ 0x42
 8004e42:	687b      	ldr	r3, [r7, #4]
 8004e44:	2201      	movs	r2, #1
 8004e46:	f883 2043 	strb.w	r2, [r3, #67]	@ 0x43
 8004e4a:	687b      	ldr	r3, [r7, #4]
 8004e4c:	2201      	movs	r2, #1
 8004e4e:	f883 2044 	strb.w	r2, [r3, #68]	@ 0x44
 8004e52:	687b      	ldr	r3, [r7, #4]
 8004e54:	2201      	movs	r2, #1
 8004e56:	f883 2045 	strb.w	r2, [r3, #69]	@ 0x45

  /* Initialize the TIM state*/
  htim->State = HAL_TIM_STATE_READY;
 8004e5a:	687b      	ldr	r3, [r7, #4]
 8004e5c:	2201      	movs	r2, #1
 8004e5e:	f883 203d 	strb.w	r2, [r3, #61]	@ 0x3d

  return HAL_OK;
 8004e62:	2300      	movs	r3, #0
}
 8004e64:	4618      	mov	r0, r3
 8004e66:	3708      	adds	r7, #8
 8004e68:	46bd      	mov	sp, r7
 8004e6a:	bd80      	pop	{r7, pc}

08004e6c <HAL_TIM_PWM_MspInit>:
  * @brief  Initializes the TIM PWM MSP.
  * @param  htim TIM PWM handle
  * @retval None
  */
__weak void HAL_TIM_PWM_MspInit(TIM_HandleTypeDef *htim)
{
 8004e6c:	b480      	push	{r7}
 8004e6e:	b083      	sub	sp, #12
 8004e70:	af00      	add	r7, sp, #0
 8004e72:	6078      	str	r0, [r7, #4]
  UNUSED(htim);

  /* NOTE : This function should not be modified, when the callback is needed,
            the HAL_TIM_PWM_MspInit could be implemented in the user file
   */
}
 8004e74:	bf00      	nop
 8004e76:	370c      	adds	r7, #12
 8004e78:	46bd      	mov	sp, r7
 8004e7a:	bc80      	pop	{r7}
 8004e7c:	4770      	bx	lr
	...

08004e80 <HAL_TIM_PWM_Start_DMA>:
  * @param  Length The length of data to be transferred from memory to TIM peripheral
  * @retval HAL status
  */
HAL_StatusTypeDef HAL_TIM_PWM_Start_DMA(TIM_HandleTypeDef *htim, uint32_t Channel, const uint32_t *pData,
                                        uint16_t Length)
{
 8004e80:	b580      	push	{r7, lr}
 8004e82:	b086      	sub	sp, #24
 8004e84:	af00      	add	r7, sp, #0
 8004e86:	60f8      	str	r0, [r7, #12]
 8004e88:	60b9      	str	r1, [r7, #8]
 8004e8a:	607a      	str	r2, [r7, #4]
 8004e8c:	807b      	strh	r3, [r7, #2]
  HAL_StatusTypeDef status = HAL_OK;
 8004e8e:	2300      	movs	r3, #0
 8004e90:	75fb      	strb	r3, [r7, #23]

  /* Check the parameters */
  assert_param(IS_TIM_CCX_INSTANCE(htim->Instance, Channel));

  /* Set the TIM channel state */
  if (TIM_CHANNEL_STATE_GET(htim, Channel) == HAL_TIM_CHANNEL_STATE_BUSY)
 8004e92:	68bb      	ldr	r3, [r7, #8]
 8004e94:	2b00      	cmp	r3, #0
 8004e96:	d109      	bne.n	8004eac <HAL_TIM_PWM_Start_DMA+0x2c>
 8004e98:	68fb      	ldr	r3, [r7, #12]
 8004e9a:	f893 303e 	ldrb.w	r3, [r3, #62]	@ 0x3e
 8004e9e:	b2db      	uxtb	r3, r3
 8004ea0:	2b02      	cmp	r3, #2
 8004ea2:	bf0c      	ite	eq
 8004ea4:	2301      	moveq	r3, #1
 8004ea6:	2300      	movne	r3, #0
 8004ea8:	b2db      	uxtb	r3, r3
 8004eaa:	e022      	b.n	8004ef2 <HAL_TIM_PWM_Start_DMA+0x72>
 8004eac:	68bb      	ldr	r3, [r7, #8]
 8004eae:	2b04      	cmp	r3, #4
 8004eb0:	d109      	bne.n	8004ec6 <HAL_TIM_PWM_Start_DMA+0x46>
 8004eb2:	68fb      	ldr	r3, [r7, #12]
 8004eb4:	f893 303f 	ldrb.w	r3, [r3, #63]	@ 0x3f
 8004eb8:	b2db      	uxtb	r3, r3
 8004eba:	2b02      	cmp	r3, #2
 8004ebc:	bf0c      	ite	eq
 8004ebe:	2301      	moveq	r3, #1
 8004ec0:	2300      	movne	r3, #0
 8004ec2:	b2db      	uxtb	r3, r3
 8004ec4:	e015      	b.n	8004ef2 <HAL_TIM_PWM_Start_DMA+0x72>
 8004ec6:	68bb      	ldr	r3, [r7, #8]
 8004ec8:	2b08      	cmp	r3, #8
 8004eca:	d109      	bne.n	8004ee0 <HAL_TIM_PWM_Start_DMA+0x60>
 8004ecc:	68fb      	ldr	r3, [r7, #12]
 8004ece:	f893 3040 	ldrb.w	r3, [r3, #64]	@ 0x40
 8004ed2:	b2db      	uxtb	r3, r3
 8004ed4:	2b02      	cmp	r3, #2
 8004ed6:	bf0c      	ite	eq
 8004ed8:	2301      	moveq	r3, #1
 8004eda:	2300      	movne	r3, #0
 8004edc:	b2db      	uxtb	r3, r3
 8004ede:	e008      	b.n	8004ef2 <HAL_TIM_PWM_Start_DMA+0x72>
 8004ee0:	68fb      	ldr	r3, [r7, #12]
 8004ee2:	f893 3041 	ldrb.w	r3, [r3, #65]	@ 0x41
 8004ee6:	b2db      	uxtb	r3, r3
 8004ee8:	2b02      	cmp	r3, #2
 8004eea:	bf0c      	ite	eq
 8004eec:	2301      	moveq	r3, #1
 8004eee:	2300      	movne	r3, #0
 8004ef0:	b2db      	uxtb	r3, r3
 8004ef2:	2b00      	cmp	r3, #0
 8004ef4:	d001      	beq.n	8004efa <HAL_TIM_PWM_Start_DMA+0x7a>
  {
    return HAL_BUSY;
 8004ef6:	2302      	movs	r3, #2
 8004ef8:	e153      	b.n	80051a2 <HAL_TIM_PWM_Start_DMA+0x322>
  }
  else if (TIM_CHANNEL_STATE_GET(htim, Channel) == HAL_TIM_CHANNEL_STATE_READY)
 8004efa:	68bb      	ldr	r3, [r7, #8]
 8004efc:	2b00      	cmp	r3, #0
 8004efe:	d109      	bne.n	8004f14 <HAL_TIM_PWM_Start_DMA+0x94>
 8004f00:	68fb      	ldr	r3, [r7, #12]
 8004f02:	f893 303e 	ldrb.w	r3, [r3, #62]	@ 0x3e
 8004f06:	b2db      	uxtb	r3, r3
 8004f08:	2b01      	cmp	r3, #1
 8004f0a:	bf0c      	ite	eq
 8004f0c:	2301      	moveq	r3, #1
 8004f0e:	2300      	movne	r3, #0
 8004f10:	b2db      	uxtb	r3, r3
 8004f12:	e022      	b.n	8004f5a <HAL_TIM_PWM_Start_DMA+0xda>
 8004f14:	68bb      	ldr	r3, [r7, #8]
 8004f16:	2b04      	cmp	r3, #4
 8004f18:	d109      	bne.n	8004f2e <HAL_TIM_PWM_Start_DMA+0xae>
 8004f1a:	68fb      	ldr	r3, [r7, #12]
 8004f1c:	f893 303f 	ldrb.w	r3, [r3, #63]	@ 0x3f
 8004f20:	b2db      	uxtb	r3, r3
 8004f22:	2b01      	cmp	r3, #1
 8004f24:	bf0c      	ite	eq
 8004f26:	2301      	moveq	r3, #1
 8004f28:	2300      	movne	r3, #0
 8004f2a:	b2db      	uxtb	r3, r3
 8004f2c:	e015      	b.n	8004f5a <HAL_TIM_PWM_Start_DMA+0xda>
 8004f2e:	68bb      	ldr	r3, [r7, #8]
 8004f30:	2b08      	cmp	r3, #8
 8004f32:	d109      	bne.n	8004f48 <HAL_TIM_PWM_Start_DMA+0xc8>
 8004f34:	68fb      	ldr	r3, [r7, #12]
 8004f36:	f893 3040 	ldrb.w	r3, [r3, #64]	@ 0x40
 8004f3a:	b2db      	uxtb	r3, r3
 8004f3c:	2b01      	cmp	r3, #1
 8004f3e:	bf0c      	ite	eq
 8004f40:	2301      	moveq	r3, #1
 8004f42:	2300      	movne	r3, #0
 8004f44:	b2db      	uxtb	r3, r3
 8004f46:	e008      	b.n	8004f5a <HAL_TIM_PWM_Start_DMA+0xda>
 8004f48:	68fb      	ldr	r3, [r7, #12]
 8004f4a:	f893 3041 	ldrb.w	r3, [r3, #65]	@ 0x41
 8004f4e:	b2db      	uxtb	r3, r3
 8004f50:	2b01      	cmp	r3, #1
 8004f52:	bf0c      	ite	eq
 8004f54:	2301      	moveq	r3, #1
 8004f56:	2300      	movne	r3, #0
 8004f58:	b2db      	uxtb	r3, r3
 8004f5a:	2b00      	cmp	r3, #0
 8004f5c:	d024      	beq.n	8004fa8 <HAL_TIM_PWM_Start_DMA+0x128>
  {
    if ((pData == NULL) || (Length == 0U))
 8004f5e:	687b      	ldr	r3, [r7, #4]
 8004f60:	2b00      	cmp	r3, #0
 8004f62:	d002      	beq.n	8004f6a <HAL_TIM_PWM_Start_DMA+0xea>
 8004f64:	887b      	ldrh	r3, [r7, #2]
 8004f66:	2b00      	cmp	r3, #0
 8004f68:	d101      	bne.n	8004f6e <HAL_TIM_PWM_Start_DMA+0xee>
    {
      return HAL_ERROR;
 8004f6a:	2301      	movs	r3, #1
 8004f6c:	e119      	b.n	80051a2 <HAL_TIM_PWM_Start_DMA+0x322>
    }
    else
    {
      TIM_CHANNEL_STATE_SET(htim, Channel, HAL_TIM_CHANNEL_STATE_BUSY);
 8004f6e:	68bb      	ldr	r3, [r7, #8]
 8004f70:	2b00      	cmp	r3, #0
 8004f72:	d104      	bne.n	8004f7e <HAL_TIM_PWM_Start_DMA+0xfe>
 8004f74:	68fb      	ldr	r3, [r7, #12]
 8004f76:	2202      	movs	r2, #2
 8004f78:	f883 203e 	strb.w	r2, [r3, #62]	@ 0x3e
 8004f7c:	e016      	b.n	8004fac <HAL_TIM_PWM_Start_DMA+0x12c>
 8004f7e:	68bb      	ldr	r3, [r7, #8]
 8004f80:	2b04      	cmp	r3, #4
 8004f82:	d104      	bne.n	8004f8e <HAL_TIM_PWM_Start_DMA+0x10e>
 8004f84:	68fb      	ldr	r3, [r7, #12]
 8004f86:	2202      	movs	r2, #2
 8004f88:	f883 203f 	strb.w	r2, [r3, #63]	@ 0x3f
 8004f8c:	e00e      	b.n	8004fac <HAL_TIM_PWM_Start_DMA+0x12c>
 8004f8e:	68bb      	ldr	r3, [r7, #8]
 8004f90:	2b08      	cmp	r3, #8
 8004f92:	d104      	bne.n	8004f9e <HAL_TIM_PWM_Start_DMA+0x11e>
 8004f94:	68fb      	ldr	r3, [r7, #12]
 8004f96:	2202      	movs	r2, #2
 8004f98:	f883 2040 	strb.w	r2, [r3, #64]	@ 0x40
 8004f9c:	e006      	b.n	8004fac <HAL_TIM_PWM_Start_DMA+0x12c>
 8004f9e:	68fb      	ldr	r3, [r7, #12]
 8004fa0:	2202      	movs	r2, #2
 8004fa2:	f883 2041 	strb.w	r2, [r3, #65]	@ 0x41
 8004fa6:	e001      	b.n	8004fac <HAL_TIM_PWM_Start_DMA+0x12c>
    }
  }
  else
  {
    return HAL_ERROR;
 8004fa8:	2301      	movs	r3, #1
 8004faa:	e0fa      	b.n	80051a2 <HAL_TIM_PWM_Start_DMA+0x322>
  }

  switch (Channel)
 8004fac:	68bb      	ldr	r3, [r7, #8]
 8004fae:	2b0c      	cmp	r3, #12
 8004fb0:	f200 80ae 	bhi.w	8005110 <HAL_TIM_PWM_Start_DMA+0x290>
 8004fb4:	a201      	add	r2, pc, #4	@ (adr r2, 8004fbc <HAL_TIM_PWM_Start_DMA+0x13c>)
 8004fb6:	f852 f023 	ldr.w	pc, [r2, r3, lsl #2]
 8004fba:	bf00      	nop
 8004fbc:	08004ff1 	.word	0x08004ff1
 8004fc0:	08005111 	.word	0x08005111
 8004fc4:	08005111 	.word	0x08005111
 8004fc8:	08005111 	.word	0x08005111
 8004fcc:	08005039 	.word	0x08005039
 8004fd0:	08005111 	.word	0x08005111
 8004fd4:	08005111 	.word	0x08005111
 8004fd8:	08005111 	.word	0x08005111
 8004fdc:	08005081 	.word	0x08005081
 8004fe0:	08005111 	.word	0x08005111
 8004fe4:	08005111 	.word	0x08005111
 8004fe8:	08005111 	.word	0x08005111
 8004fec:	080050c9 	.word	0x080050c9
  {
    case TIM_CHANNEL_1:
    {
      /* Set the DMA compare callbacks */
      htim->hdma[TIM_DMA_ID_CC1]->XferCpltCallback = TIM_DMADelayPulseCplt;
 8004ff0:	68fb      	ldr	r3, [r7, #12]
 8004ff2:	6a5b      	ldr	r3, [r3, #36]	@ 0x24
 8004ff4:	4a6d      	ldr	r2, [pc, #436]	@ (80051ac <HAL_TIM_PWM_Start_DMA+0x32c>)
 8004ff6:	629a      	str	r2, [r3, #40]	@ 0x28
      htim->hdma[TIM_DMA_ID_CC1]->XferHalfCpltCallback = TIM_DMADelayPulseHalfCplt;
 8004ff8:	68fb      	ldr	r3, [r7, #12]
 8004ffa:	6a5b      	ldr	r3, [r3, #36]	@ 0x24
 8004ffc:	4a6c      	ldr	r2, [pc, #432]	@ (80051b0 <HAL_TIM_PWM_Start_DMA+0x330>)
 8004ffe:	62da      	str	r2, [r3, #44]	@ 0x2c

      /* Set the DMA error callback */
      htim->hdma[TIM_DMA_ID_CC1]->XferErrorCallback = TIM_DMAError ;
 8005000:	68fb      	ldr	r3, [r7, #12]
 8005002:	6a5b      	ldr	r3, [r3, #36]	@ 0x24
 8005004:	4a6b      	ldr	r2, [pc, #428]	@ (80051b4 <HAL_TIM_PWM_Start_DMA+0x334>)
 8005006:	631a      	str	r2, [r3, #48]	@ 0x30

      /* Enable the DMA channel */
      if (HAL_DMA_Start_IT(htim->hdma[TIM_DMA_ID_CC1], (uint32_t)pData, (uint32_t)&htim->Instance->CCR1,
 8005008:	68fb      	ldr	r3, [r7, #12]
 800500a:	6a58      	ldr	r0, [r3, #36]	@ 0x24
 800500c:	6879      	ldr	r1, [r7, #4]
 800500e:	68fb      	ldr	r3, [r7, #12]
 8005010:	681b      	ldr	r3, [r3, #0]
 8005012:	3334      	adds	r3, #52	@ 0x34
 8005014:	461a      	mov	r2, r3
 8005016:	887b      	ldrh	r3, [r7, #2]
 8005018:	f7fe fe7e 	bl	8003d18 <HAL_DMA_Start_IT>
 800501c:	4603      	mov	r3, r0
 800501e:	2b00      	cmp	r3, #0
 8005020:	d001      	beq.n	8005026 <HAL_TIM_PWM_Start_DMA+0x1a6>
                           Length) != HAL_OK)
      {
        /* Return error status */
        return HAL_ERROR;
 8005022:	2301      	movs	r3, #1
 8005024:	e0bd      	b.n	80051a2 <HAL_TIM_PWM_Start_DMA+0x322>
      }

      /* Enable the TIM Capture/Compare 1 DMA request */
      __HAL_TIM_ENABLE_DMA(htim, TIM_DMA_CC1);
 8005026:	68fb      	ldr	r3, [r7, #12]
 8005028:	681b      	ldr	r3, [r3, #0]
 800502a:	68da      	ldr	r2, [r3, #12]
 800502c:	68fb      	ldr	r3, [r7, #12]
 800502e:	681b      	ldr	r3, [r3, #0]
 8005030:	f442 7200 	orr.w	r2, r2, #512	@ 0x200
 8005034:	60da      	str	r2, [r3, #12]
      break;
 8005036:	e06e      	b.n	8005116 <HAL_TIM_PWM_Start_DMA+0x296>
    }

    case TIM_CHANNEL_2:
    {
      /* Set the DMA compare callbacks */
      htim->hdma[TIM_DMA_ID_CC2]->XferCpltCallback = TIM_DMADelayPulseCplt;
 8005038:	68fb      	ldr	r3, [r7, #12]
 800503a:	6a9b      	ldr	r3, [r3, #40]	@ 0x28
 800503c:	4a5b      	ldr	r2, [pc, #364]	@ (80051ac <HAL_TIM_PWM_Start_DMA+0x32c>)
 800503e:	629a      	str	r2, [r3, #40]	@ 0x28
      htim->hdma[TIM_DMA_ID_CC2]->XferHalfCpltCallback = TIM_DMADelayPulseHalfCplt;
 8005040:	68fb      	ldr	r3, [r7, #12]
 8005042:	6a9b      	ldr	r3, [r3, #40]	@ 0x28
 8005044:	4a5a      	ldr	r2, [pc, #360]	@ (80051b0 <HAL_TIM_PWM_Start_DMA+0x330>)
 8005046:	62da      	str	r2, [r3, #44]	@ 0x2c

      /* Set the DMA error callback */
      htim->hdma[TIM_DMA_ID_CC2]->XferErrorCallback = TIM_DMAError ;
 8005048:	68fb      	ldr	r3, [r7, #12]
 800504a:	6a9b      	ldr	r3, [r3, #40]	@ 0x28
 800504c:	4a59      	ldr	r2, [pc, #356]	@ (80051b4 <HAL_TIM_PWM_Start_DMA+0x334>)
 800504e:	631a      	str	r2, [r3, #48]	@ 0x30

      /* Enable the DMA channel */
      if (HAL_DMA_Start_IT(htim->hdma[TIM_DMA_ID_CC2], (uint32_t)pData, (uint32_t)&htim->Instance->CCR2,
 8005050:	68fb      	ldr	r3, [r7, #12]
 8005052:	6a98      	ldr	r0, [r3, #40]	@ 0x28
 8005054:	6879      	ldr	r1, [r7, #4]
 8005056:	68fb      	ldr	r3, [r7, #12]
 8005058:	681b      	ldr	r3, [r3, #0]
 800505a:	3338      	adds	r3, #56	@ 0x38
 800505c:	461a      	mov	r2, r3
 800505e:	887b      	ldrh	r3, [r7, #2]
 8005060:	f7fe fe5a 	bl	8003d18 <HAL_DMA_Start_IT>
 8005064:	4603      	mov	r3, r0
 8005066:	2b00      	cmp	r3, #0
 8005068:	d001      	beq.n	800506e <HAL_TIM_PWM_Start_DMA+0x1ee>
                           Length) != HAL_OK)
      {
        /* Return error status */
        return HAL_ERROR;
 800506a:	2301      	movs	r3, #1
 800506c:	e099      	b.n	80051a2 <HAL_TIM_PWM_Start_DMA+0x322>
      }
      /* Enable the TIM Capture/Compare 2 DMA request */
      __HAL_TIM_ENABLE_DMA(htim, TIM_DMA_CC2);
 800506e:	68fb      	ldr	r3, [r7, #12]
 8005070:	681b      	ldr	r3, [r3, #0]
 8005072:	68da      	ldr	r2, [r3, #12]
 8005074:	68fb      	ldr	r3, [r7, #12]
 8005076:	681b      	ldr	r3, [r3, #0]
 8005078:	f442 6280 	orr.w	r2, r2, #1024	@ 0x400
 800507c:	60da      	str	r2, [r3, #12]
      break;
 800507e:	e04a      	b.n	8005116 <HAL_TIM_PWM_Start_DMA+0x296>
    }

    case TIM_CHANNEL_3:
    {
      /* Set the DMA compare callbacks */
      htim->hdma[TIM_DMA_ID_CC3]->XferCpltCallback = TIM_DMADelayPulseCplt;
 8005080:	68fb      	ldr	r3, [r7, #12]
 8005082:	6adb      	ldr	r3, [r3, #44]	@ 0x2c
 8005084:	4a49      	ldr	r2, [pc, #292]	@ (80051ac <HAL_TIM_PWM_Start_DMA+0x32c>)
 8005086:	629a      	str	r2, [r3, #40]	@ 0x28
      htim->hdma[TIM_DMA_ID_CC3]->XferHalfCpltCallback = TIM_DMADelayPulseHalfCplt;
 8005088:	68fb      	ldr	r3, [r7, #12]
 800508a:	6adb      	ldr	r3, [r3, #44]	@ 0x2c
 800508c:	4a48      	ldr	r2, [pc, #288]	@ (80051b0 <HAL_TIM_PWM_Start_DMA+0x330>)
 800508e:	62da      	str	r2, [r3, #44]	@ 0x2c

      /* Set the DMA error callback */
      htim->hdma[TIM_DMA_ID_CC3]->XferErrorCallback = TIM_DMAError ;
 8005090:	68fb      	ldr	r3, [r7, #12]
 8005092:	6adb      	ldr	r3, [r3, #44]	@ 0x2c
 8005094:	4a47      	ldr	r2, [pc, #284]	@ (80051b4 <HAL_TIM_PWM_Start_DMA+0x334>)
 8005096:	631a      	str	r2, [r3, #48]	@ 0x30

      /* Enable the DMA channel */
      if (HAL_DMA_Start_IT(htim->hdma[TIM_DMA_ID_CC3], (uint32_t)pData, (uint32_t)&htim->Instance->CCR3,
 8005098:	68fb      	ldr	r3, [r7, #12]
 800509a:	6ad8      	ldr	r0, [r3, #44]	@ 0x2c
 800509c:	6879      	ldr	r1, [r7, #4]
 800509e:	68fb      	ldr	r3, [r7, #12]
 80050a0:	681b      	ldr	r3, [r3, #0]
 80050a2:	333c      	adds	r3, #60	@ 0x3c
 80050a4:	461a      	mov	r2, r3
 80050a6:	887b      	ldrh	r3, [r7, #2]
 80050a8:	f7fe fe36 	bl	8003d18 <HAL_DMA_Start_IT>
 80050ac:	4603      	mov	r3, r0
 80050ae:	2b00      	cmp	r3, #0
 80050b0:	d001      	beq.n	80050b6 <HAL_TIM_PWM_Start_DMA+0x236>
                           Length) != HAL_OK)
      {
        /* Return error status */
        return HAL_ERROR;
 80050b2:	2301      	movs	r3, #1
 80050b4:	e075      	b.n	80051a2 <HAL_TIM_PWM_Start_DMA+0x322>
      }
      /* Enable the TIM Output Capture/Compare 3 request */
      __HAL_TIM_ENABLE_DMA(htim, TIM_DMA_CC3);
 80050b6:	68fb      	ldr	r3, [r7, #12]
 80050b8:	681b      	ldr	r3, [r3, #0]
 80050ba:	68da      	ldr	r2, [r3, #12]
 80050bc:	68fb      	ldr	r3, [r7, #12]
 80050be:	681b      	ldr	r3, [r3, #0]
 80050c0:	f442 6200 	orr.w	r2, r2, #2048	@ 0x800
 80050c4:	60da      	str	r2, [r3, #12]
      break;
 80050c6:	e026      	b.n	8005116 <HAL_TIM_PWM_Start_DMA+0x296>
    }

    case TIM_CHANNEL_4:
    {
      /* Set the DMA compare callbacks */
      htim->hdma[TIM_DMA_ID_CC4]->XferCpltCallback = TIM_DMADelayPulseCplt;
 80050c8:	68fb      	ldr	r3, [r7, #12]
 80050ca:	6b1b      	ldr	r3, [r3, #48]	@ 0x30
 80050cc:	4a37      	ldr	r2, [pc, #220]	@ (80051ac <HAL_TIM_PWM_Start_DMA+0x32c>)
 80050ce:	629a      	str	r2, [r3, #40]	@ 0x28
      htim->hdma[TIM_DMA_ID_CC4]->XferHalfCpltCallback = TIM_DMADelayPulseHalfCplt;
 80050d0:	68fb      	ldr	r3, [r7, #12]
 80050d2:	6b1b      	ldr	r3, [r3, #48]	@ 0x30
 80050d4:	4a36      	ldr	r2, [pc, #216]	@ (80051b0 <HAL_TIM_PWM_Start_DMA+0x330>)
 80050d6:	62da      	str	r2, [r3, #44]	@ 0x2c

      /* Set the DMA error callback */
      htim->hdma[TIM_DMA_ID_CC4]->XferErrorCallback = TIM_DMAError ;
 80050d8:	68fb      	ldr	r3, [r7, #12]
 80050da:	6b1b      	ldr	r3, [r3, #48]	@ 0x30
 80050dc:	4a35      	ldr	r2, [pc, #212]	@ (80051b4 <HAL_TIM_PWM_Start_DMA+0x334>)
 80050de:	631a      	str	r2, [r3, #48]	@ 0x30

      /* Enable the DMA channel */
      if (HAL_DMA_Start_IT(htim->hdma[TIM_DMA_ID_CC4], (uint32_t)pData, (uint32_t)&htim->Instance->CCR4,
 80050e0:	68fb      	ldr	r3, [r7, #12]
 80050e2:	6b18      	ldr	r0, [r3, #48]	@ 0x30
 80050e4:	6879      	ldr	r1, [r7, #4]
 80050e6:	68fb      	ldr	r3, [r7, #12]
 80050e8:	681b      	ldr	r3, [r3, #0]
 80050ea:	3340      	adds	r3, #64	@ 0x40
 80050ec:	461a      	mov	r2, r3
 80050ee:	887b      	ldrh	r3, [r7, #2]
 80050f0:	f7fe fe12 	bl	8003d18 <HAL_DMA_Start_IT>
 80050f4:	4603      	mov	r3, r0
 80050f6:	2b00      	cmp	r3, #0
 80050f8:	d001      	beq.n	80050fe <HAL_TIM_PWM_Start_DMA+0x27e>
                           Length) != HAL_OK)
      {
        /* Return error status */
        return HAL_ERROR;
 80050fa:	2301      	movs	r3, #1
 80050fc:	e051      	b.n	80051a2 <HAL_TIM_PWM_Start_DMA+0x322>
      }
      /* Enable the TIM Capture/Compare 4 DMA request */
      __HAL_TIM_ENABLE_DMA(htim, TIM_DMA_CC4);
 80050fe:	68fb      	ldr	r3, [r7, #12]
 8005100:	681b      	ldr	r3, [r3, #0]
 8005102:	68da      	ldr	r2, [r3, #12]
 8005104:	68fb      	ldr	r3, [r7, #12]
 8005106:	681b      	ldr	r3, [r3, #0]
 8005108:	f442 5280 	orr.w	r2, r2, #4096	@ 0x1000
 800510c:	60da      	str	r2, [r3, #12]
      break;
 800510e:	e002      	b.n	8005116 <HAL_TIM_PWM_Start_DMA+0x296>
    }

    default:
      status = HAL_ERROR;
 8005110:	2301      	movs	r3, #1
 8005112:	75fb      	strb	r3, [r7, #23]
      break;
 8005114:	bf00      	nop
  }

  if (status == HAL_OK)
 8005116:	7dfb      	ldrb	r3, [r7, #23]
 8005118:	2b00      	cmp	r3, #0
 800511a:	d141      	bne.n	80051a0 <HAL_TIM_PWM_Start_DMA+0x320>
  {
    /* Enable the Capture compare channel */
    TIM_CCxChannelCmd(htim->Instance, Channel, TIM_CCx_ENABLE);
 800511c:	68fb      	ldr	r3, [r7, #12]
 800511e:	681b      	ldr	r3, [r3, #0]
 8005120:	2201      	movs	r2, #1
 8005122:	68b9      	ldr	r1, [r7, #8]
 8005124:	4618      	mov	r0, r3
 8005126:	f000 ff1f 	bl	8005f68 <TIM_CCxChannelCmd>

    if (IS_TIM_BREAK_INSTANCE(htim->Instance) != RESET)
 800512a:	68fb      	ldr	r3, [r7, #12]
 800512c:	681b      	ldr	r3, [r3, #0]
 800512e:	4a22      	ldr	r2, [pc, #136]	@ (80051b8 <HAL_TIM_PWM_Start_DMA+0x338>)
 8005130:	4293      	cmp	r3, r2
 8005132:	d107      	bne.n	8005144 <HAL_TIM_PWM_Start_DMA+0x2c4>
    {
      /* Enable the main output */
      __HAL_TIM_MOE_ENABLE(htim);
 8005134:	68fb      	ldr	r3, [r7, #12]
 8005136:	681b      	ldr	r3, [r3, #0]
 8005138:	6c5a      	ldr	r2, [r3, #68]	@ 0x44
 800513a:	68fb      	ldr	r3, [r7, #12]
 800513c:	681b      	ldr	r3, [r3, #0]
 800513e:	f442 4200 	orr.w	r2, r2, #32768	@ 0x8000
 8005142:	645a      	str	r2, [r3, #68]	@ 0x44
    }

    /* Enable the Peripheral, except in trigger mode where enable is automatically done with trigger */
    if (IS_TIM_SLAVE_INSTANCE(htim->Instance))
 8005144:	68fb      	ldr	r3, [r7, #12]
 8005146:	681b      	ldr	r3, [r3, #0]
 8005148:	4a1b      	ldr	r2, [pc, #108]	@ (80051b8 <HAL_TIM_PWM_Start_DMA+0x338>)
 800514a:	4293      	cmp	r3, r2
 800514c:	d00e      	beq.n	800516c <HAL_TIM_PWM_Start_DMA+0x2ec>
 800514e:	68fb      	ldr	r3, [r7, #12]
 8005150:	681b      	ldr	r3, [r3, #0]
 8005152:	f1b3 4f80 	cmp.w	r3, #1073741824	@ 0x40000000
 8005156:	d009      	beq.n	800516c <HAL_TIM_PWM_Start_DMA+0x2ec>
 8005158:	68fb      	ldr	r3, [r7, #12]
 800515a:	681b      	ldr	r3, [r3, #0]
 800515c:	4a17      	ldr	r2, [pc, #92]	@ (80051bc <HAL_TIM_PWM_Start_DMA+0x33c>)
 800515e:	4293      	cmp	r3, r2
 8005160:	d004      	beq.n	800516c <HAL_TIM_PWM_Start_DMA+0x2ec>
 8005162:	68fb      	ldr	r3, [r7, #12]
 8005164:	681b      	ldr	r3, [r3, #0]
 8005166:	4a16      	ldr	r2, [pc, #88]	@ (80051c0 <HAL_TIM_PWM_Start_DMA+0x340>)
 8005168:	4293      	cmp	r3, r2
 800516a:	d111      	bne.n	8005190 <HAL_TIM_PWM_Start_DMA+0x310>
    {
      tmpsmcr = htim->Instance->SMCR & TIM_SMCR_SMS;
 800516c:	68fb      	ldr	r3, [r7, #12]
 800516e:	681b      	ldr	r3, [r3, #0]
 8005170:	689b      	ldr	r3, [r3, #8]
 8005172:	f003 0307 	and.w	r3, r3, #7
 8005176:	613b      	str	r3, [r7, #16]
      if (!IS_TIM_SLAVEMODE_TRIGGER_ENABLED(tmpsmcr))
 8005178:	693b      	ldr	r3, [r7, #16]
 800517a:	2b06      	cmp	r3, #6
 800517c:	d010      	beq.n	80051a0 <HAL_TIM_PWM_Start_DMA+0x320>
      {
        __HAL_TIM_ENABLE(htim);
 800517e:	68fb      	ldr	r3, [r7, #12]
 8005180:	681b      	ldr	r3, [r3, #0]
 8005182:	681a      	ldr	r2, [r3, #0]
 8005184:	68fb      	ldr	r3, [r7, #12]
 8005186:	681b      	ldr	r3, [r3, #0]
 8005188:	f042 0201 	orr.w	r2, r2, #1
 800518c:	601a      	str	r2, [r3, #0]
      if (!IS_TIM_SLAVEMODE_TRIGGER_ENABLED(tmpsmcr))
 800518e:	e007      	b.n	80051a0 <HAL_TIM_PWM_Start_DMA+0x320>
      }
    }
    else
    {
      __HAL_TIM_ENABLE(htim);
 8005190:	68fb      	ldr	r3, [r7, #12]
 8005192:	681b      	ldr	r3, [r3, #0]
 8005194:	681a      	ldr	r2, [r3, #0]
 8005196:	68fb      	ldr	r3, [r7, #12]
 8005198:	681b      	ldr	r3, [r3, #0]
 800519a:	f042 0201 	orr.w	r2, r2, #1
 800519e:	601a      	str	r2, [r3, #0]
    }
  }

  /* Return function status */
  return status;
 80051a0:	7dfb      	ldrb	r3, [r7, #23]
}
 80051a2:	4618      	mov	r0, r3
 80051a4:	3718      	adds	r7, #24
 80051a6:	46bd      	mov	sp, r7
 80051a8:	bd80      	pop	{r7, pc}
 80051aa:	bf00      	nop
 80051ac:	08005941 	.word	0x08005941
 80051b0:	080059e9 	.word	0x080059e9
 80051b4:	080058af 	.word	0x080058af
 80051b8:	40012c00 	.word	0x40012c00
 80051bc:	40000400 	.word	0x40000400
 80051c0:	40000800 	.word	0x40000800

080051c4 <HAL_TIM_PWM_Stop_DMA>:
  *            @arg TIM_CHANNEL_3: TIM Channel 3 selected
  *            @arg TIM_CHANNEL_4: TIM Channel 4 selected
  * @retval HAL status
  */
HAL_StatusTypeDef HAL_TIM_PWM_Stop_DMA(TIM_HandleTypeDef *htim, uint32_t Channel)
{
 80051c4:	b580      	push	{r7, lr}
 80051c6:	b084      	sub	sp, #16
 80051c8:	af00      	add	r7, sp, #0
 80051ca:	6078      	str	r0, [r7, #4]
 80051cc:	6039      	str	r1, [r7, #0]
  HAL_StatusTypeDef status = HAL_OK;
 80051ce:	2300      	movs	r3, #0
 80051d0:	73fb      	strb	r3, [r7, #15]

  /* Check the parameters */
  assert_param(IS_TIM_CCX_INSTANCE(htim->Instance, Channel));

  switch (Channel)
 80051d2:	683b      	ldr	r3, [r7, #0]
 80051d4:	2b0c      	cmp	r3, #12
 80051d6:	d855      	bhi.n	8005284 <HAL_TIM_PWM_Stop_DMA+0xc0>
 80051d8:	a201      	add	r2, pc, #4	@ (adr r2, 80051e0 <HAL_TIM_PWM_Stop_DMA+0x1c>)
 80051da:	f852 f023 	ldr.w	pc, [r2, r3, lsl #2]
 80051de:	bf00      	nop
 80051e0:	08005215 	.word	0x08005215
 80051e4:	08005285 	.word	0x08005285
 80051e8:	08005285 	.word	0x08005285
 80051ec:	08005285 	.word	0x08005285
 80051f0:	08005231 	.word	0x08005231
 80051f4:	08005285 	.word	0x08005285
 80051f8:	08005285 	.word	0x08005285
 80051fc:	08005285 	.word	0x08005285
 8005200:	0800524d 	.word	0x0800524d
 8005204:	08005285 	.word	0x08005285
 8005208:	08005285 	.word	0x08005285
 800520c:	08005285 	.word	0x08005285
 8005210:	08005269 	.word	0x08005269
  {
    case TIM_CHANNEL_1:
    {
      /* Disable the TIM Capture/Compare 1 DMA request */
      __HAL_TIM_DISABLE_DMA(htim, TIM_DMA_CC1);
 8005214:	687b      	ldr	r3, [r7, #4]
 8005216:	681b      	ldr	r3, [r3, #0]
 8005218:	68da      	ldr	r2, [r3, #12]
 800521a:	687b      	ldr	r3, [r7, #4]
 800521c:	681b      	ldr	r3, [r3, #0]
 800521e:	f422 7200 	bic.w	r2, r2, #512	@ 0x200
 8005222:	60da      	str	r2, [r3, #12]
      (void)HAL_DMA_Abort_IT(htim->hdma[TIM_DMA_ID_CC1]);
 8005224:	687b      	ldr	r3, [r7, #4]
 8005226:	6a5b      	ldr	r3, [r3, #36]	@ 0x24
 8005228:	4618      	mov	r0, r3
 800522a:	f7fe fe11 	bl	8003e50 <HAL_DMA_Abort_IT>
      break;
 800522e:	e02c      	b.n	800528a <HAL_TIM_PWM_Stop_DMA+0xc6>
    }

    case TIM_CHANNEL_2:
    {
      /* Disable the TIM Capture/Compare 2 DMA request */
      __HAL_TIM_DISABLE_DMA(htim, TIM_DMA_CC2);
 8005230:	687b      	ldr	r3, [r7, #4]
 8005232:	681b      	ldr	r3, [r3, #0]
 8005234:	68da      	ldr	r2, [r3, #12]
 8005236:	687b      	ldr	r3, [r7, #4]
 8005238:	681b      	ldr	r3, [r3, #0]
 800523a:	f422 6280 	bic.w	r2, r2, #1024	@ 0x400
 800523e:	60da      	str	r2, [r3, #12]
      (void)HAL_DMA_Abort_IT(htim->hdma[TIM_DMA_ID_CC2]);
 8005240:	687b      	ldr	r3, [r7, #4]
 8005242:	6a9b      	ldr	r3, [r3, #40]	@ 0x28
 8005244:	4618      	mov	r0, r3
 8005246:	f7fe fe03 	bl	8003e50 <HAL_DMA_Abort_IT>
      break;
 800524a:	e01e      	b.n	800528a <HAL_TIM_PWM_Stop_DMA+0xc6>
    }

    case TIM_CHANNEL_3:
    {
      /* Disable the TIM Capture/Compare 3 DMA request */
      __HAL_TIM_DISABLE_DMA(htim, TIM_DMA_CC3);
 800524c:	687b      	ldr	r3, [r7, #4]
 800524e:	681b      	ldr	r3, [r3, #0]
 8005250:	68da      	ldr	r2, [r3, #12]
 8005252:	687b      	ldr	r3, [r7, #4]
 8005254:	681b      	ldr	r3, [r3, #0]
 8005256:	f422 6200 	bic.w	r2, r2, #2048	@ 0x800
 800525a:	60da      	str	r2, [r3, #12]
      (void)HAL_DMA_Abort_IT(htim->hdma[TIM_DMA_ID_CC3]);
 800525c:	687b      	ldr	r3, [r7, #4]
 800525e:	6adb      	ldr	r3, [r3, #44]	@ 0x2c
 8005260:	4618      	mov	r0, r3
 8005262:	f7fe fdf5 	bl	8003e50 <HAL_DMA_Abort_IT>
      break;
 8005266:	e010      	b.n	800528a <HAL_TIM_PWM_Stop_DMA+0xc6>
    }

    case TIM_CHANNEL_4:
    {
      /* Disable the TIM Capture/Compare 4 interrupt */
      __HAL_TIM_DISABLE_DMA(htim, TIM_DMA_CC4);
 8005268:	687b      	ldr	r3, [r7, #4]
 800526a:	681b      	ldr	r3, [r3, #0]
 800526c:	68da      	ldr	r2, [r3, #12]
 800526e:	687b      	ldr	r3, [r7, #4]
 8005270:	681b      	ldr	r3, [r3, #0]
 8005272:	f422 5280 	bic.w	r2, r2, #4096	@ 0x1000
 8005276:	60da      	str	r2, [r3, #12]
      (void)HAL_DMA_Abort_IT(htim->hdma[TIM_DMA_ID_CC4]);
 8005278:	687b      	ldr	r3, [r7, #4]
 800527a:	6b1b      	ldr	r3, [r3, #48]	@ 0x30
 800527c:	4618      	mov	r0, r3
 800527e:	f7fe fde7 	bl	8003e50 <HAL_DMA_Abort_IT>
      break;
 8005282:	e002      	b.n	800528a <HAL_TIM_PWM_Stop_DMA+0xc6>
    }

    default:
      status = HAL_ERROR;
 8005284:	2301      	movs	r3, #1
 8005286:	73fb      	strb	r3, [r7, #15]
      break;
 8005288:	bf00      	nop
  }

  if (status == HAL_OK)
 800528a:	7bfb      	ldrb	r3, [r7, #15]
 800528c:	2b00      	cmp	r3, #0
 800528e:	d157      	bne.n	8005340 <HAL_TIM_PWM_Stop_DMA+0x17c>
  {
    /* Disable the Capture compare channel */
    TIM_CCxChannelCmd(htim->Instance, Channel, TIM_CCx_DISABLE);
 8005290:	687b      	ldr	r3, [r7, #4]
 8005292:	681b      	ldr	r3, [r3, #0]
 8005294:	2200      	movs	r2, #0
 8005296:	6839      	ldr	r1, [r7, #0]
 8005298:	4618      	mov	r0, r3
 800529a:	f000 fe65 	bl	8005f68 <TIM_CCxChannelCmd>

    if (IS_TIM_BREAK_INSTANCE(htim->Instance) != RESET)
 800529e:	687b      	ldr	r3, [r7, #4]
 80052a0:	681b      	ldr	r3, [r3, #0]
 80052a2:	4a2a      	ldr	r2, [pc, #168]	@ (800534c <HAL_TIM_PWM_Stop_DMA+0x188>)
 80052a4:	4293      	cmp	r3, r2
 80052a6:	d117      	bne.n	80052d8 <HAL_TIM_PWM_Stop_DMA+0x114>
    {
      /* Disable the Main Output */
      __HAL_TIM_MOE_DISABLE(htim);
 80052a8:	687b      	ldr	r3, [r7, #4]
 80052aa:	681b      	ldr	r3, [r3, #0]
 80052ac:	6a1a      	ldr	r2, [r3, #32]
 80052ae:	f241 1311 	movw	r3, #4369	@ 0x1111
 80052b2:	4013      	ands	r3, r2
 80052b4:	2b00      	cmp	r3, #0
 80052b6:	d10f      	bne.n	80052d8 <HAL_TIM_PWM_Stop_DMA+0x114>
 80052b8:	687b      	ldr	r3, [r7, #4]
 80052ba:	681b      	ldr	r3, [r3, #0]
 80052bc:	6a1a      	ldr	r2, [r3, #32]
 80052be:	f240 4344 	movw	r3, #1092	@ 0x444
 80052c2:	4013      	ands	r3, r2
 80052c4:	2b00      	cmp	r3, #0
 80052c6:	d107      	bne.n	80052d8 <HAL_TIM_PWM_Stop_DMA+0x114>
 80052c8:	687b      	ldr	r3, [r7, #4]
 80052ca:	681b      	ldr	r3, [r3, #0]
 80052cc:	6c5a      	ldr	r2, [r3, #68]	@ 0x44
 80052ce:	687b      	ldr	r3, [r7, #4]
 80052d0:	681b      	ldr	r3, [r3, #0]
 80052d2:	f422 4200 	bic.w	r2, r2, #32768	@ 0x8000
 80052d6:	645a      	str	r2, [r3, #68]	@ 0x44
    }

    /* Disable the Peripheral */
    __HAL_TIM_DISABLE(htim);
 80052d8:	687b      	ldr	r3, [r7, #4]
 80052da:	681b      	ldr	r3, [r3, #0]
 80052dc:	6a1a      	ldr	r2, [r3, #32]
 80052de:	f241 1311 	movw	r3, #4369	@ 0x1111
 80052e2:	4013      	ands	r3, r2
 80052e4:	2b00      	cmp	r3, #0
 80052e6:	d10f      	bne.n	8005308 <HAL_TIM_PWM_Stop_DMA+0x144>
 80052e8:	687b      	ldr	r3, [r7, #4]
 80052ea:	681b      	ldr	r3, [r3, #0]
 80052ec:	6a1a      	ldr	r2, [r3, #32]
 80052ee:	f240 4344 	movw	r3, #1092	@ 0x444
 80052f2:	4013      	ands	r3, r2
 80052f4:	2b00      	cmp	r3, #0
 80052f6:	d107      	bne.n	8005308 <HAL_TIM_PWM_Stop_DMA+0x144>
 80052f8:	687b      	ldr	r3, [r7, #4]
 80052fa:	681b      	ldr	r3, [r3, #0]
 80052fc:	681a      	ldr	r2, [r3, #0]
 80052fe:	687b      	ldr	r3, [r7, #4]
 8005300:	681b      	ldr	r3, [r3, #0]
 8005302:	f022 0201 	bic.w	r2, r2, #1
 8005306:	601a      	str	r2, [r3, #0]

    /* Set the TIM channel state */
    TIM_CHANNEL_STATE_SET(htim, Channel, HAL_TIM_CHANNEL_STATE_READY);
 8005308:	683b      	ldr	r3, [r7, #0]
 800530a:	2b00      	cmp	r3, #0
 800530c:	d104      	bne.n	8005318 <HAL_TIM_PWM_Stop_DMA+0x154>
 800530e:	687b      	ldr	r3, [r7, #4]
 8005310:	2201      	movs	r2, #1
 8005312:	f883 203e 	strb.w	r2, [r3, #62]	@ 0x3e
 8005316:	e013      	b.n	8005340 <HAL_TIM_PWM_Stop_DMA+0x17c>
 8005318:	683b      	ldr	r3, [r7, #0]
 800531a:	2b04      	cmp	r3, #4
 800531c:	d104      	bne.n	8005328 <HAL_TIM_PWM_Stop_DMA+0x164>
 800531e:	687b      	ldr	r3, [r7, #4]
 8005320:	2201      	movs	r2, #1
 8005322:	f883 203f 	strb.w	r2, [r3, #63]	@ 0x3f
 8005326:	e00b      	b.n	8005340 <HAL_TIM_PWM_Stop_DMA+0x17c>
 8005328:	683b      	ldr	r3, [r7, #0]
 800532a:	2b08      	cmp	r3, #8
 800532c:	d104      	bne.n	8005338 <HAL_TIM_PWM_Stop_DMA+0x174>
 800532e:	687b      	ldr	r3, [r7, #4]
 8005330:	2201      	movs	r2, #1
 8005332:	f883 2040 	strb.w	r2, [r3, #64]	@ 0x40
 8005336:	e003      	b.n	8005340 <HAL_TIM_PWM_Stop_DMA+0x17c>
 8005338:	687b      	ldr	r3, [r7, #4]
 800533a:	2201      	movs	r2, #1
 800533c:	f883 2041 	strb.w	r2, [r3, #65]	@ 0x41
  }

  /* Return function status */
  return status;
 8005340:	7bfb      	ldrb	r3, [r7, #15]
}
 8005342:	4618      	mov	r0, r3
 8005344:	3710      	adds	r7, #16
 8005346:	46bd      	mov	sp, r7
 8005348:	bd80      	pop	{r7, pc}
 800534a:	bf00      	nop
 800534c:	40012c00 	.word	0x40012c00

08005350 <HAL_TIM_IRQHandler>:
  * @brief  This function handles TIM interrupts requests.
  * @param  htim TIM  handle
  * @retval None
  */
void HAL_TIM_IRQHandler(TIM_HandleTypeDef *htim)
{
 8005350:	b580      	push	{r7, lr}
 8005352:	b084      	sub	sp, #16
 8005354:	af00      	add	r7, sp, #0
 8005356:	6078      	str	r0, [r7, #4]
  uint32_t itsource = htim->Instance->DIER;
 8005358:	687b      	ldr	r3, [r7, #4]
 800535a:	681b      	ldr	r3, [r3, #0]
 800535c:	68db      	ldr	r3, [r3, #12]
 800535e:	60fb      	str	r3, [r7, #12]
  uint32_t itflag   = htim->Instance->SR;
 8005360:	687b      	ldr	r3, [r7, #4]
 8005362:	681b      	ldr	r3, [r3, #0]
 8005364:	691b      	ldr	r3, [r3, #16]
 8005366:	60bb      	str	r3, [r7, #8]

  /* Capture compare 1 event */
  if ((itflag & (TIM_FLAG_CC1)) == (TIM_FLAG_CC1))
 8005368:	68bb      	ldr	r3, [r7, #8]
 800536a:	f003 0302 	and.w	r3, r3, #2
 800536e:	2b00      	cmp	r3, #0
 8005370:	d020      	beq.n	80053b4 <HAL_TIM_IRQHandler+0x64>
  {
    if ((itsource & (TIM_IT_CC1)) == (TIM_IT_CC1))
 8005372:	68fb      	ldr	r3, [r7, #12]
 8005374:	f003 0302 	and.w	r3, r3, #2
 8005378:	2b00      	cmp	r3, #0
 800537a:	d01b      	beq.n	80053b4 <HAL_TIM_IRQHandler+0x64>
    {
      {
        __HAL_TIM_CLEAR_FLAG(htim, TIM_FLAG_CC1);
 800537c:	687b      	ldr	r3, [r7, #4]
 800537e:	681b      	ldr	r3, [r3, #0]
 8005380:	f06f 0202 	mvn.w	r2, #2
 8005384:	611a      	str	r2, [r3, #16]
        htim->Channel = HAL_TIM_ACTIVE_CHANNEL_1;
 8005386:	687b      	ldr	r3, [r7, #4]
 8005388:	2201      	movs	r2, #1
 800538a:	771a      	strb	r2, [r3, #28]

        /* Input capture event */
        if ((htim->Instance->CCMR1 & TIM_CCMR1_CC1S) != 0x00U)
 800538c:	687b      	ldr	r3, [r7, #4]
 800538e:	681b      	ldr	r3, [r3, #0]
 8005390:	699b      	ldr	r3, [r3, #24]
 8005392:	f003 0303 	and.w	r3, r3, #3
 8005396:	2b00      	cmp	r3, #0
 8005398:	d003      	beq.n	80053a2 <HAL_TIM_IRQHandler+0x52>
        {
#if (USE_HAL_TIM_REGISTER_CALLBACKS == 1)
          htim->IC_CaptureCallback(htim);
#else
          HAL_TIM_IC_CaptureCallback(htim);
 800539a:	6878      	ldr	r0, [r7, #4]
 800539c:	f000 fa63 	bl	8005866 <HAL_TIM_IC_CaptureCallback>
 80053a0:	e005      	b.n	80053ae <HAL_TIM_IRQHandler+0x5e>
        {
#if (USE_HAL_TIM_REGISTER_CALLBACKS == 1)
          htim->OC_DelayElapsedCallback(htim);
          htim->PWM_PulseFinishedCallback(htim);
#else
          HAL_TIM_OC_DelayElapsedCallback(htim);
 80053a2:	6878      	ldr	r0, [r7, #4]
 80053a4:	f000 fa56 	bl	8005854 <HAL_TIM_OC_DelayElapsedCallback>
          HAL_TIM_PWM_PulseFinishedCallback(htim);
 80053a8:	6878      	ldr	r0, [r7, #4]
 80053aa:	f7fc f89d 	bl	80014e8 <HAL_TIM_PWM_PulseFinishedCallback>
#endif /* USE_HAL_TIM_REGISTER_CALLBACKS */
        }
        htim->Channel = HAL_TIM_ACTIVE_CHANNEL_CLEARED;
 80053ae:	687b      	ldr	r3, [r7, #4]
 80053b0:	2200      	movs	r2, #0
 80053b2:	771a      	strb	r2, [r3, #28]
      }
    }
  }
  /* Capture compare 2 event */
  if ((itflag & (TIM_FLAG_CC2)) == (TIM_FLAG_CC2))
 80053b4:	68bb      	ldr	r3, [r7, #8]
 80053b6:	f003 0304 	and.w	r3, r3, #4
 80053ba:	2b00      	cmp	r3, #0
 80053bc:	d020      	beq.n	8005400 <HAL_TIM_IRQHandler+0xb0>
  {
    if ((itsource & (TIM_IT_CC2)) == (TIM_IT_CC2))
 80053be:	68fb      	ldr	r3, [r7, #12]
 80053c0:	f003 0304 	and.w	r3, r3, #4
 80053c4:	2b00      	cmp	r3, #0
 80053c6:	d01b      	beq.n	8005400 <HAL_TIM_IRQHandler+0xb0>
    {
      __HAL_TIM_CLEAR_FLAG(htim, TIM_FLAG_CC2);
 80053c8:	687b      	ldr	r3, [r7, #4]
 80053ca:	681b      	ldr	r3, [r3, #0]
 80053cc:	f06f 0204 	mvn.w	r2, #4
 80053d0:	611a      	str	r2, [r3, #16]
      htim->Channel = HAL_TIM_ACTIVE_CHANNEL_2;
 80053d2:	687b      	ldr	r3, [r7, #4]
 80053d4:	2202      	movs	r2, #2
 80053d6:	771a      	strb	r2, [r3, #28]
      /* Input capture event */
      if ((htim->Instance->CCMR1 & TIM_CCMR1_CC2S) != 0x00U)
 80053d8:	687b      	ldr	r3, [r7, #4]
 80053da:	681b      	ldr	r3, [r3, #0]
 80053dc:	699b      	ldr	r3, [r3, #24]
 80053de:	f403 7340 	and.w	r3, r3, #768	@ 0x300
 80053e2:	2b00      	cmp	r3, #0
 80053e4:	d003      	beq.n	80053ee <HAL_TIM_IRQHandler+0x9e>
      {
#if (USE_HAL_TIM_REGISTER_CALLBACKS == 1)
        htim->IC_CaptureCallback(htim);
#else
        HAL_TIM_IC_CaptureCallback(htim);
 80053e6:	6878      	ldr	r0, [r7, #4]
 80053e8:	f000 fa3d 	bl	8005866 <HAL_TIM_IC_CaptureCallback>
 80053ec:	e005      	b.n	80053fa <HAL_TIM_IRQHandler+0xaa>
      {
#if (USE_HAL_TIM_REGISTER_CALLBACKS == 1)
        htim->OC_DelayElapsedCallback(htim);
        htim->PWM_PulseFinishedCallback(htim);
#else
        HAL_TIM_OC_DelayElapsedCallback(htim);
 80053ee:	6878      	ldr	r0, [r7, #4]
 80053f0:	f000 fa30 	bl	8005854 <HAL_TIM_OC_DelayElapsedCallback>
        HAL_TIM_PWM_PulseFinishedCallback(htim);
 80053f4:	6878      	ldr	r0, [r7, #4]
 80053f6:	f7fc f877 	bl	80014e8 <HAL_TIM_PWM_PulseFinishedCallback>
#endif /* USE_HAL_TIM_REGISTER_CALLBACKS */
      }
      htim->Channel = HAL_TIM_ACTIVE_CHANNEL_CLEARED;
 80053fa:	687b      	ldr	r3, [r7, #4]
 80053fc:	2200      	movs	r2, #0
 80053fe:	771a      	strb	r2, [r3, #28]
    }
  }
  /* Capture compare 3 event */
  if ((itflag & (TIM_FLAG_CC3)) == (TIM_FLAG_CC3))
 8005400:	68bb      	ldr	r3, [r7, #8]
 8005402:	f003 0308 	and.w	r3, r3, #8
 8005406:	2b00      	cmp	r3, #0
 8005408:	d020      	beq.n	800544c <HAL_TIM_IRQHandler+0xfc>
  {
    if ((itsource & (TIM_IT_CC3)) == (TIM_IT_CC3))
 800540a:	68fb      	ldr	r3, [r7, #12]
 800540c:	f003 0308 	and.w	r3, r3, #8
 8005410:	2b00      	cmp	r3, #0
 8005412:	d01b      	beq.n	800544c <HAL_TIM_IRQHandler+0xfc>
    {
      __HAL_TIM_CLEAR_FLAG(htim, TIM_FLAG_CC3);
 8005414:	687b      	ldr	r3, [r7, #4]
 8005416:	681b      	ldr	r3, [r3, #0]
 8005418:	f06f 0208 	mvn.w	r2, #8
 800541c:	611a      	str	r2, [r3, #16]
      htim->Channel = HAL_TIM_ACTIVE_CHANNEL_3;
 800541e:	687b      	ldr	r3, [r7, #4]
 8005420:	2204      	movs	r2, #4
 8005422:	771a      	strb	r2, [r3, #28]
      /* Input capture event */
      if ((htim->Instance->CCMR2 & TIM_CCMR2_CC3S) != 0x00U)
 8005424:	687b      	ldr	r3, [r7, #4]
 8005426:	681b      	ldr	r3, [r3, #0]
 8005428:	69db      	ldr	r3, [r3, #28]
 800542a:	f003 0303 	and.w	r3, r3, #3
 800542e:	2b00      	cmp	r3, #0
 8005430:	d003      	beq.n	800543a <HAL_TIM_IRQHandler+0xea>
      {
#if (USE_HAL_TIM_REGISTER_CALLBACKS == 1)
        htim->IC_CaptureCallback(htim);
#else
        HAL_TIM_IC_CaptureCallback(htim);
 8005432:	6878      	ldr	r0, [r7, #4]
 8005434:	f000 fa17 	bl	8005866 <HAL_TIM_IC_CaptureCallback>
 8005438:	e005      	b.n	8005446 <HAL_TIM_IRQHandler+0xf6>
      {
#if (USE_HAL_TIM_REGISTER_CALLBACKS == 1)
        htim->OC_DelayElapsedCallback(htim);
        htim->PWM_PulseFinishedCallback(htim);
#else
        HAL_TIM_OC_DelayElapsedCallback(htim);
 800543a:	6878      	ldr	r0, [r7, #4]
 800543c:	f000 fa0a 	bl	8005854 <HAL_TIM_OC_DelayElapsedCallback>
        HAL_TIM_PWM_PulseFinishedCallback(htim);
 8005440:	6878      	ldr	r0, [r7, #4]
 8005442:	f7fc f851 	bl	80014e8 <HAL_TIM_PWM_PulseFinishedCallback>
#endif /* USE_HAL_TIM_REGISTER_CALLBACKS */
      }
      htim->Channel = HAL_TIM_ACTIVE_CHANNEL_CLEARED;
 8005446:	687b      	ldr	r3, [r7, #4]
 8005448:	2200      	movs	r2, #0
 800544a:	771a      	strb	r2, [r3, #28]
    }
  }
  /* Capture compare 4 event */
  if ((itflag & (TIM_FLAG_CC4)) == (TIM_FLAG_CC4))
 800544c:	68bb      	ldr	r3, [r7, #8]
 800544e:	f003 0310 	and.w	r3, r3, #16
 8005452:	2b00      	cmp	r3, #0
 8005454:	d020      	beq.n	8005498 <HAL_TIM_IRQHandler+0x148>
  {
    if ((itsource & (TIM_IT_CC4)) == (TIM_IT_CC4))
 8005456:	68fb      	ldr	r3, [r7, #12]
 8005458:	f003 0310 	and.w	r3, r3, #16
 800545c:	2b00      	cmp	r3, #0
 800545e:	d01b      	beq.n	8005498 <HAL_TIM_IRQHandler+0x148>
    {
      __HAL_TIM_CLEAR_FLAG(htim, TIM_FLAG_CC4);
 8005460:	687b      	ldr	r3, [r7, #4]
 8005462:	681b      	ldr	r3, [r3, #0]
 8005464:	f06f 0210 	mvn.w	r2, #16
 8005468:	611a      	str	r2, [r3, #16]
      htim->Channel = HAL_TIM_ACTIVE_CHANNEL_4;
 800546a:	687b      	ldr	r3, [r7, #4]
 800546c:	2208      	movs	r2, #8
 800546e:	771a      	strb	r2, [r3, #28]
      /* Input capture event */
      if ((htim->Instance->CCMR2 & TIM_CCMR2_CC4S) != 0x00U)
 8005470:	687b      	ldr	r3, [r7, #4]
 8005472:	681b      	ldr	r3, [r3, #0]
 8005474:	69db      	ldr	r3, [r3, #28]
 8005476:	f403 7340 	and.w	r3, r3, #768	@ 0x300
 800547a:	2b00      	cmp	r3, #0
 800547c:	d003      	beq.n	8005486 <HAL_TIM_IRQHandler+0x136>
      {
#if (USE_HAL_TIM_REGISTER_CALLBACKS == 1)
        htim->IC_CaptureCallback(htim);
#else
        HAL_TIM_IC_CaptureCallback(htim);
 800547e:	6878      	ldr	r0, [r7, #4]
 8005480:	f000 f9f1 	bl	8005866 <HAL_TIM_IC_CaptureCallback>
 8005484:	e005      	b.n	8005492 <HAL_TIM_IRQHandler+0x142>
      {
#if (USE_HAL_TIM_REGISTER_CALLBACKS == 1)
        htim->OC_DelayElapsedCallback(htim);
        htim->PWM_PulseFinishedCallback(htim);
#else
        HAL_TIM_OC_DelayElapsedCallback(htim);
 8005486:	6878      	ldr	r0, [r7, #4]
 8005488:	f000 f9e4 	bl	8005854 <HAL_TIM_OC_DelayElapsedCallback>
        HAL_TIM_PWM_PulseFinishedCallback(htim);
 800548c:	6878      	ldr	r0, [r7, #4]
 800548e:	f7fc f82b 	bl	80014e8 <HAL_TIM_PWM_PulseFinishedCallback>
#endif /* USE_HAL_TIM_REGISTER_CALLBACKS */
      }
      htim->Channel = HAL_TIM_ACTIVE_CHANNEL_CLEARED;
 8005492:	687b      	ldr	r3, [r7, #4]
 8005494:	2200      	movs	r2, #0
 8005496:	771a      	strb	r2, [r3, #28]
    }
  }
  /* TIM Update event */
  if ((itflag & (TIM_FLAG_UPDATE)) == (TIM_FLAG_UPDATE))
 8005498:	68bb      	ldr	r3, [r7, #8]
 800549a:	f003 0301 	and.w	r3, r3, #1
 800549e:	2b00      	cmp	r3, #0
 80054a0:	d00c      	beq.n	80054bc <HAL_TIM_IRQHandler+0x16c>
  {
    if ((itsource & (TIM_IT_UPDATE)) == (TIM_IT_UPDATE))
 80054a2:	68fb      	ldr	r3, [r7, #12]
 80054a4:	f003 0301 	and.w	r3, r3, #1
 80054a8:	2b00      	cmp	r3, #0
 80054aa:	d007      	beq.n	80054bc <HAL_TIM_IRQHandler+0x16c>
    {
      __HAL_TIM_CLEAR_FLAG(htim, TIM_FLAG_UPDATE);
 80054ac:	687b      	ldr	r3, [r7, #4]
 80054ae:	681b      	ldr	r3, [r3, #0]
 80054b0:	f06f 0201 	mvn.w	r2, #1
 80054b4:	611a      	str	r2, [r3, #16]
#if (USE_HAL_TIM_REGISTER_CALLBACKS == 1)
      htim->PeriodElapsedCallback(htim);
#else
      HAL_TIM_PeriodElapsedCallback(htim);
 80054b6:	6878      	ldr	r0, [r7, #4]
 80054b8:	f000 f9c3 	bl	8005842 <HAL_TIM_PeriodElapsedCallback>
#endif /* USE_HAL_TIM_REGISTER_CALLBACKS */
    }
  }
  /* TIM Break input event */
  if ((itflag & (TIM_FLAG_BREAK)) == (TIM_FLAG_BREAK))
 80054bc:	68bb      	ldr	r3, [r7, #8]
 80054be:	f003 0380 	and.w	r3, r3, #128	@ 0x80
 80054c2:	2b00      	cmp	r3, #0
 80054c4:	d00c      	beq.n	80054e0 <HAL_TIM_IRQHandler+0x190>
  {
    if ((itsource & (TIM_IT_BREAK)) == (TIM_IT_BREAK))
 80054c6:	68fb      	ldr	r3, [r7, #12]
 80054c8:	f003 0380 	and.w	r3, r3, #128	@ 0x80
 80054cc:	2b00      	cmp	r3, #0
 80054ce:	d007      	beq.n	80054e0 <HAL_TIM_IRQHandler+0x190>
    {
      __HAL_TIM_CLEAR_FLAG(htim, TIM_FLAG_BREAK);
 80054d0:	687b      	ldr	r3, [r7, #4]
 80054d2:	681b      	ldr	r3, [r3, #0]
 80054d4:	f06f 0280 	mvn.w	r2, #128	@ 0x80
 80054d8:	611a      	str	r2, [r3, #16]
#if (USE_HAL_TIM_REGISTER_CALLBACKS == 1)
      htim->BreakCallback(htim);
#else
      HAL_TIMEx_BreakCallback(htim);
 80054da:	6878      	ldr	r0, [r7, #4]
 80054dc:	f000 fdcf 	bl	800607e <HAL_TIMEx_BreakCallback>
#endif /* USE_HAL_TIM_REGISTER_CALLBACKS */
    }
  }
  /* TIM Trigger detection event */
  if ((itflag & (TIM_FLAG_TRIGGER)) == (TIM_FLAG_TRIGGER))
 80054e0:	68bb      	ldr	r3, [r7, #8]
 80054e2:	f003 0340 	and.w	r3, r3, #64	@ 0x40
 80054e6:	2b00      	cmp	r3, #0
 80054e8:	d00c      	beq.n	8005504 <HAL_TIM_IRQHandler+0x1b4>
  {
    if ((itsource & (TIM_IT_TRIGGER)) == (TIM_IT_TRIGGER))
 80054ea:	68fb      	ldr	r3, [r7, #12]
 80054ec:	f003 0340 	and.w	r3, r3, #64	@ 0x40
 80054f0:	2b00      	cmp	r3, #0
 80054f2:	d007      	beq.n	8005504 <HAL_TIM_IRQHandler+0x1b4>
    {
      __HAL_TIM_CLEAR_FLAG(htim, TIM_FLAG_TRIGGER);
 80054f4:	687b      	ldr	r3, [r7, #4]
 80054f6:	681b      	ldr	r3, [r3, #0]
 80054f8:	f06f 0240 	mvn.w	r2, #64	@ 0x40
 80054fc:	611a      	str	r2, [r3, #16]
#if (USE_HAL_TIM_REGISTER_CALLBACKS == 1)
      htim->TriggerCallback(htim);
#else
      HAL_TIM_TriggerCallback(htim);
 80054fe:	6878      	ldr	r0, [r7, #4]
 8005500:	f000 f9c3 	bl	800588a <HAL_TIM_TriggerCallback>
#endif /* USE_HAL_TIM_REGISTER_CALLBACKS */
    }
  }
  /* TIM commutation event */
  if ((itflag & (TIM_FLAG_COM)) == (TIM_FLAG_COM))
 8005504:	68bb      	ldr	r3, [r7, #8]
 8005506:	f003 0320 	and.w	r3, r3, #32
 800550a:	2b00      	cmp	r3, #0
 800550c:	d00c      	beq.n	8005528 <HAL_TIM_IRQHandler+0x1d8>
  {
    if ((itsource & (TIM_IT_COM)) == (TIM_IT_COM))
 800550e:	68fb      	ldr	r3, [r7, #12]
 8005510:	f003 0320 	and.w	r3, r3, #32
 8005514:	2b00      	cmp	r3, #0
 8005516:	d007      	beq.n	8005528 <HAL_TIM_IRQHandler+0x1d8>
    {
      __HAL_TIM_CLEAR_FLAG(htim, TIM_FLAG_COM);
 8005518:	687b      	ldr	r3, [r7, #4]
 800551a:	681b      	ldr	r3, [r3, #0]
 800551c:	f06f 0220 	mvn.w	r2, #32
 8005520:	611a      	str	r2, [r3, #16]
#if (USE_HAL_TIM_REGISTER_CALLBACKS == 1)
      htim->CommutationCallback(htim);
#else
      HAL_TIMEx_CommutCallback(htim);
 8005522:	6878      	ldr	r0, [r7, #4]
 8005524:	f000 fda2 	bl	800606c <HAL_TIMEx_CommutCallback>
#endif /* USE_HAL_TIM_REGISTER_CALLBACKS */
    }
  }
}
 8005528:	bf00      	nop
 800552a:	3710      	adds	r7, #16
 800552c:	46bd      	mov	sp, r7
 800552e:	bd80      	pop	{r7, pc}

08005530 <HAL_TIM_PWM_ConfigChannel>:
  * @retval HAL status
  */
HAL_StatusTypeDef HAL_TIM_PWM_ConfigChannel(TIM_HandleTypeDef *htim,
                                            const TIM_OC_InitTypeDef *sConfig,
                                            uint32_t Channel)
{
 8005530:	b580      	push	{r7, lr}
 8005532:	b086      	sub	sp, #24
 8005534:	af00      	add	r7, sp, #0
 8005536:	60f8      	str	r0, [r7, #12]
 8005538:	60b9      	str	r1, [r7, #8]
 800553a:	607a      	str	r2, [r7, #4]
  HAL_StatusTypeDef status = HAL_OK;
 800553c:	2300      	movs	r3, #0
 800553e:	75fb      	strb	r3, [r7, #23]
  assert_param(IS_TIM_PWM_MODE(sConfig->OCMode));
  assert_param(IS_TIM_OC_POLARITY(sConfig->OCPolarity));
  assert_param(IS_TIM_FAST_STATE(sConfig->OCFastMode));

  /* Process Locked */
  __HAL_LOCK(htim);
 8005540:	68fb      	ldr	r3, [r7, #12]
 8005542:	f893 303c 	ldrb.w	r3, [r3, #60]	@ 0x3c
 8005546:	2b01      	cmp	r3, #1
 8005548:	d101      	bne.n	800554e <HAL_TIM_PWM_ConfigChannel+0x1e>
 800554a:	2302      	movs	r3, #2
 800554c:	e0ae      	b.n	80056ac <HAL_TIM_PWM_ConfigChannel+0x17c>
 800554e:	68fb      	ldr	r3, [r7, #12]
 8005550:	2201      	movs	r2, #1
 8005552:	f883 203c 	strb.w	r2, [r3, #60]	@ 0x3c

  switch (Channel)
 8005556:	687b      	ldr	r3, [r7, #4]
 8005558:	2b0c      	cmp	r3, #12
 800555a:	f200 809f 	bhi.w	800569c <HAL_TIM_PWM_ConfigChannel+0x16c>
 800555e:	a201      	add	r2, pc, #4	@ (adr r2, 8005564 <HAL_TIM_PWM_ConfigChannel+0x34>)
 8005560:	f852 f023 	ldr.w	pc, [r2, r3, lsl #2]
 8005564:	08005599 	.word	0x08005599
 8005568:	0800569d 	.word	0x0800569d
 800556c:	0800569d 	.word	0x0800569d
 8005570:	0800569d 	.word	0x0800569d
 8005574:	080055d9 	.word	0x080055d9
 8005578:	0800569d 	.word	0x0800569d
 800557c:	0800569d 	.word	0x0800569d
 8005580:	0800569d 	.word	0x0800569d
 8005584:	0800561b 	.word	0x0800561b
 8005588:	0800569d 	.word	0x0800569d
 800558c:	0800569d 	.word	0x0800569d
 8005590:	0800569d 	.word	0x0800569d
 8005594:	0800565b 	.word	0x0800565b
    {
      /* Check the parameters */
      assert_param(IS_TIM_CC1_INSTANCE(htim->Instance));

      /* Configure the Channel 1 in PWM mode */
      TIM_OC1_SetConfig(htim->Instance, sConfig);
 8005598:	68fb      	ldr	r3, [r7, #12]
 800559a:	681b      	ldr	r3, [r3, #0]
 800559c:	68b9      	ldr	r1, [r7, #8]
 800559e:	4618      	mov	r0, r3
 80055a0:	f000 fac4 	bl	8005b2c <TIM_OC1_SetConfig>

      /* Set the Preload enable bit for channel1 */
      htim->Instance->CCMR1 |= TIM_CCMR1_OC1PE;
 80055a4:	68fb      	ldr	r3, [r7, #12]
 80055a6:	681b      	ldr	r3, [r3, #0]
 80055a8:	699a      	ldr	r2, [r3, #24]
 80055aa:	68fb      	ldr	r3, [r7, #12]
 80055ac:	681b      	ldr	r3, [r3, #0]
 80055ae:	f042 0208 	orr.w	r2, r2, #8
 80055b2:	619a      	str	r2, [r3, #24]

      /* Configure the Output Fast mode */
      htim->Instance->CCMR1 &= ~TIM_CCMR1_OC1FE;
 80055b4:	68fb      	ldr	r3, [r7, #12]
 80055b6:	681b      	ldr	r3, [r3, #0]
 80055b8:	699a      	ldr	r2, [r3, #24]
 80055ba:	68fb      	ldr	r3, [r7, #12]
 80055bc:	681b      	ldr	r3, [r3, #0]
 80055be:	f022 0204 	bic.w	r2, r2, #4
 80055c2:	619a      	str	r2, [r3, #24]
      htim->Instance->CCMR1 |= sConfig->OCFastMode;
 80055c4:	68fb      	ldr	r3, [r7, #12]
 80055c6:	681b      	ldr	r3, [r3, #0]
 80055c8:	6999      	ldr	r1, [r3, #24]
 80055ca:	68bb      	ldr	r3, [r7, #8]
 80055cc:	691a      	ldr	r2, [r3, #16]
 80055ce:	68fb      	ldr	r3, [r7, #12]
 80055d0:	681b      	ldr	r3, [r3, #0]
 80055d2:	430a      	orrs	r2, r1
 80055d4:	619a      	str	r2, [r3, #24]
      break;
 80055d6:	e064      	b.n	80056a2 <HAL_TIM_PWM_ConfigChannel+0x172>
    {
      /* Check the parameters */
      assert_param(IS_TIM_CC2_INSTANCE(htim->Instance));

      /* Configure the Channel 2 in PWM mode */
      TIM_OC2_SetConfig(htim->Instance, sConfig);
 80055d8:	68fb      	ldr	r3, [r7, #12]
 80055da:	681b      	ldr	r3, [r3, #0]
 80055dc:	68b9      	ldr	r1, [r7, #8]
 80055de:	4618      	mov	r0, r3
 80055e0:	f000 fb0a 	bl	8005bf8 <TIM_OC2_SetConfig>

      /* Set the Preload enable bit for channel2 */
      htim->Instance->CCMR1 |= TIM_CCMR1_OC2PE;
 80055e4:	68fb      	ldr	r3, [r7, #12]
 80055e6:	681b      	ldr	r3, [r3, #0]
 80055e8:	699a      	ldr	r2, [r3, #24]
 80055ea:	68fb      	ldr	r3, [r7, #12]
 80055ec:	681b      	ldr	r3, [r3, #0]
 80055ee:	f442 6200 	orr.w	r2, r2, #2048	@ 0x800
 80055f2:	619a      	str	r2, [r3, #24]

      /* Configure the Output Fast mode */
      htim->Instance->CCMR1 &= ~TIM_CCMR1_OC2FE;
 80055f4:	68fb      	ldr	r3, [r7, #12]
 80055f6:	681b      	ldr	r3, [r3, #0]
 80055f8:	699a      	ldr	r2, [r3, #24]
 80055fa:	68fb      	ldr	r3, [r7, #12]
 80055fc:	681b      	ldr	r3, [r3, #0]
 80055fe:	f422 6280 	bic.w	r2, r2, #1024	@ 0x400
 8005602:	619a      	str	r2, [r3, #24]
      htim->Instance->CCMR1 |= sConfig->OCFastMode << 8U;
 8005604:	68fb      	ldr	r3, [r7, #12]
 8005606:	681b      	ldr	r3, [r3, #0]
 8005608:	6999      	ldr	r1, [r3, #24]
 800560a:	68bb      	ldr	r3, [r7, #8]
 800560c:	691b      	ldr	r3, [r3, #16]
 800560e:	021a      	lsls	r2, r3, #8
 8005610:	68fb      	ldr	r3, [r7, #12]
 8005612:	681b      	ldr	r3, [r3, #0]
 8005614:	430a      	orrs	r2, r1
 8005616:	619a      	str	r2, [r3, #24]
      break;
 8005618:	e043      	b.n	80056a2 <HAL_TIM_PWM_ConfigChannel+0x172>
    {
      /* Check the parameters */
      assert_param(IS_TIM_CC3_INSTANCE(htim->Instance));

      /* Configure the Channel 3 in PWM mode */
      TIM_OC3_SetConfig(htim->Instance, sConfig);
 800561a:	68fb      	ldr	r3, [r7, #12]
 800561c:	681b      	ldr	r3, [r3, #0]
 800561e:	68b9      	ldr	r1, [r7, #8]
 8005620:	4618      	mov	r0, r3
 8005622:	f000 fb53 	bl	8005ccc <TIM_OC3_SetConfig>

      /* Set the Preload enable bit for channel3 */
      htim->Instance->CCMR2 |= TIM_CCMR2_OC3PE;
 8005626:	68fb      	ldr	r3, [r7, #12]
 8005628:	681b      	ldr	r3, [r3, #0]
 800562a:	69da      	ldr	r2, [r3, #28]
 800562c:	68fb      	ldr	r3, [r7, #12]
 800562e:	681b      	ldr	r3, [r3, #0]
 8005630:	f042 0208 	orr.w	r2, r2, #8
 8005634:	61da      	str	r2, [r3, #28]

      /* Configure the Output Fast mode */
      htim->Instance->CCMR2 &= ~TIM_CCMR2_OC3FE;
 8005636:	68fb      	ldr	r3, [r7, #12]
 8005638:	681b      	ldr	r3, [r3, #0]
 800563a:	69da      	ldr	r2, [r3, #28]
 800563c:	68fb      	ldr	r3, [r7, #12]
 800563e:	681b      	ldr	r3, [r3, #0]
 8005640:	f022 0204 	bic.w	r2, r2, #4
 8005644:	61da      	str	r2, [r3, #28]
      htim->Instance->CCMR2 |= sConfig->OCFastMode;
 8005646:	68fb      	ldr	r3, [r7, #12]
 8005648:	681b      	ldr	r3, [r3, #0]
 800564a:	69d9      	ldr	r1, [r3, #28]
 800564c:	68bb      	ldr	r3, [r7, #8]
 800564e:	691a      	ldr	r2, [r3, #16]
 8005650:	68fb      	ldr	r3, [r7, #12]
 8005652:	681b      	ldr	r3, [r3, #0]
 8005654:	430a      	orrs	r2, r1
 8005656:	61da      	str	r2, [r3, #28]
      break;
 8005658:	e023      	b.n	80056a2 <HAL_TIM_PWM_ConfigChannel+0x172>
    {
      /* Check the parameters */
      assert_param(IS_TIM_CC4_INSTANCE(htim->Instance));

      /* Configure the Channel 4 in PWM mode */
      TIM_OC4_SetConfig(htim->Instance, sConfig);
 800565a:	68fb      	ldr	r3, [r7, #12]
 800565c:	681b      	ldr	r3, [r3, #0]
 800565e:	68b9      	ldr	r1, [r7, #8]
 8005660:	4618      	mov	r0, r3
 8005662:	f000 fb9d 	bl	8005da0 <TIM_OC4_SetConfig>

      /* Set the Preload enable bit for channel4 */
      htim->Instance->CCMR2 |= TIM_CCMR2_OC4PE;
 8005666:	68fb      	ldr	r3, [r7, #12]
 8005668:	681b      	ldr	r3, [r3, #0]
 800566a:	69da      	ldr	r2, [r3, #28]
 800566c:	68fb      	ldr	r3, [r7, #12]
 800566e:	681b      	ldr	r3, [r3, #0]
 8005670:	f442 6200 	orr.w	r2, r2, #2048	@ 0x800
 8005674:	61da      	str	r2, [r3, #28]

      /* Configure the Output Fast mode */
      htim->Instance->CCMR2 &= ~TIM_CCMR2_OC4FE;
 8005676:	68fb      	ldr	r3, [r7, #12]
 8005678:	681b      	ldr	r3, [r3, #0]
 800567a:	69da      	ldr	r2, [r3, #28]
 800567c:	68fb      	ldr	r3, [r7, #12]
 800567e:	681b      	ldr	r3, [r3, #0]
 8005680:	f422 6280 	bic.w	r2, r2, #1024	@ 0x400
 8005684:	61da      	str	r2, [r3, #28]
      htim->Instance->CCMR2 |= sConfig->OCFastMode << 8U;
 8005686:	68fb      	ldr	r3, [r7, #12]
 8005688:	681b      	ldr	r3, [r3, #0]
 800568a:	69d9      	ldr	r1, [r3, #28]
 800568c:	68bb      	ldr	r3, [r7, #8]
 800568e:	691b      	ldr	r3, [r3, #16]
 8005690:	021a      	lsls	r2, r3, #8
 8005692:	68fb      	ldr	r3, [r7, #12]
 8005694:	681b      	ldr	r3, [r3, #0]
 8005696:	430a      	orrs	r2, r1
 8005698:	61da      	str	r2, [r3, #28]
      break;
 800569a:	e002      	b.n	80056a2 <HAL_TIM_PWM_ConfigChannel+0x172>
    }

    default:
      status = HAL_ERROR;
 800569c:	2301      	movs	r3, #1
 800569e:	75fb      	strb	r3, [r7, #23]
      break;
 80056a0:	bf00      	nop
  }

  __HAL_UNLOCK(htim);
 80056a2:	68fb      	ldr	r3, [r7, #12]
 80056a4:	2200      	movs	r2, #0
 80056a6:	f883 203c 	strb.w	r2, [r3, #60]	@ 0x3c

  return status;
 80056aa:	7dfb      	ldrb	r3, [r7, #23]
}
 80056ac:	4618      	mov	r0, r3
 80056ae:	3718      	adds	r7, #24
 80056b0:	46bd      	mov	sp, r7
 80056b2:	bd80      	pop	{r7, pc}

080056b4 <HAL_TIM_ConfigClockSource>:
  * @param  sClockSourceConfig pointer to a TIM_ClockConfigTypeDef structure that
  *         contains the clock source information for the TIM peripheral.
  * @retval HAL status
  */
HAL_StatusTypeDef HAL_TIM_ConfigClockSource(TIM_HandleTypeDef *htim, const TIM_ClockConfigTypeDef *sClockSourceConfig)
{
 80056b4:	b580      	push	{r7, lr}
 80056b6:	b084      	sub	sp, #16
 80056b8:	af00      	add	r7, sp, #0
 80056ba:	6078      	str	r0, [r7, #4]
 80056bc:	6039      	str	r1, [r7, #0]
  HAL_StatusTypeDef status = HAL_OK;
 80056be:	2300      	movs	r3, #0
 80056c0:	73fb      	strb	r3, [r7, #15]
  uint32_t tmpsmcr;

  /* Process Locked */
  __HAL_LOCK(htim);
 80056c2:	687b      	ldr	r3, [r7, #4]
 80056c4:	f893 303c 	ldrb.w	r3, [r3, #60]	@ 0x3c
 80056c8:	2b01      	cmp	r3, #1
 80056ca:	d101      	bne.n	80056d0 <HAL_TIM_ConfigClockSource+0x1c>
 80056cc:	2302      	movs	r3, #2
 80056ce:	e0b4      	b.n	800583a <HAL_TIM_ConfigClockSource+0x186>
 80056d0:	687b      	ldr	r3, [r7, #4]
 80056d2:	2201      	movs	r2, #1
 80056d4:	f883 203c 	strb.w	r2, [r3, #60]	@ 0x3c

  htim->State = HAL_TIM_STATE_BUSY;
 80056d8:	687b      	ldr	r3, [r7, #4]
 80056da:	2202      	movs	r2, #2
 80056dc:	f883 203d 	strb.w	r2, [r3, #61]	@ 0x3d

  /* Check the parameters */
  assert_param(IS_TIM_CLOCKSOURCE(sClockSourceConfig->ClockSource));

  /* Reset the SMS, TS, ECE, ETPS and ETRF bits */
  tmpsmcr = htim->Instance->SMCR;
 80056e0:	687b      	ldr	r3, [r7, #4]
 80056e2:	681b      	ldr	r3, [r3, #0]
 80056e4:	689b      	ldr	r3, [r3, #8]
 80056e6:	60bb      	str	r3, [r7, #8]
  tmpsmcr &= ~(TIM_SMCR_SMS | TIM_SMCR_TS);
 80056e8:	68bb      	ldr	r3, [r7, #8]
 80056ea:	f023 0377 	bic.w	r3, r3, #119	@ 0x77
 80056ee:	60bb      	str	r3, [r7, #8]
  tmpsmcr &= ~(TIM_SMCR_ETF | TIM_SMCR_ETPS | TIM_SMCR_ECE | TIM_SMCR_ETP);
 80056f0:	68bb      	ldr	r3, [r7, #8]
 80056f2:	f423 437f 	bic.w	r3, r3, #65280	@ 0xff00
 80056f6:	60bb      	str	r3, [r7, #8]
  htim->Instance->SMCR = tmpsmcr;
 80056f8:	687b      	ldr	r3, [r7, #4]
 80056fa:	681b      	ldr	r3, [r3, #0]
 80056fc:	68ba      	ldr	r2, [r7, #8]
 80056fe:	609a      	str	r2, [r3, #8]

  switch (sClockSourceConfig->ClockSource)
 8005700:	683b      	ldr	r3, [r7, #0]
 8005702:	681b      	ldr	r3, [r3, #0]
 8005704:	f5b3 5f00 	cmp.w	r3, #8192	@ 0x2000
 8005708:	d03e      	beq.n	8005788 <HAL_TIM_ConfigClockSource+0xd4>
 800570a:	f5b3 5f00 	cmp.w	r3, #8192	@ 0x2000
 800570e:	f200 8087 	bhi.w	8005820 <HAL_TIM_ConfigClockSource+0x16c>
 8005712:	f5b3 5f80 	cmp.w	r3, #4096	@ 0x1000
 8005716:	f000 8086 	beq.w	8005826 <HAL_TIM_ConfigClockSource+0x172>
 800571a:	f5b3 5f80 	cmp.w	r3, #4096	@ 0x1000
 800571e:	d87f      	bhi.n	8005820 <HAL_TIM_ConfigClockSource+0x16c>
 8005720:	2b70      	cmp	r3, #112	@ 0x70
 8005722:	d01a      	beq.n	800575a <HAL_TIM_ConfigClockSource+0xa6>
 8005724:	2b70      	cmp	r3, #112	@ 0x70
 8005726:	d87b      	bhi.n	8005820 <HAL_TIM_ConfigClockSource+0x16c>
 8005728:	2b60      	cmp	r3, #96	@ 0x60
 800572a:	d050      	beq.n	80057ce <HAL_TIM_ConfigClockSource+0x11a>
 800572c:	2b60      	cmp	r3, #96	@ 0x60
 800572e:	d877      	bhi.n	8005820 <HAL_TIM_ConfigClockSource+0x16c>
 8005730:	2b50      	cmp	r3, #80	@ 0x50
 8005732:	d03c      	beq.n	80057ae <HAL_TIM_ConfigClockSource+0xfa>
 8005734:	2b50      	cmp	r3, #80	@ 0x50
 8005736:	d873      	bhi.n	8005820 <HAL_TIM_ConfigClockSource+0x16c>
 8005738:	2b40      	cmp	r3, #64	@ 0x40
 800573a:	d058      	beq.n	80057ee <HAL_TIM_ConfigClockSource+0x13a>
 800573c:	2b40      	cmp	r3, #64	@ 0x40
 800573e:	d86f      	bhi.n	8005820 <HAL_TIM_ConfigClockSource+0x16c>
 8005740:	2b30      	cmp	r3, #48	@ 0x30
 8005742:	d064      	beq.n	800580e <HAL_TIM_ConfigClockSource+0x15a>
 8005744:	2b30      	cmp	r3, #48	@ 0x30
 8005746:	d86b      	bhi.n	8005820 <HAL_TIM_ConfigClockSource+0x16c>
 8005748:	2b20      	cmp	r3, #32
 800574a:	d060      	beq.n	800580e <HAL_TIM_ConfigClockSource+0x15a>
 800574c:	2b20      	cmp	r3, #32
 800574e:	d867      	bhi.n	8005820 <HAL_TIM_ConfigClockSource+0x16c>
 8005750:	2b00      	cmp	r3, #0
 8005752:	d05c      	beq.n	800580e <HAL_TIM_ConfigClockSource+0x15a>
 8005754:	2b10      	cmp	r3, #16
 8005756:	d05a      	beq.n	800580e <HAL_TIM_ConfigClockSource+0x15a>
 8005758:	e062      	b.n	8005820 <HAL_TIM_ConfigClockSource+0x16c>
      assert_param(IS_TIM_CLOCKPRESCALER(sClockSourceConfig->ClockPrescaler));
      assert_param(IS_TIM_CLOCKPOLARITY(sClockSourceConfig->ClockPolarity));
      assert_param(IS_TIM_CLOCKFILTER(sClockSourceConfig->ClockFilter));

      /* Configure the ETR Clock source */
      TIM_ETR_SetConfig(htim->Instance,
 800575a:	687b      	ldr	r3, [r7, #4]
 800575c:	6818      	ldr	r0, [r3, #0]
                        sClockSourceConfig->ClockPrescaler,
 800575e:	683b      	ldr	r3, [r7, #0]
 8005760:	6899      	ldr	r1, [r3, #8]
                        sClockSourceConfig->ClockPolarity,
 8005762:	683b      	ldr	r3, [r7, #0]
 8005764:	685a      	ldr	r2, [r3, #4]
                        sClockSourceConfig->ClockFilter);
 8005766:	683b      	ldr	r3, [r7, #0]
 8005768:	68db      	ldr	r3, [r3, #12]
      TIM_ETR_SetConfig(htim->Instance,
 800576a:	f000 fbde 	bl	8005f2a <TIM_ETR_SetConfig>

      /* Select the External clock mode1 and the ETRF trigger */
      tmpsmcr = htim->Instance->SMCR;
 800576e:	687b      	ldr	r3, [r7, #4]
 8005770:	681b      	ldr	r3, [r3, #0]
 8005772:	689b      	ldr	r3, [r3, #8]
 8005774:	60bb      	str	r3, [r7, #8]
      tmpsmcr |= (TIM_SLAVEMODE_EXTERNAL1 | TIM_CLOCKSOURCE_ETRMODE1);
 8005776:	68bb      	ldr	r3, [r7, #8]
 8005778:	f043 0377 	orr.w	r3, r3, #119	@ 0x77
 800577c:	60bb      	str	r3, [r7, #8]
      /* Write to TIMx SMCR */
      htim->Instance->SMCR = tmpsmcr;
 800577e:	687b      	ldr	r3, [r7, #4]
 8005780:	681b      	ldr	r3, [r3, #0]
 8005782:	68ba      	ldr	r2, [r7, #8]
 8005784:	609a      	str	r2, [r3, #8]
      break;
 8005786:	e04f      	b.n	8005828 <HAL_TIM_ConfigClockSource+0x174>
      assert_param(IS_TIM_CLOCKPRESCALER(sClockSourceConfig->ClockPrescaler));
      assert_param(IS_TIM_CLOCKPOLARITY(sClockSourceConfig->ClockPolarity));
      assert_param(IS_TIM_CLOCKFILTER(sClockSourceConfig->ClockFilter));

      /* Configure the ETR Clock source */
      TIM_ETR_SetConfig(htim->Instance,
 8005788:	687b      	ldr	r3, [r7, #4]
 800578a:	6818      	ldr	r0, [r3, #0]
                        sClockSourceConfig->ClockPrescaler,
 800578c:	683b      	ldr	r3, [r7, #0]
 800578e:	6899      	ldr	r1, [r3, #8]
                        sClockSourceConfig->ClockPolarity,
 8005790:	683b      	ldr	r3, [r7, #0]
 8005792:	685a      	ldr	r2, [r3, #4]
                        sClockSourceConfig->ClockFilter);
 8005794:	683b      	ldr	r3, [r7, #0]
 8005796:	68db      	ldr	r3, [r3, #12]
      TIM_ETR_SetConfig(htim->Instance,
 8005798:	f000 fbc7 	bl	8005f2a <TIM_ETR_SetConfig>
      /* Enable the External clock mode2 */
      htim->Instance->SMCR |= TIM_SMCR_ECE;
 800579c:	687b      	ldr	r3, [r7, #4]
 800579e:	681b      	ldr	r3, [r3, #0]
 80057a0:	689a      	ldr	r2, [r3, #8]
 80057a2:	687b      	ldr	r3, [r7, #4]
 80057a4:	681b      	ldr	r3, [r3, #0]
 80057a6:	f442 4280 	orr.w	r2, r2, #16384	@ 0x4000
 80057aa:	609a      	str	r2, [r3, #8]
      break;
 80057ac:	e03c      	b.n	8005828 <HAL_TIM_ConfigClockSource+0x174>

      /* Check TI1 input conditioning related parameters */
      assert_param(IS_TIM_CLOCKPOLARITY(sClockSourceConfig->ClockPolarity));
      assert_param(IS_TIM_CLOCKFILTER(sClockSourceConfig->ClockFilter));

      TIM_TI1_ConfigInputStage(htim->Instance,
 80057ae:	687b      	ldr	r3, [r7, #4]
 80057b0:	6818      	ldr	r0, [r3, #0]
                               sClockSourceConfig->ClockPolarity,
 80057b2:	683b      	ldr	r3, [r7, #0]
 80057b4:	6859      	ldr	r1, [r3, #4]
                               sClockSourceConfig->ClockFilter);
 80057b6:	683b      	ldr	r3, [r7, #0]
 80057b8:	68db      	ldr	r3, [r3, #12]
      TIM_TI1_ConfigInputStage(htim->Instance,
 80057ba:	461a      	mov	r2, r3
 80057bc:	f000 fb3e 	bl	8005e3c <TIM_TI1_ConfigInputStage>
      TIM_ITRx_SetConfig(htim->Instance, TIM_CLOCKSOURCE_TI1);
 80057c0:	687b      	ldr	r3, [r7, #4]
 80057c2:	681b      	ldr	r3, [r3, #0]
 80057c4:	2150      	movs	r1, #80	@ 0x50
 80057c6:	4618      	mov	r0, r3
 80057c8:	f000 fb95 	bl	8005ef6 <TIM_ITRx_SetConfig>
      break;
 80057cc:	e02c      	b.n	8005828 <HAL_TIM_ConfigClockSource+0x174>

      /* Check TI2 input conditioning related parameters */
      assert_param(IS_TIM_CLOCKPOLARITY(sClockSourceConfig->ClockPolarity));
      assert_param(IS_TIM_CLOCKFILTER(sClockSourceConfig->ClockFilter));

      TIM_TI2_ConfigInputStage(htim->Instance,
 80057ce:	687b      	ldr	r3, [r7, #4]
 80057d0:	6818      	ldr	r0, [r3, #0]
                               sClockSourceConfig->ClockPolarity,
 80057d2:	683b      	ldr	r3, [r7, #0]
 80057d4:	6859      	ldr	r1, [r3, #4]
                               sClockSourceConfig->ClockFilter);
 80057d6:	683b      	ldr	r3, [r7, #0]
 80057d8:	68db      	ldr	r3, [r3, #12]
      TIM_TI2_ConfigInputStage(htim->Instance,
 80057da:	461a      	mov	r2, r3
 80057dc:	f000 fb5c 	bl	8005e98 <TIM_TI2_ConfigInputStage>
      TIM_ITRx_SetConfig(htim->Instance, TIM_CLOCKSOURCE_TI2);
 80057e0:	687b      	ldr	r3, [r7, #4]
 80057e2:	681b      	ldr	r3, [r3, #0]
 80057e4:	2160      	movs	r1, #96	@ 0x60
 80057e6:	4618      	mov	r0, r3
 80057e8:	f000 fb85 	bl	8005ef6 <TIM_ITRx_SetConfig>
      break;
 80057ec:	e01c      	b.n	8005828 <HAL_TIM_ConfigClockSource+0x174>

      /* Check TI1 input conditioning related parameters */
      assert_param(IS_TIM_CLOCKPOLARITY(sClockSourceConfig->ClockPolarity));
      assert_param(IS_TIM_CLOCKFILTER(sClockSourceConfig->ClockFilter));

      TIM_TI1_ConfigInputStage(htim->Instance,
 80057ee:	687b      	ldr	r3, [r7, #4]
 80057f0:	6818      	ldr	r0, [r3, #0]
                               sClockSourceConfig->ClockPolarity,
 80057f2:	683b      	ldr	r3, [r7, #0]
 80057f4:	6859      	ldr	r1, [r3, #4]
                               sClockSourceConfig->ClockFilter);
 80057f6:	683b      	ldr	r3, [r7, #0]
 80057f8:	68db      	ldr	r3, [r3, #12]
      TIM_TI1_ConfigInputStage(htim->Instance,
 80057fa:	461a      	mov	r2, r3
 80057fc:	f000 fb1e 	bl	8005e3c <TIM_TI1_ConfigInputStage>
      TIM_ITRx_SetConfig(htim->Instance, TIM_CLOCKSOURCE_TI1ED);
 8005800:	687b      	ldr	r3, [r7, #4]
 8005802:	681b      	ldr	r3, [r3, #0]
 8005804:	2140      	movs	r1, #64	@ 0x40
 8005806:	4618      	mov	r0, r3
 8005808:	f000 fb75 	bl	8005ef6 <TIM_ITRx_SetConfig>
      break;
 800580c:	e00c      	b.n	8005828 <HAL_TIM_ConfigClockSource+0x174>
    case TIM_CLOCKSOURCE_ITR3:
    {
      /* Check whether or not the timer instance supports internal trigger input */
      assert_param(IS_TIM_CLOCKSOURCE_ITRX_INSTANCE(htim->Instance));

      TIM_ITRx_SetConfig(htim->Instance, sClockSourceConfig->ClockSource);
 800580e:	687b      	ldr	r3, [r7, #4]
 8005810:	681a      	ldr	r2, [r3, #0]
 8005812:	683b      	ldr	r3, [r7, #0]
 8005814:	681b      	ldr	r3, [r3, #0]
 8005816:	4619      	mov	r1, r3
 8005818:	4610      	mov	r0, r2
 800581a:	f000 fb6c 	bl	8005ef6 <TIM_ITRx_SetConfig>
      break;
 800581e:	e003      	b.n	8005828 <HAL_TIM_ConfigClockSource+0x174>
    }

    default:
      status = HAL_ERROR;
 8005820:	2301      	movs	r3, #1
 8005822:	73fb      	strb	r3, [r7, #15]
      break;
 8005824:	e000      	b.n	8005828 <HAL_TIM_ConfigClockSource+0x174>
      break;
 8005826:	bf00      	nop
  }
  htim->State = HAL_TIM_STATE_READY;
 8005828:	687b      	ldr	r3, [r7, #4]
 800582a:	2201      	movs	r2, #1
 800582c:	f883 203d 	strb.w	r2, [r3, #61]	@ 0x3d

  __HAL_UNLOCK(htim);
 8005830:	687b      	ldr	r3, [r7, #4]
 8005832:	2200      	movs	r2, #0
 8005834:	f883 203c 	strb.w	r2, [r3, #60]	@ 0x3c

  return status;
 8005838:	7bfb      	ldrb	r3, [r7, #15]
}
 800583a:	4618      	mov	r0, r3
 800583c:	3710      	adds	r7, #16
 800583e:	46bd      	mov	sp, r7
 8005840:	bd80      	pop	{r7, pc}

08005842 <HAL_TIM_PeriodElapsedCallback>:
  * @brief  Period elapsed callback in non-blocking mode
  * @param  htim TIM handle
  * @retval None
  */
__weak void HAL_TIM_PeriodElapsedCallback(TIM_HandleTypeDef *htim)
{
 8005842:	b480      	push	{r7}
 8005844:	b083      	sub	sp, #12
 8005846:	af00      	add	r7, sp, #0
 8005848:	6078      	str	r0, [r7, #4]
  UNUSED(htim);

  /* NOTE : This function should not be modified, when the callback is needed,
            the HAL_TIM_PeriodElapsedCallback could be implemented in the user file
   */
}
 800584a:	bf00      	nop
 800584c:	370c      	adds	r7, #12
 800584e:	46bd      	mov	sp, r7
 8005850:	bc80      	pop	{r7}
 8005852:	4770      	bx	lr

08005854 <HAL_TIM_OC_DelayElapsedCallback>:
  * @brief  Output Compare callback in non-blocking mode
  * @param  htim TIM OC handle
  * @retval None
  */
__weak void HAL_TIM_OC_DelayElapsedCallback(TIM_HandleTypeDef *htim)
{
 8005854:	b480      	push	{r7}
 8005856:	b083      	sub	sp, #12
 8005858:	af00      	add	r7, sp, #0
 800585a:	6078      	str	r0, [r7, #4]
  UNUSED(htim);

  /* NOTE : This function should not be modified, when the callback is needed,
            the HAL_TIM_OC_DelayElapsedCallback could be implemented in the user file
   */
}
 800585c:	bf00      	nop
 800585e:	370c      	adds	r7, #12
 8005860:	46bd      	mov	sp, r7
 8005862:	bc80      	pop	{r7}
 8005864:	4770      	bx	lr

08005866 <HAL_TIM_IC_CaptureCallback>:
  * @brief  Input Capture callback in non-blocking mode
  * @param  htim TIM IC handle
  * @retval None
  */
__weak void HAL_TIM_IC_CaptureCallback(TIM_HandleTypeDef *htim)
{
 8005866:	b480      	push	{r7}
 8005868:	b083      	sub	sp, #12
 800586a:	af00      	add	r7, sp, #0
 800586c:	6078      	str	r0, [r7, #4]
  UNUSED(htim);

  /* NOTE : This function should not be modified, when the callback is needed,
            the HAL_TIM_IC_CaptureCallback could be implemented in the user file
   */
}
 800586e:	bf00      	nop
 8005870:	370c      	adds	r7, #12
 8005872:	46bd      	mov	sp, r7
 8005874:	bc80      	pop	{r7}
 8005876:	4770      	bx	lr

08005878 <HAL_TIM_PWM_PulseFinishedHalfCpltCallback>:
  * @brief  PWM Pulse finished half complete callback in non-blocking mode
  * @param  htim TIM handle
  * @retval None
  */
__weak void HAL_TIM_PWM_PulseFinishedHalfCpltCallback(TIM_HandleTypeDef *htim)
{
 8005878:	b480      	push	{r7}
 800587a:	b083      	sub	sp, #12
 800587c:	af00      	add	r7, sp, #0
 800587e:	6078      	str	r0, [r7, #4]
  UNUSED(htim);

  /* NOTE : This function should not be modified, when the callback is needed,
            the HAL_TIM_PWM_PulseFinishedHalfCpltCallback could be implemented in the user file
   */
}
 8005880:	bf00      	nop
 8005882:	370c      	adds	r7, #12
 8005884:	46bd      	mov	sp, r7
 8005886:	bc80      	pop	{r7}
 8005888:	4770      	bx	lr

0800588a <HAL_TIM_TriggerCallback>:
  * @brief  Hall Trigger detection callback in non-blocking mode
  * @param  htim TIM handle
  * @retval None
  */
__weak void HAL_TIM_TriggerCallback(TIM_HandleTypeDef *htim)
{
 800588a:	b480      	push	{r7}
 800588c:	b083      	sub	sp, #12
 800588e:	af00      	add	r7, sp, #0
 8005890:	6078      	str	r0, [r7, #4]
  UNUSED(htim);

  /* NOTE : This function should not be modified, when the callback is needed,
            the HAL_TIM_TriggerCallback could be implemented in the user file
   */
}
 8005892:	bf00      	nop
 8005894:	370c      	adds	r7, #12
 8005896:	46bd      	mov	sp, r7
 8005898:	bc80      	pop	{r7}
 800589a:	4770      	bx	lr

0800589c <HAL_TIM_ErrorCallback>:
  * @brief  Timer error callback in non-blocking mode
  * @param  htim TIM handle
  * @retval None
  */
__weak void HAL_TIM_ErrorCallback(TIM_HandleTypeDef *htim)
{
 800589c:	b480      	push	{r7}
 800589e:	b083      	sub	sp, #12
 80058a0:	af00      	add	r7, sp, #0
 80058a2:	6078      	str	r0, [r7, #4]
  UNUSED(htim);

  /* NOTE : This function should not be modified, when the callback is needed,
            the HAL_TIM_ErrorCallback could be implemented in the user file
   */
}
 80058a4:	bf00      	nop
 80058a6:	370c      	adds	r7, #12
 80058a8:	46bd      	mov	sp, r7
 80058aa:	bc80      	pop	{r7}
 80058ac:	4770      	bx	lr

080058ae <TIM_DMAError>:
  * @brief  TIM DMA error callback
  * @param  hdma pointer to DMA handle.
  * @retval None
  */
void TIM_DMAError(DMA_HandleTypeDef *hdma)
{
 80058ae:	b580      	push	{r7, lr}
 80058b0:	b084      	sub	sp, #16
 80058b2:	af00      	add	r7, sp, #0
 80058b4:	6078      	str	r0, [r7, #4]
  TIM_HandleTypeDef *htim = (TIM_HandleTypeDef *)((DMA_HandleTypeDef *)hdma)->Parent;
 80058b6:	687b      	ldr	r3, [r7, #4]
 80058b8:	6a5b      	ldr	r3, [r3, #36]	@ 0x24
 80058ba:	60fb      	str	r3, [r7, #12]

  if (hdma == htim->hdma[TIM_DMA_ID_CC1])
 80058bc:	68fb      	ldr	r3, [r7, #12]
 80058be:	6a5b      	ldr	r3, [r3, #36]	@ 0x24
 80058c0:	687a      	ldr	r2, [r7, #4]
 80058c2:	429a      	cmp	r2, r3
 80058c4:	d107      	bne.n	80058d6 <TIM_DMAError+0x28>
  {
    htim->Channel = HAL_TIM_ACTIVE_CHANNEL_1;
 80058c6:	68fb      	ldr	r3, [r7, #12]
 80058c8:	2201      	movs	r2, #1
 80058ca:	771a      	strb	r2, [r3, #28]
    TIM_CHANNEL_STATE_SET(htim, TIM_CHANNEL_1, HAL_TIM_CHANNEL_STATE_READY);
 80058cc:	68fb      	ldr	r3, [r7, #12]
 80058ce:	2201      	movs	r2, #1
 80058d0:	f883 203e 	strb.w	r2, [r3, #62]	@ 0x3e
 80058d4:	e02a      	b.n	800592c <TIM_DMAError+0x7e>
  }
  else if (hdma == htim->hdma[TIM_DMA_ID_CC2])
 80058d6:	68fb      	ldr	r3, [r7, #12]
 80058d8:	6a9b      	ldr	r3, [r3, #40]	@ 0x28
 80058da:	687a      	ldr	r2, [r7, #4]
 80058dc:	429a      	cmp	r2, r3
 80058de:	d107      	bne.n	80058f0 <TIM_DMAError+0x42>
  {
    htim->Channel = HAL_TIM_ACTIVE_CHANNEL_2;
 80058e0:	68fb      	ldr	r3, [r7, #12]
 80058e2:	2202      	movs	r2, #2
 80058e4:	771a      	strb	r2, [r3, #28]
    TIM_CHANNEL_STATE_SET(htim, TIM_CHANNEL_2, HAL_TIM_CHANNEL_STATE_READY);
 80058e6:	68fb      	ldr	r3, [r7, #12]
 80058e8:	2201      	movs	r2, #1
 80058ea:	f883 203f 	strb.w	r2, [r3, #63]	@ 0x3f
 80058ee:	e01d      	b.n	800592c <TIM_DMAError+0x7e>
  }
  else if (hdma == htim->hdma[TIM_DMA_ID_CC3])
 80058f0:	68fb      	ldr	r3, [r7, #12]
 80058f2:	6adb      	ldr	r3, [r3, #44]	@ 0x2c
 80058f4:	687a      	ldr	r2, [r7, #4]
 80058f6:	429a      	cmp	r2, r3
 80058f8:	d107      	bne.n	800590a <TIM_DMAError+0x5c>
  {
    htim->Channel = HAL_TIM_ACTIVE_CHANNEL_3;
 80058fa:	68fb      	ldr	r3, [r7, #12]
 80058fc:	2204      	movs	r2, #4
 80058fe:	771a      	strb	r2, [r3, #28]
    TIM_CHANNEL_STATE_SET(htim, TIM_CHANNEL_3, HAL_TIM_CHANNEL_STATE_READY);
 8005900:	68fb      	ldr	r3, [r7, #12]
 8005902:	2201      	movs	r2, #1
 8005904:	f883 2040 	strb.w	r2, [r3, #64]	@ 0x40
 8005908:	e010      	b.n	800592c <TIM_DMAError+0x7e>
  }
  else if (hdma == htim->hdma[TIM_DMA_ID_CC4])
 800590a:	68fb      	ldr	r3, [r7, #12]
 800590c:	6b1b      	ldr	r3, [r3, #48]	@ 0x30
 800590e:	687a      	ldr	r2, [r7, #4]
 8005910:	429a      	cmp	r2, r3
 8005912:	d107      	bne.n	8005924 <TIM_DMAError+0x76>
  {
    htim->Channel = HAL_TIM_ACTIVE_CHANNEL_4;
 8005914:	68fb      	ldr	r3, [r7, #12]
 8005916:	2208      	movs	r2, #8
 8005918:	771a      	strb	r2, [r3, #28]
    TIM_CHANNEL_STATE_SET(htim, TIM_CHANNEL_4, HAL_TIM_CHANNEL_STATE_READY);
 800591a:	68fb      	ldr	r3, [r7, #12]
 800591c:	2201      	movs	r2, #1
 800591e:	f883 2041 	strb.w	r2, [r3, #65]	@ 0x41
 8005922:	e003      	b.n	800592c <TIM_DMAError+0x7e>
  }
  else
  {
    htim->State = HAL_TIM_STATE_READY;
 8005924:	68fb      	ldr	r3, [r7, #12]
 8005926:	2201      	movs	r2, #1
 8005928:	f883 203d 	strb.w	r2, [r3, #61]	@ 0x3d
  }

#if (USE_HAL_TIM_REGISTER_CALLBACKS == 1)
  htim->ErrorCallback(htim);
#else
  HAL_TIM_ErrorCallback(htim);
 800592c:	68f8      	ldr	r0, [r7, #12]
 800592e:	f7ff ffb5 	bl	800589c <HAL_TIM_ErrorCallback>
#endif /* USE_HAL_TIM_REGISTER_CALLBACKS */

  htim->Channel = HAL_TIM_ACTIVE_CHANNEL_CLEARED;
 8005932:	68fb      	ldr	r3, [r7, #12]
 8005934:	2200      	movs	r2, #0
 8005936:	771a      	strb	r2, [r3, #28]
}
 8005938:	bf00      	nop
 800593a:	3710      	adds	r7, #16
 800593c:	46bd      	mov	sp, r7
 800593e:	bd80      	pop	{r7, pc}

08005940 <TIM_DMADelayPulseCplt>:
  * @brief  TIM DMA Delay Pulse complete callback.
  * @param  hdma pointer to DMA handle.
  * @retval None
  */
static void TIM_DMADelayPulseCplt(DMA_HandleTypeDef *hdma)
{
 8005940:	b580      	push	{r7, lr}
 8005942:	b084      	sub	sp, #16
 8005944:	af00      	add	r7, sp, #0
 8005946:	6078      	str	r0, [r7, #4]
  TIM_HandleTypeDef *htim = (TIM_HandleTypeDef *)((DMA_HandleTypeDef *)hdma)->Parent;
 8005948:	687b      	ldr	r3, [r7, #4]
 800594a:	6a5b      	ldr	r3, [r3, #36]	@ 0x24
 800594c:	60fb      	str	r3, [r7, #12]

  if (hdma == htim->hdma[TIM_DMA_ID_CC1])
 800594e:	68fb      	ldr	r3, [r7, #12]
 8005950:	6a5b      	ldr	r3, [r3, #36]	@ 0x24
 8005952:	687a      	ldr	r2, [r7, #4]
 8005954:	429a      	cmp	r2, r3
 8005956:	d10b      	bne.n	8005970 <TIM_DMADelayPulseCplt+0x30>
  {
    htim->Channel = HAL_TIM_ACTIVE_CHANNEL_1;
 8005958:	68fb      	ldr	r3, [r7, #12]
 800595a:	2201      	movs	r2, #1
 800595c:	771a      	strb	r2, [r3, #28]

    if (hdma->Init.Mode == DMA_NORMAL)
 800595e:	687b      	ldr	r3, [r7, #4]
 8005960:	699b      	ldr	r3, [r3, #24]
 8005962:	2b00      	cmp	r3, #0
 8005964:	d136      	bne.n	80059d4 <TIM_DMADelayPulseCplt+0x94>
    {
      TIM_CHANNEL_STATE_SET(htim, TIM_CHANNEL_1, HAL_TIM_CHANNEL_STATE_READY);
 8005966:	68fb      	ldr	r3, [r7, #12]
 8005968:	2201      	movs	r2, #1
 800596a:	f883 203e 	strb.w	r2, [r3, #62]	@ 0x3e
 800596e:	e031      	b.n	80059d4 <TIM_DMADelayPulseCplt+0x94>
    }
  }
  else if (hdma == htim->hdma[TIM_DMA_ID_CC2])
 8005970:	68fb      	ldr	r3, [r7, #12]
 8005972:	6a9b      	ldr	r3, [r3, #40]	@ 0x28
 8005974:	687a      	ldr	r2, [r7, #4]
 8005976:	429a      	cmp	r2, r3
 8005978:	d10b      	bne.n	8005992 <TIM_DMADelayPulseCplt+0x52>
  {
    htim->Channel = HAL_TIM_ACTIVE_CHANNEL_2;
 800597a:	68fb      	ldr	r3, [r7, #12]
 800597c:	2202      	movs	r2, #2
 800597e:	771a      	strb	r2, [r3, #28]

    if (hdma->Init.Mode == DMA_NORMAL)
 8005980:	687b      	ldr	r3, [r7, #4]
 8005982:	699b      	ldr	r3, [r3, #24]
 8005984:	2b00      	cmp	r3, #0
 8005986:	d125      	bne.n	80059d4 <TIM_DMADelayPulseCplt+0x94>
    {
      TIM_CHANNEL_STATE_SET(htim, TIM_CHANNEL_2, HAL_TIM_CHANNEL_STATE_READY);
 8005988:	68fb      	ldr	r3, [r7, #12]
 800598a:	2201      	movs	r2, #1
 800598c:	f883 203f 	strb.w	r2, [r3, #63]	@ 0x3f
 8005990:	e020      	b.n	80059d4 <TIM_DMADelayPulseCplt+0x94>
    }
  }
  else if (hdma == htim->hdma[TIM_DMA_ID_CC3])
 8005992:	68fb      	ldr	r3, [r7, #12]
 8005994:	6adb      	ldr	r3, [r3, #44]	@ 0x2c
 8005996:	687a      	ldr	r2, [r7, #4]
 8005998:	429a      	cmp	r2, r3
 800599a:	d10b      	bne.n	80059b4 <TIM_DMADelayPulseCplt+0x74>
  {
    htim->Channel = HAL_TIM_ACTIVE_CHANNEL_3;
 800599c:	68fb      	ldr	r3, [r7, #12]
 800599e:	2204      	movs	r2, #4
 80059a0:	771a      	strb	r2, [r3, #28]

    if (hdma->Init.Mode == DMA_NORMAL)
 80059a2:	687b      	ldr	r3, [r7, #4]
 80059a4:	699b      	ldr	r3, [r3, #24]
 80059a6:	2b00      	cmp	r3, #0
 80059a8:	d114      	bne.n	80059d4 <TIM_DMADelayPulseCplt+0x94>
    {
      TIM_CHANNEL_STATE_SET(htim, TIM_CHANNEL_3, HAL_TIM_CHANNEL_STATE_READY);
 80059aa:	68fb      	ldr	r3, [r7, #12]
 80059ac:	2201      	movs	r2, #1
 80059ae:	f883 2040 	strb.w	r2, [r3, #64]	@ 0x40
 80059b2:	e00f      	b.n	80059d4 <TIM_DMADelayPulseCplt+0x94>
    }
  }
  else if (hdma == htim->hdma[TIM_DMA_ID_CC4])
 80059b4:	68fb      	ldr	r3, [r7, #12]
 80059b6:	6b1b      	ldr	r3, [r3, #48]	@ 0x30
 80059b8:	687a      	ldr	r2, [r7, #4]
 80059ba:	429a      	cmp	r2, r3
 80059bc:	d10a      	bne.n	80059d4 <TIM_DMADelayPulseCplt+0x94>
  {
    htim->Channel = HAL_TIM_ACTIVE_CHANNEL_4;
 80059be:	68fb      	ldr	r3, [r7, #12]
 80059c0:	2208      	movs	r2, #8
 80059c2:	771a      	strb	r2, [r3, #28]

    if (hdma->Init.Mode == DMA_NORMAL)
 80059c4:	687b      	ldr	r3, [r7, #4]
 80059c6:	699b      	ldr	r3, [r3, #24]
 80059c8:	2b00      	cmp	r3, #0
 80059ca:	d103      	bne.n	80059d4 <TIM_DMADelayPulseCplt+0x94>
    {
      TIM_CHANNEL_STATE_SET(htim, TIM_CHANNEL_4, HAL_TIM_CHANNEL_STATE_READY);
 80059cc:	68fb      	ldr	r3, [r7, #12]
 80059ce:	2201      	movs	r2, #1
 80059d0:	f883 2041 	strb.w	r2, [r3, #65]	@ 0x41
  }

#if (USE_HAL_TIM_REGISTER_CALLBACKS == 1)
  htim->PWM_PulseFinishedCallback(htim);
#else
  HAL_TIM_PWM_PulseFinishedCallback(htim);
 80059d4:	68f8      	ldr	r0, [r7, #12]
 80059d6:	f7fb fd87 	bl	80014e8 <HAL_TIM_PWM_PulseFinishedCallback>
#endif /* USE_HAL_TIM_REGISTER_CALLBACKS */

  htim->Channel = HAL_TIM_ACTIVE_CHANNEL_CLEARED;
 80059da:	68fb      	ldr	r3, [r7, #12]
 80059dc:	2200      	movs	r2, #0
 80059de:	771a      	strb	r2, [r3, #28]
}
 80059e0:	bf00      	nop
 80059e2:	3710      	adds	r7, #16
 80059e4:	46bd      	mov	sp, r7
 80059e6:	bd80      	pop	{r7, pc}

080059e8 <TIM_DMADelayPulseHalfCplt>:
  * @brief  TIM DMA Delay Pulse half complete callback.
  * @param  hdma pointer to DMA handle.
  * @retval None
  */
void TIM_DMADelayPulseHalfCplt(DMA_HandleTypeDef *hdma)
{
 80059e8:	b580      	push	{r7, lr}
 80059ea:	b084      	sub	sp, #16
 80059ec:	af00      	add	r7, sp, #0
 80059ee:	6078      	str	r0, [r7, #4]
  TIM_HandleTypeDef *htim = (TIM_HandleTypeDef *)((DMA_HandleTypeDef *)hdma)->Parent;
 80059f0:	687b      	ldr	r3, [r7, #4]
 80059f2:	6a5b      	ldr	r3, [r3, #36]	@ 0x24
 80059f4:	60fb      	str	r3, [r7, #12]

  if (hdma == htim->hdma[TIM_DMA_ID_CC1])
 80059f6:	68fb      	ldr	r3, [r7, #12]
 80059f8:	6a5b      	ldr	r3, [r3, #36]	@ 0x24
 80059fa:	687a      	ldr	r2, [r7, #4]
 80059fc:	429a      	cmp	r2, r3
 80059fe:	d103      	bne.n	8005a08 <TIM_DMADelayPulseHalfCplt+0x20>
  {
    htim->Channel = HAL_TIM_ACTIVE_CHANNEL_1;
 8005a00:	68fb      	ldr	r3, [r7, #12]
 8005a02:	2201      	movs	r2, #1
 8005a04:	771a      	strb	r2, [r3, #28]
 8005a06:	e019      	b.n	8005a3c <TIM_DMADelayPulseHalfCplt+0x54>
  }
  else if (hdma == htim->hdma[TIM_DMA_ID_CC2])
 8005a08:	68fb      	ldr	r3, [r7, #12]
 8005a0a:	6a9b      	ldr	r3, [r3, #40]	@ 0x28
 8005a0c:	687a      	ldr	r2, [r7, #4]
 8005a0e:	429a      	cmp	r2, r3
 8005a10:	d103      	bne.n	8005a1a <TIM_DMADelayPulseHalfCplt+0x32>
  {
    htim->Channel = HAL_TIM_ACTIVE_CHANNEL_2;
 8005a12:	68fb      	ldr	r3, [r7, #12]
 8005a14:	2202      	movs	r2, #2
 8005a16:	771a      	strb	r2, [r3, #28]
 8005a18:	e010      	b.n	8005a3c <TIM_DMADelayPulseHalfCplt+0x54>
  }
  else if (hdma == htim->hdma[TIM_DMA_ID_CC3])
 8005a1a:	68fb      	ldr	r3, [r7, #12]
 8005a1c:	6adb      	ldr	r3, [r3, #44]	@ 0x2c
 8005a1e:	687a      	ldr	r2, [r7, #4]
 8005a20:	429a      	cmp	r2, r3
 8005a22:	d103      	bne.n	8005a2c <TIM_DMADelayPulseHalfCplt+0x44>
  {
    htim->Channel = HAL_TIM_ACTIVE_CHANNEL_3;
 8005a24:	68fb      	ldr	r3, [r7, #12]
 8005a26:	2204      	movs	r2, #4
 8005a28:	771a      	strb	r2, [r3, #28]
 8005a2a:	e007      	b.n	8005a3c <TIM_DMADelayPulseHalfCplt+0x54>
  }
  else if (hdma == htim->hdma[TIM_DMA_ID_CC4])
 8005a2c:	68fb      	ldr	r3, [r7, #12]
 8005a2e:	6b1b      	ldr	r3, [r3, #48]	@ 0x30
 8005a30:	687a      	ldr	r2, [r7, #4]
 8005a32:	429a      	cmp	r2, r3
 8005a34:	d102      	bne.n	8005a3c <TIM_DMADelayPulseHalfCplt+0x54>
  {
    htim->Channel = HAL_TIM_ACTIVE_CHANNEL_4;
 8005a36:	68fb      	ldr	r3, [r7, #12]
 8005a38:	2208      	movs	r2, #8
 8005a3a:	771a      	strb	r2, [r3, #28]
  }

#if (USE_HAL_TIM_REGISTER_CALLBACKS == 1)
  htim->PWM_PulseFinishedHalfCpltCallback(htim);
#else
  HAL_TIM_PWM_PulseFinishedHalfCpltCallback(htim);
 8005a3c:	68f8      	ldr	r0, [r7, #12]
 8005a3e:	f7ff ff1b 	bl	8005878 <HAL_TIM_PWM_PulseFinishedHalfCpltCallback>
#endif /* USE_HAL_TIM_REGISTER_CALLBACKS */

  htim->Channel = HAL_TIM_ACTIVE_CHANNEL_CLEARED;
 8005a42:	68fb      	ldr	r3, [r7, #12]
 8005a44:	2200      	movs	r2, #0
 8005a46:	771a      	strb	r2, [r3, #28]
}
 8005a48:	bf00      	nop
 8005a4a:	3710      	adds	r7, #16
 8005a4c:	46bd      	mov	sp, r7
 8005a4e:	bd80      	pop	{r7, pc}

08005a50 <TIM_Base_SetConfig>:
  * @param  TIMx TIM peripheral
  * @param  Structure TIM Base configuration structure
  * @retval None
  */
void TIM_Base_SetConfig(TIM_TypeDef *TIMx, const TIM_Base_InitTypeDef *Structure)
{
 8005a50:	b480      	push	{r7}
 8005a52:	b085      	sub	sp, #20
 8005a54:	af00      	add	r7, sp, #0
 8005a56:	6078      	str	r0, [r7, #4]
 8005a58:	6039      	str	r1, [r7, #0]
  uint32_t tmpcr1;
  tmpcr1 = TIMx->CR1;
 8005a5a:	687b      	ldr	r3, [r7, #4]
 8005a5c:	681b      	ldr	r3, [r3, #0]
 8005a5e:	60fb      	str	r3, [r7, #12]

  /* Set TIM Time Base Unit parameters ---------------------------------------*/
  if (IS_TIM_COUNTER_MODE_SELECT_INSTANCE(TIMx))
 8005a60:	687b      	ldr	r3, [r7, #4]
 8005a62:	4a2f      	ldr	r2, [pc, #188]	@ (8005b20 <TIM_Base_SetConfig+0xd0>)
 8005a64:	4293      	cmp	r3, r2
 8005a66:	d00b      	beq.n	8005a80 <TIM_Base_SetConfig+0x30>
 8005a68:	687b      	ldr	r3, [r7, #4]
 8005a6a:	f1b3 4f80 	cmp.w	r3, #1073741824	@ 0x40000000
 8005a6e:	d007      	beq.n	8005a80 <TIM_Base_SetConfig+0x30>
 8005a70:	687b      	ldr	r3, [r7, #4]
 8005a72:	4a2c      	ldr	r2, [pc, #176]	@ (8005b24 <TIM_Base_SetConfig+0xd4>)
 8005a74:	4293      	cmp	r3, r2
 8005a76:	d003      	beq.n	8005a80 <TIM_Base_SetConfig+0x30>
 8005a78:	687b      	ldr	r3, [r7, #4]
 8005a7a:	4a2b      	ldr	r2, [pc, #172]	@ (8005b28 <TIM_Base_SetConfig+0xd8>)
 8005a7c:	4293      	cmp	r3, r2
 8005a7e:	d108      	bne.n	8005a92 <TIM_Base_SetConfig+0x42>
  {
    /* Select the Counter Mode */
    tmpcr1 &= ~(TIM_CR1_DIR | TIM_CR1_CMS);
 8005a80:	68fb      	ldr	r3, [r7, #12]
 8005a82:	f023 0370 	bic.w	r3, r3, #112	@ 0x70
 8005a86:	60fb      	str	r3, [r7, #12]
    tmpcr1 |= Structure->CounterMode;
 8005a88:	683b      	ldr	r3, [r7, #0]
 8005a8a:	685b      	ldr	r3, [r3, #4]
 8005a8c:	68fa      	ldr	r2, [r7, #12]
 8005a8e:	4313      	orrs	r3, r2
 8005a90:	60fb      	str	r3, [r7, #12]
  }

  if (IS_TIM_CLOCK_DIVISION_INSTANCE(TIMx))
 8005a92:	687b      	ldr	r3, [r7, #4]
 8005a94:	4a22      	ldr	r2, [pc, #136]	@ (8005b20 <TIM_Base_SetConfig+0xd0>)
 8005a96:	4293      	cmp	r3, r2
 8005a98:	d00b      	beq.n	8005ab2 <TIM_Base_SetConfig+0x62>
 8005a9a:	687b      	ldr	r3, [r7, #4]
 8005a9c:	f1b3 4f80 	cmp.w	r3, #1073741824	@ 0x40000000
 8005aa0:	d007      	beq.n	8005ab2 <TIM_Base_SetConfig+0x62>
 8005aa2:	687b      	ldr	r3, [r7, #4]
 8005aa4:	4a1f      	ldr	r2, [pc, #124]	@ (8005b24 <TIM_Base_SetConfig+0xd4>)
 8005aa6:	4293      	cmp	r3, r2
 8005aa8:	d003      	beq.n	8005ab2 <TIM_Base_SetConfig+0x62>
 8005aaa:	687b      	ldr	r3, [r7, #4]
 8005aac:	4a1e      	ldr	r2, [pc, #120]	@ (8005b28 <TIM_Base_SetConfig+0xd8>)
 8005aae:	4293      	cmp	r3, r2
 8005ab0:	d108      	bne.n	8005ac4 <TIM_Base_SetConfig+0x74>
  {
    /* Set the clock division */
    tmpcr1 &= ~TIM_CR1_CKD;
 8005ab2:	68fb      	ldr	r3, [r7, #12]
 8005ab4:	f423 7340 	bic.w	r3, r3, #768	@ 0x300
 8005ab8:	60fb      	str	r3, [r7, #12]
    tmpcr1 |= (uint32_t)Structure->ClockDivision;
 8005aba:	683b      	ldr	r3, [r7, #0]
 8005abc:	68db      	ldr	r3, [r3, #12]
 8005abe:	68fa      	ldr	r2, [r7, #12]
 8005ac0:	4313      	orrs	r3, r2
 8005ac2:	60fb      	str	r3, [r7, #12]
  }

  /* Set the auto-reload preload */
  MODIFY_REG(tmpcr1, TIM_CR1_ARPE, Structure->AutoReloadPreload);
 8005ac4:	68fb      	ldr	r3, [r7, #12]
 8005ac6:	f023 0280 	bic.w	r2, r3, #128	@ 0x80
 8005aca:	683b      	ldr	r3, [r7, #0]
 8005acc:	695b      	ldr	r3, [r3, #20]
 8005ace:	4313      	orrs	r3, r2
 8005ad0:	60fb      	str	r3, [r7, #12]

  TIMx->CR1 = tmpcr1;
 8005ad2:	687b      	ldr	r3, [r7, #4]
 8005ad4:	68fa      	ldr	r2, [r7, #12]
 8005ad6:	601a      	str	r2, [r3, #0]

  /* Set the Autoreload value */
  TIMx->ARR = (uint32_t)Structure->Period ;
 8005ad8:	683b      	ldr	r3, [r7, #0]
 8005ada:	689a      	ldr	r2, [r3, #8]
 8005adc:	687b      	ldr	r3, [r7, #4]
 8005ade:	62da      	str	r2, [r3, #44]	@ 0x2c

  /* Set the Prescaler value */
  TIMx->PSC = Structure->Prescaler;
 8005ae0:	683b      	ldr	r3, [r7, #0]
 8005ae2:	681a      	ldr	r2, [r3, #0]
 8005ae4:	687b      	ldr	r3, [r7, #4]
 8005ae6:	629a      	str	r2, [r3, #40]	@ 0x28

  if (IS_TIM_REPETITION_COUNTER_INSTANCE(TIMx))
 8005ae8:	687b      	ldr	r3, [r7, #4]
 8005aea:	4a0d      	ldr	r2, [pc, #52]	@ (8005b20 <TIM_Base_SetConfig+0xd0>)
 8005aec:	4293      	cmp	r3, r2
 8005aee:	d103      	bne.n	8005af8 <TIM_Base_SetConfig+0xa8>
  {
    /* Set the Repetition Counter value */
    TIMx->RCR = Structure->RepetitionCounter;
 8005af0:	683b      	ldr	r3, [r7, #0]
 8005af2:	691a      	ldr	r2, [r3, #16]
 8005af4:	687b      	ldr	r3, [r7, #4]
 8005af6:	631a      	str	r2, [r3, #48]	@ 0x30
  }

  /* Generate an update event to reload the Prescaler
     and the repetition counter (only for advanced timer) value immediately */
  TIMx->EGR = TIM_EGR_UG;
 8005af8:	687b      	ldr	r3, [r7, #4]
 8005afa:	2201      	movs	r2, #1
 8005afc:	615a      	str	r2, [r3, #20]

  /* Check if the update flag is set after the Update Generation, if so clear the UIF flag */
  if (HAL_IS_BIT_SET(TIMx->SR, TIM_FLAG_UPDATE))
 8005afe:	687b      	ldr	r3, [r7, #4]
 8005b00:	691b      	ldr	r3, [r3, #16]
 8005b02:	f003 0301 	and.w	r3, r3, #1
 8005b06:	2b00      	cmp	r3, #0
 8005b08:	d005      	beq.n	8005b16 <TIM_Base_SetConfig+0xc6>
  {
    /* Clear the update flag */
    CLEAR_BIT(TIMx->SR, TIM_FLAG_UPDATE);
 8005b0a:	687b      	ldr	r3, [r7, #4]
 8005b0c:	691b      	ldr	r3, [r3, #16]
 8005b0e:	f023 0201 	bic.w	r2, r3, #1
 8005b12:	687b      	ldr	r3, [r7, #4]
 8005b14:	611a      	str	r2, [r3, #16]
  }
}
 8005b16:	bf00      	nop
 8005b18:	3714      	adds	r7, #20
 8005b1a:	46bd      	mov	sp, r7
 8005b1c:	bc80      	pop	{r7}
 8005b1e:	4770      	bx	lr
 8005b20:	40012c00 	.word	0x40012c00
 8005b24:	40000400 	.word	0x40000400
 8005b28:	40000800 	.word	0x40000800

08005b2c <TIM_OC1_SetConfig>:
  * @param  TIMx to select the TIM peripheral
  * @param  OC_Config The output configuration structure
  * @retval None
  */
static void TIM_OC1_SetConfig(TIM_TypeDef *TIMx, const TIM_OC_InitTypeDef *OC_Config)
{
 8005b2c:	b480      	push	{r7}
 8005b2e:	b087      	sub	sp, #28
 8005b30:	af00      	add	r7, sp, #0
 8005b32:	6078      	str	r0, [r7, #4]
 8005b34:	6039      	str	r1, [r7, #0]
  uint32_t tmpccmrx;
  uint32_t tmpccer;
  uint32_t tmpcr2;

  /* Get the TIMx CCER register value */
  tmpccer = TIMx->CCER;
 8005b36:	687b      	ldr	r3, [r7, #4]
 8005b38:	6a1b      	ldr	r3, [r3, #32]
 8005b3a:	617b      	str	r3, [r7, #20]

  /* Disable the Channel 1: Reset the CC1E Bit */
  TIMx->CCER &= ~TIM_CCER_CC1E;
 8005b3c:	687b      	ldr	r3, [r7, #4]
 8005b3e:	6a1b      	ldr	r3, [r3, #32]
 8005b40:	f023 0201 	bic.w	r2, r3, #1
 8005b44:	687b      	ldr	r3, [r7, #4]
 8005b46:	621a      	str	r2, [r3, #32]

  /* Get the TIMx CR2 register value */
  tmpcr2 =  TIMx->CR2;
 8005b48:	687b      	ldr	r3, [r7, #4]
 8005b4a:	685b      	ldr	r3, [r3, #4]
 8005b4c:	613b      	str	r3, [r7, #16]

  /* Get the TIMx CCMR1 register value */
  tmpccmrx = TIMx->CCMR1;
 8005b4e:	687b      	ldr	r3, [r7, #4]
 8005b50:	699b      	ldr	r3, [r3, #24]
 8005b52:	60fb      	str	r3, [r7, #12]

  /* Reset the Output Compare Mode Bits */
  tmpccmrx &= ~TIM_CCMR1_OC1M;
 8005b54:	68fb      	ldr	r3, [r7, #12]
 8005b56:	f023 0370 	bic.w	r3, r3, #112	@ 0x70
 8005b5a:	60fb      	str	r3, [r7, #12]
  tmpccmrx &= ~TIM_CCMR1_CC1S;
 8005b5c:	68fb      	ldr	r3, [r7, #12]
 8005b5e:	f023 0303 	bic.w	r3, r3, #3
 8005b62:	60fb      	str	r3, [r7, #12]
  /* Select the Output Compare Mode */
  tmpccmrx |= OC_Config->OCMode;
 8005b64:	683b      	ldr	r3, [r7, #0]
 8005b66:	681b      	ldr	r3, [r3, #0]
 8005b68:	68fa      	ldr	r2, [r7, #12]
 8005b6a:	4313      	orrs	r3, r2
 8005b6c:	60fb      	str	r3, [r7, #12]

  /* Reset the Output Polarity level */
  tmpccer &= ~TIM_CCER_CC1P;
 8005b6e:	697b      	ldr	r3, [r7, #20]
 8005b70:	f023 0302 	bic.w	r3, r3, #2
 8005b74:	617b      	str	r3, [r7, #20]
  /* Set the Output Compare Polarity */
  tmpccer |= OC_Config->OCPolarity;
 8005b76:	683b      	ldr	r3, [r7, #0]
 8005b78:	689b      	ldr	r3, [r3, #8]
 8005b7a:	697a      	ldr	r2, [r7, #20]
 8005b7c:	4313      	orrs	r3, r2
 8005b7e:	617b      	str	r3, [r7, #20]

  if (IS_TIM_CCXN_INSTANCE(TIMx, TIM_CHANNEL_1))
 8005b80:	687b      	ldr	r3, [r7, #4]
 8005b82:	4a1c      	ldr	r2, [pc, #112]	@ (8005bf4 <TIM_OC1_SetConfig+0xc8>)
 8005b84:	4293      	cmp	r3, r2
 8005b86:	d10c      	bne.n	8005ba2 <TIM_OC1_SetConfig+0x76>
  {
    /* Check parameters */
    assert_param(IS_TIM_OCN_POLARITY(OC_Config->OCNPolarity));

    /* Reset the Output N Polarity level */
    tmpccer &= ~TIM_CCER_CC1NP;
 8005b88:	697b      	ldr	r3, [r7, #20]
 8005b8a:	f023 0308 	bic.w	r3, r3, #8
 8005b8e:	617b      	str	r3, [r7, #20]
    /* Set the Output N Polarity */
    tmpccer |= OC_Config->OCNPolarity;
 8005b90:	683b      	ldr	r3, [r7, #0]
 8005b92:	68db      	ldr	r3, [r3, #12]
 8005b94:	697a      	ldr	r2, [r7, #20]
 8005b96:	4313      	orrs	r3, r2
 8005b98:	617b      	str	r3, [r7, #20]
    /* Reset the Output N State */
    tmpccer &= ~TIM_CCER_CC1NE;
 8005b9a:	697b      	ldr	r3, [r7, #20]
 8005b9c:	f023 0304 	bic.w	r3, r3, #4
 8005ba0:	617b      	str	r3, [r7, #20]
  }

  if (IS_TIM_BREAK_INSTANCE(TIMx))
 8005ba2:	687b      	ldr	r3, [r7, #4]
 8005ba4:	4a13      	ldr	r2, [pc, #76]	@ (8005bf4 <TIM_OC1_SetConfig+0xc8>)
 8005ba6:	4293      	cmp	r3, r2
 8005ba8:	d111      	bne.n	8005bce <TIM_OC1_SetConfig+0xa2>
    /* Check parameters */
    assert_param(IS_TIM_OCNIDLE_STATE(OC_Config->OCNIdleState));
    assert_param(IS_TIM_OCIDLE_STATE(OC_Config->OCIdleState));

    /* Reset the Output Compare and Output Compare N IDLE State */
    tmpcr2 &= ~TIM_CR2_OIS1;
 8005baa:	693b      	ldr	r3, [r7, #16]
 8005bac:	f423 7380 	bic.w	r3, r3, #256	@ 0x100
 8005bb0:	613b      	str	r3, [r7, #16]
    tmpcr2 &= ~TIM_CR2_OIS1N;
 8005bb2:	693b      	ldr	r3, [r7, #16]
 8005bb4:	f423 7300 	bic.w	r3, r3, #512	@ 0x200
 8005bb8:	613b      	str	r3, [r7, #16]
    /* Set the Output Idle state */
    tmpcr2 |= OC_Config->OCIdleState;
 8005bba:	683b      	ldr	r3, [r7, #0]
 8005bbc:	695b      	ldr	r3, [r3, #20]
 8005bbe:	693a      	ldr	r2, [r7, #16]
 8005bc0:	4313      	orrs	r3, r2
 8005bc2:	613b      	str	r3, [r7, #16]
    /* Set the Output N Idle state */
    tmpcr2 |= OC_Config->OCNIdleState;
 8005bc4:	683b      	ldr	r3, [r7, #0]
 8005bc6:	699b      	ldr	r3, [r3, #24]
 8005bc8:	693a      	ldr	r2, [r7, #16]
 8005bca:	4313      	orrs	r3, r2
 8005bcc:	613b      	str	r3, [r7, #16]
  }

  /* Write to TIMx CR2 */
  TIMx->CR2 = tmpcr2;
 8005bce:	687b      	ldr	r3, [r7, #4]
 8005bd0:	693a      	ldr	r2, [r7, #16]
 8005bd2:	605a      	str	r2, [r3, #4]

  /* Write to TIMx CCMR1 */
  TIMx->CCMR1 = tmpccmrx;
 8005bd4:	687b      	ldr	r3, [r7, #4]
 8005bd6:	68fa      	ldr	r2, [r7, #12]
 8005bd8:	619a      	str	r2, [r3, #24]

  /* Set the Capture Compare Register value */
  TIMx->CCR1 = OC_Config->Pulse;
 8005bda:	683b      	ldr	r3, [r7, #0]
 8005bdc:	685a      	ldr	r2, [r3, #4]
 8005bde:	687b      	ldr	r3, [r7, #4]
 8005be0:	635a      	str	r2, [r3, #52]	@ 0x34

  /* Write to TIMx CCER */
  TIMx->CCER = tmpccer;
 8005be2:	687b      	ldr	r3, [r7, #4]
 8005be4:	697a      	ldr	r2, [r7, #20]
 8005be6:	621a      	str	r2, [r3, #32]
}
 8005be8:	bf00      	nop
 8005bea:	371c      	adds	r7, #28
 8005bec:	46bd      	mov	sp, r7
 8005bee:	bc80      	pop	{r7}
 8005bf0:	4770      	bx	lr
 8005bf2:	bf00      	nop
 8005bf4:	40012c00 	.word	0x40012c00

08005bf8 <TIM_OC2_SetConfig>:
  * @param  TIMx to select the TIM peripheral
  * @param  OC_Config The output configuration structure
  * @retval None
  */
void TIM_OC2_SetConfig(TIM_TypeDef *TIMx, const TIM_OC_InitTypeDef *OC_Config)
{
 8005bf8:	b480      	push	{r7}
 8005bfa:	b087      	sub	sp, #28
 8005bfc:	af00      	add	r7, sp, #0
 8005bfe:	6078      	str	r0, [r7, #4]
 8005c00:	6039      	str	r1, [r7, #0]
  uint32_t tmpccmrx;
  uint32_t tmpccer;
  uint32_t tmpcr2;

  /* Get the TIMx CCER register value */
  tmpccer = TIMx->CCER;
 8005c02:	687b      	ldr	r3, [r7, #4]
 8005c04:	6a1b      	ldr	r3, [r3, #32]
 8005c06:	617b      	str	r3, [r7, #20]

  /* Disable the Channel 2: Reset the CC2E Bit */
  TIMx->CCER &= ~TIM_CCER_CC2E;
 8005c08:	687b      	ldr	r3, [r7, #4]
 8005c0a:	6a1b      	ldr	r3, [r3, #32]
 8005c0c:	f023 0210 	bic.w	r2, r3, #16
 8005c10:	687b      	ldr	r3, [r7, #4]
 8005c12:	621a      	str	r2, [r3, #32]

  /* Get the TIMx CR2 register value */
  tmpcr2 =  TIMx->CR2;
 8005c14:	687b      	ldr	r3, [r7, #4]
 8005c16:	685b      	ldr	r3, [r3, #4]
 8005c18:	613b      	str	r3, [r7, #16]

  /* Get the TIMx CCMR1 register value */
  tmpccmrx = TIMx->CCMR1;
 8005c1a:	687b      	ldr	r3, [r7, #4]
 8005c1c:	699b      	ldr	r3, [r3, #24]
 8005c1e:	60fb      	str	r3, [r7, #12]

  /* Reset the Output Compare mode and Capture/Compare selection Bits */
  tmpccmrx &= ~TIM_CCMR1_OC2M;
 8005c20:	68fb      	ldr	r3, [r7, #12]
 8005c22:	f423 43e0 	bic.w	r3, r3, #28672	@ 0x7000
 8005c26:	60fb      	str	r3, [r7, #12]
  tmpccmrx &= ~TIM_CCMR1_CC2S;
 8005c28:	68fb      	ldr	r3, [r7, #12]
 8005c2a:	f423 7340 	bic.w	r3, r3, #768	@ 0x300
 8005c2e:	60fb      	str	r3, [r7, #12]

  /* Select the Output Compare Mode */
  tmpccmrx |= (OC_Config->OCMode << 8U);
 8005c30:	683b      	ldr	r3, [r7, #0]
 8005c32:	681b      	ldr	r3, [r3, #0]
 8005c34:	021b      	lsls	r3, r3, #8
 8005c36:	68fa      	ldr	r2, [r7, #12]
 8005c38:	4313      	orrs	r3, r2
 8005c3a:	60fb      	str	r3, [r7, #12]

  /* Reset the Output Polarity level */
  tmpccer &= ~TIM_CCER_CC2P;
 8005c3c:	697b      	ldr	r3, [r7, #20]
 8005c3e:	f023 0320 	bic.w	r3, r3, #32
 8005c42:	617b      	str	r3, [r7, #20]
  /* Set the Output Compare Polarity */
  tmpccer |= (OC_Config->OCPolarity << 4U);
 8005c44:	683b      	ldr	r3, [r7, #0]
 8005c46:	689b      	ldr	r3, [r3, #8]
 8005c48:	011b      	lsls	r3, r3, #4
 8005c4a:	697a      	ldr	r2, [r7, #20]
 8005c4c:	4313      	orrs	r3, r2
 8005c4e:	617b      	str	r3, [r7, #20]

  if (IS_TIM_CCXN_INSTANCE(TIMx, TIM_CHANNEL_2))
 8005c50:	687b      	ldr	r3, [r7, #4]
 8005c52:	4a1d      	ldr	r2, [pc, #116]	@ (8005cc8 <TIM_OC2_SetConfig+0xd0>)
 8005c54:	4293      	cmp	r3, r2
 8005c56:	d10d      	bne.n	8005c74 <TIM_OC2_SetConfig+0x7c>
  {
    assert_param(IS_TIM_OCN_POLARITY(OC_Config->OCNPolarity));

    /* Reset the Output N Polarity level */
    tmpccer &= ~TIM_CCER_CC2NP;
 8005c58:	697b      	ldr	r3, [r7, #20]
 8005c5a:	f023 0380 	bic.w	r3, r3, #128	@ 0x80
 8005c5e:	617b      	str	r3, [r7, #20]
    /* Set the Output N Polarity */
    tmpccer |= (OC_Config->OCNPolarity << 4U);
 8005c60:	683b      	ldr	r3, [r7, #0]
 8005c62:	68db      	ldr	r3, [r3, #12]
 8005c64:	011b      	lsls	r3, r3, #4
 8005c66:	697a      	ldr	r2, [r7, #20]
 8005c68:	4313      	orrs	r3, r2
 8005c6a:	617b      	str	r3, [r7, #20]
    /* Reset the Output N State */
    tmpccer &= ~TIM_CCER_CC2NE;
 8005c6c:	697b      	ldr	r3, [r7, #20]
 8005c6e:	f023 0340 	bic.w	r3, r3, #64	@ 0x40
 8005c72:	617b      	str	r3, [r7, #20]
  }

  if (IS_TIM_BREAK_INSTANCE(TIMx))
 8005c74:	687b      	ldr	r3, [r7, #4]
 8005c76:	4a14      	ldr	r2, [pc, #80]	@ (8005cc8 <TIM_OC2_SetConfig+0xd0>)
 8005c78:	4293      	cmp	r3, r2
 8005c7a:	d113      	bne.n	8005ca4 <TIM_OC2_SetConfig+0xac>
    /* Check parameters */
    assert_param(IS_TIM_OCNIDLE_STATE(OC_Config->OCNIdleState));
    assert_param(IS_TIM_OCIDLE_STATE(OC_Config->OCIdleState));

    /* Reset the Output Compare and Output Compare N IDLE State */
    tmpcr2 &= ~TIM_CR2_OIS2;
 8005c7c:	693b      	ldr	r3, [r7, #16]
 8005c7e:	f423 6380 	bic.w	r3, r3, #1024	@ 0x400
 8005c82:	613b      	str	r3, [r7, #16]
    tmpcr2 &= ~TIM_CR2_OIS2N;
 8005c84:	693b      	ldr	r3, [r7, #16]
 8005c86:	f423 6300 	bic.w	r3, r3, #2048	@ 0x800
 8005c8a:	613b      	str	r3, [r7, #16]
    /* Set the Output Idle state */
    tmpcr2 |= (OC_Config->OCIdleState << 2U);
 8005c8c:	683b      	ldr	r3, [r7, #0]
 8005c8e:	695b      	ldr	r3, [r3, #20]
 8005c90:	009b      	lsls	r3, r3, #2
 8005c92:	693a      	ldr	r2, [r7, #16]
 8005c94:	4313      	orrs	r3, r2
 8005c96:	613b      	str	r3, [r7, #16]
    /* Set the Output N Idle state */
    tmpcr2 |= (OC_Config->OCNIdleState << 2U);
 8005c98:	683b      	ldr	r3, [r7, #0]
 8005c9a:	699b      	ldr	r3, [r3, #24]
 8005c9c:	009b      	lsls	r3, r3, #2
 8005c9e:	693a      	ldr	r2, [r7, #16]
 8005ca0:	4313      	orrs	r3, r2
 8005ca2:	613b      	str	r3, [r7, #16]
  }

  /* Write to TIMx CR2 */
  TIMx->CR2 = tmpcr2;
 8005ca4:	687b      	ldr	r3, [r7, #4]
 8005ca6:	693a      	ldr	r2, [r7, #16]
 8005ca8:	605a      	str	r2, [r3, #4]

  /* Write to TIMx CCMR1 */
  TIMx->CCMR1 = tmpccmrx;
 8005caa:	687b      	ldr	r3, [r7, #4]
 8005cac:	68fa      	ldr	r2, [r7, #12]
 8005cae:	619a      	str	r2, [r3, #24]

  /* Set the Capture Compare Register value */
  TIMx->CCR2 = OC_Config->Pulse;
 8005cb0:	683b      	ldr	r3, [r7, #0]
 8005cb2:	685a      	ldr	r2, [r3, #4]
 8005cb4:	687b      	ldr	r3, [r7, #4]
 8005cb6:	639a      	str	r2, [r3, #56]	@ 0x38

  /* Write to TIMx CCER */
  TIMx->CCER = tmpccer;
 8005cb8:	687b      	ldr	r3, [r7, #4]
 8005cba:	697a      	ldr	r2, [r7, #20]
 8005cbc:	621a      	str	r2, [r3, #32]
}
 8005cbe:	bf00      	nop
 8005cc0:	371c      	adds	r7, #28
 8005cc2:	46bd      	mov	sp, r7
 8005cc4:	bc80      	pop	{r7}
 8005cc6:	4770      	bx	lr
 8005cc8:	40012c00 	.word	0x40012c00

08005ccc <TIM_OC3_SetConfig>:
  * @param  TIMx to select the TIM peripheral
  * @param  OC_Config The output configuration structure
  * @retval None
  */
static void TIM_OC3_SetConfig(TIM_TypeDef *TIMx, const TIM_OC_InitTypeDef *OC_Config)
{
 8005ccc:	b480      	push	{r7}
 8005cce:	b087      	sub	sp, #28
 8005cd0:	af00      	add	r7, sp, #0
 8005cd2:	6078      	str	r0, [r7, #4]
 8005cd4:	6039      	str	r1, [r7, #0]
  uint32_t tmpccmrx;
  uint32_t tmpccer;
  uint32_t tmpcr2;

  /* Get the TIMx CCER register value */
  tmpccer = TIMx->CCER;
 8005cd6:	687b      	ldr	r3, [r7, #4]
 8005cd8:	6a1b      	ldr	r3, [r3, #32]
 8005cda:	617b      	str	r3, [r7, #20]

  /* Disable the Channel 3: Reset the CC2E Bit */
  TIMx->CCER &= ~TIM_CCER_CC3E;
 8005cdc:	687b      	ldr	r3, [r7, #4]
 8005cde:	6a1b      	ldr	r3, [r3, #32]
 8005ce0:	f423 7280 	bic.w	r2, r3, #256	@ 0x100
 8005ce4:	687b      	ldr	r3, [r7, #4]
 8005ce6:	621a      	str	r2, [r3, #32]

  /* Get the TIMx CR2 register value */
  tmpcr2 =  TIMx->CR2;
 8005ce8:	687b      	ldr	r3, [r7, #4]
 8005cea:	685b      	ldr	r3, [r3, #4]
 8005cec:	613b      	str	r3, [r7, #16]

  /* Get the TIMx CCMR2 register value */
  tmpccmrx = TIMx->CCMR2;
 8005cee:	687b      	ldr	r3, [r7, #4]
 8005cf0:	69db      	ldr	r3, [r3, #28]
 8005cf2:	60fb      	str	r3, [r7, #12]

  /* Reset the Output Compare mode and Capture/Compare selection Bits */
  tmpccmrx &= ~TIM_CCMR2_OC3M;
 8005cf4:	68fb      	ldr	r3, [r7, #12]
 8005cf6:	f023 0370 	bic.w	r3, r3, #112	@ 0x70
 8005cfa:	60fb      	str	r3, [r7, #12]
  tmpccmrx &= ~TIM_CCMR2_CC3S;
 8005cfc:	68fb      	ldr	r3, [r7, #12]
 8005cfe:	f023 0303 	bic.w	r3, r3, #3
 8005d02:	60fb      	str	r3, [r7, #12]
  /* Select the Output Compare Mode */
  tmpccmrx |= OC_Config->OCMode;
 8005d04:	683b      	ldr	r3, [r7, #0]
 8005d06:	681b      	ldr	r3, [r3, #0]
 8005d08:	68fa      	ldr	r2, [r7, #12]
 8005d0a:	4313      	orrs	r3, r2
 8005d0c:	60fb      	str	r3, [r7, #12]

  /* Reset the Output Polarity level */
  tmpccer &= ~TIM_CCER_CC3P;
 8005d0e:	697b      	ldr	r3, [r7, #20]
 8005d10:	f423 7300 	bic.w	r3, r3, #512	@ 0x200
 8005d14:	617b      	str	r3, [r7, #20]
  /* Set the Output Compare Polarity */
  tmpccer |= (OC_Config->OCPolarity << 8U);
 8005d16:	683b      	ldr	r3, [r7, #0]
 8005d18:	689b      	ldr	r3, [r3, #8]
 8005d1a:	021b      	lsls	r3, r3, #8
 8005d1c:	697a      	ldr	r2, [r7, #20]
 8005d1e:	4313      	orrs	r3, r2
 8005d20:	617b      	str	r3, [r7, #20]

  if (IS_TIM_CCXN_INSTANCE(TIMx, TIM_CHANNEL_3))
 8005d22:	687b      	ldr	r3, [r7, #4]
 8005d24:	4a1d      	ldr	r2, [pc, #116]	@ (8005d9c <TIM_OC3_SetConfig+0xd0>)
 8005d26:	4293      	cmp	r3, r2
 8005d28:	d10d      	bne.n	8005d46 <TIM_OC3_SetConfig+0x7a>
  {
    assert_param(IS_TIM_OCN_POLARITY(OC_Config->OCNPolarity));

    /* Reset the Output N Polarity level */
    tmpccer &= ~TIM_CCER_CC3NP;
 8005d2a:	697b      	ldr	r3, [r7, #20]
 8005d2c:	f423 6300 	bic.w	r3, r3, #2048	@ 0x800
 8005d30:	617b      	str	r3, [r7, #20]
    /* Set the Output N Polarity */
    tmpccer |= (OC_Config->OCNPolarity << 8U);
 8005d32:	683b      	ldr	r3, [r7, #0]
 8005d34:	68db      	ldr	r3, [r3, #12]
 8005d36:	021b      	lsls	r3, r3, #8
 8005d38:	697a      	ldr	r2, [r7, #20]
 8005d3a:	4313      	orrs	r3, r2
 8005d3c:	617b      	str	r3, [r7, #20]
    /* Reset the Output N State */
    tmpccer &= ~TIM_CCER_CC3NE;
 8005d3e:	697b      	ldr	r3, [r7, #20]
 8005d40:	f423 6380 	bic.w	r3, r3, #1024	@ 0x400
 8005d44:	617b      	str	r3, [r7, #20]
  }

  if (IS_TIM_BREAK_INSTANCE(TIMx))
 8005d46:	687b      	ldr	r3, [r7, #4]
 8005d48:	4a14      	ldr	r2, [pc, #80]	@ (8005d9c <TIM_OC3_SetConfig+0xd0>)
 8005d4a:	4293      	cmp	r3, r2
 8005d4c:	d113      	bne.n	8005d76 <TIM_OC3_SetConfig+0xaa>
    /* Check parameters */
    assert_param(IS_TIM_OCNIDLE_STATE(OC_Config->OCNIdleState));
    assert_param(IS_TIM_OCIDLE_STATE(OC_Config->OCIdleState));

    /* Reset the Output Compare and Output Compare N IDLE State */
    tmpcr2 &= ~TIM_CR2_OIS3;
 8005d4e:	693b      	ldr	r3, [r7, #16]
 8005d50:	f423 5380 	bic.w	r3, r3, #4096	@ 0x1000
 8005d54:	613b      	str	r3, [r7, #16]
    tmpcr2 &= ~TIM_CR2_OIS3N;
 8005d56:	693b      	ldr	r3, [r7, #16]
 8005d58:	f423 5300 	bic.w	r3, r3, #8192	@ 0x2000
 8005d5c:	613b      	str	r3, [r7, #16]
    /* Set the Output Idle state */
    tmpcr2 |= (OC_Config->OCIdleState << 4U);
 8005d5e:	683b      	ldr	r3, [r7, #0]
 8005d60:	695b      	ldr	r3, [r3, #20]
 8005d62:	011b      	lsls	r3, r3, #4
 8005d64:	693a      	ldr	r2, [r7, #16]
 8005d66:	4313      	orrs	r3, r2
 8005d68:	613b      	str	r3, [r7, #16]
    /* Set the Output N Idle state */
    tmpcr2 |= (OC_Config->OCNIdleState << 4U);
 8005d6a:	683b      	ldr	r3, [r7, #0]
 8005d6c:	699b      	ldr	r3, [r3, #24]
 8005d6e:	011b      	lsls	r3, r3, #4
 8005d70:	693a      	ldr	r2, [r7, #16]
 8005d72:	4313      	orrs	r3, r2
 8005d74:	613b      	str	r3, [r7, #16]
  }

  /* Write to TIMx CR2 */
  TIMx->CR2 = tmpcr2;
 8005d76:	687b      	ldr	r3, [r7, #4]
 8005d78:	693a      	ldr	r2, [r7, #16]
 8005d7a:	605a      	str	r2, [r3, #4]

  /* Write to TIMx CCMR2 */
  TIMx->CCMR2 = tmpccmrx;
 8005d7c:	687b      	ldr	r3, [r7, #4]
 8005d7e:	68fa      	ldr	r2, [r7, #12]
 8005d80:	61da      	str	r2, [r3, #28]

  /* Set the Capture Compare Register value */
  TIMx->CCR3 = OC_Config->Pulse;
 8005d82:	683b      	ldr	r3, [r7, #0]
 8005d84:	685a      	ldr	r2, [r3, #4]
 8005d86:	687b      	ldr	r3, [r7, #4]
 8005d88:	63da      	str	r2, [r3, #60]	@ 0x3c

  /* Write to TIMx CCER */
  TIMx->CCER = tmpccer;
 8005d8a:	687b      	ldr	r3, [r7, #4]
 8005d8c:	697a      	ldr	r2, [r7, #20]
 8005d8e:	621a      	str	r2, [r3, #32]
}
 8005d90:	bf00      	nop
 8005d92:	371c      	adds	r7, #28
 8005d94:	46bd      	mov	sp, r7
 8005d96:	bc80      	pop	{r7}
 8005d98:	4770      	bx	lr
 8005d9a:	bf00      	nop
 8005d9c:	40012c00 	.word	0x40012c00

08005da0 <TIM_OC4_SetConfig>:
  * @param  TIMx to select the TIM peripheral
  * @param  OC_Config The output configuration structure
  * @retval None
  */
static void TIM_OC4_SetConfig(TIM_TypeDef *TIMx, const TIM_OC_InitTypeDef *OC_Config)
{
 8005da0:	b480      	push	{r7}
 8005da2:	b087      	sub	sp, #28
 8005da4:	af00      	add	r7, sp, #0
 8005da6:	6078      	str	r0, [r7, #4]
 8005da8:	6039      	str	r1, [r7, #0]
  uint32_t tmpccmrx;
  uint32_t tmpccer;
  uint32_t tmpcr2;

  /* Get the TIMx CCER register value */
  tmpccer = TIMx->CCER;
 8005daa:	687b      	ldr	r3, [r7, #4]
 8005dac:	6a1b      	ldr	r3, [r3, #32]
 8005dae:	613b      	str	r3, [r7, #16]

  /* Disable the Channel 4: Reset the CC4E Bit */
  TIMx->CCER &= ~TIM_CCER_CC4E;
 8005db0:	687b      	ldr	r3, [r7, #4]
 8005db2:	6a1b      	ldr	r3, [r3, #32]
 8005db4:	f423 5280 	bic.w	r2, r3, #4096	@ 0x1000
 8005db8:	687b      	ldr	r3, [r7, #4]
 8005dba:	621a      	str	r2, [r3, #32]

  /* Get the TIMx CR2 register value */
  tmpcr2 =  TIMx->CR2;
 8005dbc:	687b      	ldr	r3, [r7, #4]
 8005dbe:	685b      	ldr	r3, [r3, #4]
 8005dc0:	617b      	str	r3, [r7, #20]

  /* Get the TIMx CCMR2 register value */
  tmpccmrx = TIMx->CCMR2;
 8005dc2:	687b      	ldr	r3, [r7, #4]
 8005dc4:	69db      	ldr	r3, [r3, #28]
 8005dc6:	60fb      	str	r3, [r7, #12]

  /* Reset the Output Compare mode and Capture/Compare selection Bits */
  tmpccmrx &= ~TIM_CCMR2_OC4M;
 8005dc8:	68fb      	ldr	r3, [r7, #12]
 8005dca:	f423 43e0 	bic.w	r3, r3, #28672	@ 0x7000
 8005dce:	60fb      	str	r3, [r7, #12]
  tmpccmrx &= ~TIM_CCMR2_CC4S;
 8005dd0:	68fb      	ldr	r3, [r7, #12]
 8005dd2:	f423 7340 	bic.w	r3, r3, #768	@ 0x300
 8005dd6:	60fb      	str	r3, [r7, #12]

  /* Select the Output Compare Mode */
  tmpccmrx |= (OC_Config->OCMode << 8U);
 8005dd8:	683b      	ldr	r3, [r7, #0]
 8005dda:	681b      	ldr	r3, [r3, #0]
 8005ddc:	021b      	lsls	r3, r3, #8
 8005dde:	68fa      	ldr	r2, [r7, #12]
 8005de0:	4313      	orrs	r3, r2
 8005de2:	60fb      	str	r3, [r7, #12]

  /* Reset the Output Polarity level */
  tmpccer &= ~TIM_CCER_CC4P;
 8005de4:	693b      	ldr	r3, [r7, #16]
 8005de6:	f423 5300 	bic.w	r3, r3, #8192	@ 0x2000
 8005dea:	613b      	str	r3, [r7, #16]
  /* Set the Output Compare Polarity */
  tmpccer |= (OC_Config->OCPolarity << 12U);
 8005dec:	683b      	ldr	r3, [r7, #0]
 8005dee:	689b      	ldr	r3, [r3, #8]
 8005df0:	031b      	lsls	r3, r3, #12
 8005df2:	693a      	ldr	r2, [r7, #16]
 8005df4:	4313      	orrs	r3, r2
 8005df6:	613b      	str	r3, [r7, #16]

  if (IS_TIM_BREAK_INSTANCE(TIMx))
 8005df8:	687b      	ldr	r3, [r7, #4]
 8005dfa:	4a0f      	ldr	r2, [pc, #60]	@ (8005e38 <TIM_OC4_SetConfig+0x98>)
 8005dfc:	4293      	cmp	r3, r2
 8005dfe:	d109      	bne.n	8005e14 <TIM_OC4_SetConfig+0x74>
  {
    /* Check parameters */
    assert_param(IS_TIM_OCIDLE_STATE(OC_Config->OCIdleState));

    /* Reset the Output Compare IDLE State */
    tmpcr2 &= ~TIM_CR2_OIS4;
 8005e00:	697b      	ldr	r3, [r7, #20]
 8005e02:	f423 4380 	bic.w	r3, r3, #16384	@ 0x4000
 8005e06:	617b      	str	r3, [r7, #20]

    /* Set the Output Idle state */
    tmpcr2 |= (OC_Config->OCIdleState << 6U);
 8005e08:	683b      	ldr	r3, [r7, #0]
 8005e0a:	695b      	ldr	r3, [r3, #20]
 8005e0c:	019b      	lsls	r3, r3, #6
 8005e0e:	697a      	ldr	r2, [r7, #20]
 8005e10:	4313      	orrs	r3, r2
 8005e12:	617b      	str	r3, [r7, #20]
  }

  /* Write to TIMx CR2 */
  TIMx->CR2 = tmpcr2;
 8005e14:	687b      	ldr	r3, [r7, #4]
 8005e16:	697a      	ldr	r2, [r7, #20]
 8005e18:	605a      	str	r2, [r3, #4]

  /* Write to TIMx CCMR2 */
  TIMx->CCMR2 = tmpccmrx;
 8005e1a:	687b      	ldr	r3, [r7, #4]
 8005e1c:	68fa      	ldr	r2, [r7, #12]
 8005e1e:	61da      	str	r2, [r3, #28]

  /* Set the Capture Compare Register value */
  TIMx->CCR4 = OC_Config->Pulse;
 8005e20:	683b      	ldr	r3, [r7, #0]
 8005e22:	685a      	ldr	r2, [r3, #4]
 8005e24:	687b      	ldr	r3, [r7, #4]
 8005e26:	641a      	str	r2, [r3, #64]	@ 0x40

  /* Write to TIMx CCER */
  TIMx->CCER = tmpccer;
 8005e28:	687b      	ldr	r3, [r7, #4]
 8005e2a:	693a      	ldr	r2, [r7, #16]
 8005e2c:	621a      	str	r2, [r3, #32]
}
 8005e2e:	bf00      	nop
 8005e30:	371c      	adds	r7, #28
 8005e32:	46bd      	mov	sp, r7
 8005e34:	bc80      	pop	{r7}
 8005e36:	4770      	bx	lr
 8005e38:	40012c00 	.word	0x40012c00

08005e3c <TIM_TI1_ConfigInputStage>:
  * @param  TIM_ICFilter Specifies the Input Capture Filter.
  *          This parameter must be a value between 0x00 and 0x0F.
  * @retval None
  */
static void TIM_TI1_ConfigInputStage(TIM_TypeDef *TIMx, uint32_t TIM_ICPolarity, uint32_t TIM_ICFilter)
{
 8005e3c:	b480      	push	{r7}
 8005e3e:	b087      	sub	sp, #28
 8005e40:	af00      	add	r7, sp, #0
 8005e42:	60f8      	str	r0, [r7, #12]
 8005e44:	60b9      	str	r1, [r7, #8]
 8005e46:	607a      	str	r2, [r7, #4]
  uint32_t tmpccmr1;
  uint32_t tmpccer;

  /* Disable the Channel 1: Reset the CC1E Bit */
  tmpccer = TIMx->CCER;
 8005e48:	68fb      	ldr	r3, [r7, #12]
 8005e4a:	6a1b      	ldr	r3, [r3, #32]
 8005e4c:	617b      	str	r3, [r7, #20]
  TIMx->CCER &= ~TIM_CCER_CC1E;
 8005e4e:	68fb      	ldr	r3, [r7, #12]
 8005e50:	6a1b      	ldr	r3, [r3, #32]
 8005e52:	f023 0201 	bic.w	r2, r3, #1
 8005e56:	68fb      	ldr	r3, [r7, #12]
 8005e58:	621a      	str	r2, [r3, #32]
  tmpccmr1 = TIMx->CCMR1;
 8005e5a:	68fb      	ldr	r3, [r7, #12]
 8005e5c:	699b      	ldr	r3, [r3, #24]
 8005e5e:	613b      	str	r3, [r7, #16]

  /* Set the filter */
  tmpccmr1 &= ~TIM_CCMR1_IC1F;
 8005e60:	693b      	ldr	r3, [r7, #16]
 8005e62:	f023 03f0 	bic.w	r3, r3, #240	@ 0xf0
 8005e66:	613b      	str	r3, [r7, #16]
  tmpccmr1 |= (TIM_ICFilter << 4U);
 8005e68:	687b      	ldr	r3, [r7, #4]
 8005e6a:	011b      	lsls	r3, r3, #4
 8005e6c:	693a      	ldr	r2, [r7, #16]
 8005e6e:	4313      	orrs	r3, r2
 8005e70:	613b      	str	r3, [r7, #16]

  /* Select the Polarity and set the CC1E Bit */
  tmpccer &= ~(TIM_CCER_CC1P | TIM_CCER_CC1NP);
 8005e72:	697b      	ldr	r3, [r7, #20]
 8005e74:	f023 030a 	bic.w	r3, r3, #10
 8005e78:	617b      	str	r3, [r7, #20]
  tmpccer |= TIM_ICPolarity;
 8005e7a:	697a      	ldr	r2, [r7, #20]
 8005e7c:	68bb      	ldr	r3, [r7, #8]
 8005e7e:	4313      	orrs	r3, r2
 8005e80:	617b      	str	r3, [r7, #20]

  /* Write to TIMx CCMR1 and CCER registers */
  TIMx->CCMR1 = tmpccmr1;
 8005e82:	68fb      	ldr	r3, [r7, #12]
 8005e84:	693a      	ldr	r2, [r7, #16]
 8005e86:	619a      	str	r2, [r3, #24]
  TIMx->CCER = tmpccer;
 8005e88:	68fb      	ldr	r3, [r7, #12]
 8005e8a:	697a      	ldr	r2, [r7, #20]
 8005e8c:	621a      	str	r2, [r3, #32]
}
 8005e8e:	bf00      	nop
 8005e90:	371c      	adds	r7, #28
 8005e92:	46bd      	mov	sp, r7
 8005e94:	bc80      	pop	{r7}
 8005e96:	4770      	bx	lr

08005e98 <TIM_TI2_ConfigInputStage>:
  * @param  TIM_ICFilter Specifies the Input Capture Filter.
  *          This parameter must be a value between 0x00 and 0x0F.
  * @retval None
  */
static void TIM_TI2_ConfigInputStage(TIM_TypeDef *TIMx, uint32_t TIM_ICPolarity, uint32_t TIM_ICFilter)
{
 8005e98:	b480      	push	{r7}
 8005e9a:	b087      	sub	sp, #28
 8005e9c:	af00      	add	r7, sp, #0
 8005e9e:	60f8      	str	r0, [r7, #12]
 8005ea0:	60b9      	str	r1, [r7, #8]
 8005ea2:	607a      	str	r2, [r7, #4]
  uint32_t tmpccmr1;
  uint32_t tmpccer;

  /* Disable the Channel 2: Reset the CC2E Bit */
  tmpccer = TIMx->CCER;
 8005ea4:	68fb      	ldr	r3, [r7, #12]
 8005ea6:	6a1b      	ldr	r3, [r3, #32]
 8005ea8:	617b      	str	r3, [r7, #20]
  TIMx->CCER &= ~TIM_CCER_CC2E;
 8005eaa:	68fb      	ldr	r3, [r7, #12]
 8005eac:	6a1b      	ldr	r3, [r3, #32]
 8005eae:	f023 0210 	bic.w	r2, r3, #16
 8005eb2:	68fb      	ldr	r3, [r7, #12]
 8005eb4:	621a      	str	r2, [r3, #32]
  tmpccmr1 = TIMx->CCMR1;
 8005eb6:	68fb      	ldr	r3, [r7, #12]
 8005eb8:	699b      	ldr	r3, [r3, #24]
 8005eba:	613b      	str	r3, [r7, #16]

  /* Set the filter */
  tmpccmr1 &= ~TIM_CCMR1_IC2F;
 8005ebc:	693b      	ldr	r3, [r7, #16]
 8005ebe:	f423 4370 	bic.w	r3, r3, #61440	@ 0xf000
 8005ec2:	613b      	str	r3, [r7, #16]
  tmpccmr1 |= (TIM_ICFilter << 12U);
 8005ec4:	687b      	ldr	r3, [r7, #4]
 8005ec6:	031b      	lsls	r3, r3, #12
 8005ec8:	693a      	ldr	r2, [r7, #16]
 8005eca:	4313      	orrs	r3, r2
 8005ecc:	613b      	str	r3, [r7, #16]

  /* Select the Polarity and set the CC2E Bit */
  tmpccer &= ~(TIM_CCER_CC2P | TIM_CCER_CC2NP);
 8005ece:	697b      	ldr	r3, [r7, #20]
 8005ed0:	f023 03a0 	bic.w	r3, r3, #160	@ 0xa0
 8005ed4:	617b      	str	r3, [r7, #20]
  tmpccer |= (TIM_ICPolarity << 4U);
 8005ed6:	68bb      	ldr	r3, [r7, #8]
 8005ed8:	011b      	lsls	r3, r3, #4
 8005eda:	697a      	ldr	r2, [r7, #20]
 8005edc:	4313      	orrs	r3, r2
 8005ede:	617b      	str	r3, [r7, #20]

  /* Write to TIMx CCMR1 and CCER registers */
  TIMx->CCMR1 = tmpccmr1 ;
 8005ee0:	68fb      	ldr	r3, [r7, #12]
 8005ee2:	693a      	ldr	r2, [r7, #16]
 8005ee4:	619a      	str	r2, [r3, #24]
  TIMx->CCER = tmpccer;
 8005ee6:	68fb      	ldr	r3, [r7, #12]
 8005ee8:	697a      	ldr	r2, [r7, #20]
 8005eea:	621a      	str	r2, [r3, #32]
}
 8005eec:	bf00      	nop
 8005eee:	371c      	adds	r7, #28
 8005ef0:	46bd      	mov	sp, r7
 8005ef2:	bc80      	pop	{r7}
 8005ef4:	4770      	bx	lr

08005ef6 <TIM_ITRx_SetConfig>:
  *            @arg TIM_TS_TI2FP2: Filtered Timer Input 2
  *            @arg TIM_TS_ETRF: External Trigger input
  * @retval None
  */
static void TIM_ITRx_SetConfig(TIM_TypeDef *TIMx, uint32_t InputTriggerSource)
{
 8005ef6:	b480      	push	{r7}
 8005ef8:	b085      	sub	sp, #20
 8005efa:	af00      	add	r7, sp, #0
 8005efc:	6078      	str	r0, [r7, #4]
 8005efe:	6039      	str	r1, [r7, #0]
  uint32_t tmpsmcr;

  /* Get the TIMx SMCR register value */
  tmpsmcr = TIMx->SMCR;
 8005f00:	687b      	ldr	r3, [r7, #4]
 8005f02:	689b      	ldr	r3, [r3, #8]
 8005f04:	60fb      	str	r3, [r7, #12]
  /* Reset the TS Bits */
  tmpsmcr &= ~TIM_SMCR_TS;
 8005f06:	68fb      	ldr	r3, [r7, #12]
 8005f08:	f023 0370 	bic.w	r3, r3, #112	@ 0x70
 8005f0c:	60fb      	str	r3, [r7, #12]
  /* Set the Input Trigger source and the slave mode*/
  tmpsmcr |= (InputTriggerSource | TIM_SLAVEMODE_EXTERNAL1);
 8005f0e:	683a      	ldr	r2, [r7, #0]
 8005f10:	68fb      	ldr	r3, [r7, #12]
 8005f12:	4313      	orrs	r3, r2
 8005f14:	f043 0307 	orr.w	r3, r3, #7
 8005f18:	60fb      	str	r3, [r7, #12]
  /* Write to TIMx SMCR */
  TIMx->SMCR = tmpsmcr;
 8005f1a:	687b      	ldr	r3, [r7, #4]
 8005f1c:	68fa      	ldr	r2, [r7, #12]
 8005f1e:	609a      	str	r2, [r3, #8]
}
 8005f20:	bf00      	nop
 8005f22:	3714      	adds	r7, #20
 8005f24:	46bd      	mov	sp, r7
 8005f26:	bc80      	pop	{r7}
 8005f28:	4770      	bx	lr

08005f2a <TIM_ETR_SetConfig>:
  *          This parameter must be a value between 0x00 and 0x0F
  * @retval None
  */
void TIM_ETR_SetConfig(TIM_TypeDef *TIMx, uint32_t TIM_ExtTRGPrescaler,
                       uint32_t TIM_ExtTRGPolarity, uint32_t ExtTRGFilter)
{
 8005f2a:	b480      	push	{r7}
 8005f2c:	b087      	sub	sp, #28
 8005f2e:	af00      	add	r7, sp, #0
 8005f30:	60f8      	str	r0, [r7, #12]
 8005f32:	60b9      	str	r1, [r7, #8]
 8005f34:	607a      	str	r2, [r7, #4]
 8005f36:	603b      	str	r3, [r7, #0]
  uint32_t tmpsmcr;

  tmpsmcr = TIMx->SMCR;
 8005f38:	68fb      	ldr	r3, [r7, #12]
 8005f3a:	689b      	ldr	r3, [r3, #8]
 8005f3c:	617b      	str	r3, [r7, #20]

  /* Reset the ETR Bits */
  tmpsmcr &= ~(TIM_SMCR_ETF | TIM_SMCR_ETPS | TIM_SMCR_ECE | TIM_SMCR_ETP);
 8005f3e:	697b      	ldr	r3, [r7, #20]
 8005f40:	f423 437f 	bic.w	r3, r3, #65280	@ 0xff00
 8005f44:	617b      	str	r3, [r7, #20]

  /* Set the Prescaler, the Filter value and the Polarity */
  tmpsmcr |= (uint32_t)(TIM_ExtTRGPrescaler | (TIM_ExtTRGPolarity | (ExtTRGFilter << 8U)));
 8005f46:	683b      	ldr	r3, [r7, #0]
 8005f48:	021a      	lsls	r2, r3, #8
 8005f4a:	687b      	ldr	r3, [r7, #4]
 8005f4c:	431a      	orrs	r2, r3
 8005f4e:	68bb      	ldr	r3, [r7, #8]
 8005f50:	4313      	orrs	r3, r2
 8005f52:	697a      	ldr	r2, [r7, #20]
 8005f54:	4313      	orrs	r3, r2
 8005f56:	617b      	str	r3, [r7, #20]

  /* Write to TIMx SMCR */
  TIMx->SMCR = tmpsmcr;
 8005f58:	68fb      	ldr	r3, [r7, #12]
 8005f5a:	697a      	ldr	r2, [r7, #20]
 8005f5c:	609a      	str	r2, [r3, #8]
}
 8005f5e:	bf00      	nop
 8005f60:	371c      	adds	r7, #28
 8005f62:	46bd      	mov	sp, r7
 8005f64:	bc80      	pop	{r7}
 8005f66:	4770      	bx	lr

08005f68 <TIM_CCxChannelCmd>:
  * @param  ChannelState specifies the TIM Channel CCxE bit new state.
  *          This parameter can be: TIM_CCx_ENABLE or TIM_CCx_DISABLE.
  * @retval None
  */
void TIM_CCxChannelCmd(TIM_TypeDef *TIMx, uint32_t Channel, uint32_t ChannelState)
{
 8005f68:	b480      	push	{r7}
 8005f6a:	b087      	sub	sp, #28
 8005f6c:	af00      	add	r7, sp, #0
 8005f6e:	60f8      	str	r0, [r7, #12]
 8005f70:	60b9      	str	r1, [r7, #8]
 8005f72:	607a      	str	r2, [r7, #4]

  /* Check the parameters */
  assert_param(IS_TIM_CC1_INSTANCE(TIMx));
  assert_param(IS_TIM_CHANNELS(Channel));

  tmp = TIM_CCER_CC1E << (Channel & 0x1FU); /* 0x1FU = 31 bits max shift */
 8005f74:	68bb      	ldr	r3, [r7, #8]
 8005f76:	f003 031f 	and.w	r3, r3, #31
 8005f7a:	2201      	movs	r2, #1
 8005f7c:	fa02 f303 	lsl.w	r3, r2, r3
 8005f80:	617b      	str	r3, [r7, #20]

  /* Reset the CCxE Bit */
  TIMx->CCER &= ~tmp;
 8005f82:	68fb      	ldr	r3, [r7, #12]
 8005f84:	6a1a      	ldr	r2, [r3, #32]
 8005f86:	697b      	ldr	r3, [r7, #20]
 8005f88:	43db      	mvns	r3, r3
 8005f8a:	401a      	ands	r2, r3
 8005f8c:	68fb      	ldr	r3, [r7, #12]
 8005f8e:	621a      	str	r2, [r3, #32]

  /* Set or reset the CCxE Bit */
  TIMx->CCER |= (uint32_t)(ChannelState << (Channel & 0x1FU)); /* 0x1FU = 31 bits max shift */
 8005f90:	68fb      	ldr	r3, [r7, #12]
 8005f92:	6a1a      	ldr	r2, [r3, #32]
 8005f94:	68bb      	ldr	r3, [r7, #8]
 8005f96:	f003 031f 	and.w	r3, r3, #31
 8005f9a:	6879      	ldr	r1, [r7, #4]
 8005f9c:	fa01 f303 	lsl.w	r3, r1, r3
 8005fa0:	431a      	orrs	r2, r3
 8005fa2:	68fb      	ldr	r3, [r7, #12]
 8005fa4:	621a      	str	r2, [r3, #32]
}
 8005fa6:	bf00      	nop
 8005fa8:	371c      	adds	r7, #28
 8005faa:	46bd      	mov	sp, r7
 8005fac:	bc80      	pop	{r7}
 8005fae:	4770      	bx	lr

08005fb0 <HAL_TIMEx_MasterConfigSynchronization>:
  *         mode.
  * @retval HAL status
  */
HAL_StatusTypeDef HAL_TIMEx_MasterConfigSynchronization(TIM_HandleTypeDef *htim,
                                                        const TIM_MasterConfigTypeDef *sMasterConfig)
{
 8005fb0:	b480      	push	{r7}
 8005fb2:	b085      	sub	sp, #20
 8005fb4:	af00      	add	r7, sp, #0
 8005fb6:	6078      	str	r0, [r7, #4]
 8005fb8:	6039      	str	r1, [r7, #0]
  assert_param(IS_TIM_MASTER_INSTANCE(htim->Instance));
  assert_param(IS_TIM_TRGO_SOURCE(sMasterConfig->MasterOutputTrigger));
  assert_param(IS_TIM_MSM_STATE(sMasterConfig->MasterSlaveMode));

  /* Check input state */
  __HAL_LOCK(htim);
 8005fba:	687b      	ldr	r3, [r7, #4]
 8005fbc:	f893 303c 	ldrb.w	r3, [r3, #60]	@ 0x3c
 8005fc0:	2b01      	cmp	r3, #1
 8005fc2:	d101      	bne.n	8005fc8 <HAL_TIMEx_MasterConfigSynchronization+0x18>
 8005fc4:	2302      	movs	r3, #2
 8005fc6:	e046      	b.n	8006056 <HAL_TIMEx_MasterConfigSynchronization+0xa6>
 8005fc8:	687b      	ldr	r3, [r7, #4]
 8005fca:	2201      	movs	r2, #1
 8005fcc:	f883 203c 	strb.w	r2, [r3, #60]	@ 0x3c

  /* Change the handler state */
  htim->State = HAL_TIM_STATE_BUSY;
 8005fd0:	687b      	ldr	r3, [r7, #4]
 8005fd2:	2202      	movs	r2, #2
 8005fd4:	f883 203d 	strb.w	r2, [r3, #61]	@ 0x3d

  /* Get the TIMx CR2 register value */
  tmpcr2 = htim->Instance->CR2;
 8005fd8:	687b      	ldr	r3, [r7, #4]
 8005fda:	681b      	ldr	r3, [r3, #0]
 8005fdc:	685b      	ldr	r3, [r3, #4]
 8005fde:	60fb      	str	r3, [r7, #12]

  /* Get the TIMx SMCR register value */
  tmpsmcr = htim->Instance->SMCR;
 8005fe0:	687b      	ldr	r3, [r7, #4]
 8005fe2:	681b      	ldr	r3, [r3, #0]
 8005fe4:	689b      	ldr	r3, [r3, #8]
 8005fe6:	60bb      	str	r3, [r7, #8]

  /* Reset the MMS Bits */
  tmpcr2 &= ~TIM_CR2_MMS;
 8005fe8:	68fb      	ldr	r3, [r7, #12]
 8005fea:	f023 0370 	bic.w	r3, r3, #112	@ 0x70
 8005fee:	60fb      	str	r3, [r7, #12]
  /* Select the TRGO source */
  tmpcr2 |=  sMasterConfig->MasterOutputTrigger;
 8005ff0:	683b      	ldr	r3, [r7, #0]
 8005ff2:	681b      	ldr	r3, [r3, #0]
 8005ff4:	68fa      	ldr	r2, [r7, #12]
 8005ff6:	4313      	orrs	r3, r2
 8005ff8:	60fb      	str	r3, [r7, #12]

  /* Update TIMx CR2 */
  htim->Instance->CR2 = tmpcr2;
 8005ffa:	687b      	ldr	r3, [r7, #4]
 8005ffc:	681b      	ldr	r3, [r3, #0]
 8005ffe:	68fa      	ldr	r2, [r7, #12]
 8006000:	605a      	str	r2, [r3, #4]

  if (IS_TIM_SLAVE_INSTANCE(htim->Instance))
 8006002:	687b      	ldr	r3, [r7, #4]
 8006004:	681b      	ldr	r3, [r3, #0]
 8006006:	4a16      	ldr	r2, [pc, #88]	@ (8006060 <HAL_TIMEx_MasterConfigSynchronization+0xb0>)
 8006008:	4293      	cmp	r3, r2
 800600a:	d00e      	beq.n	800602a <HAL_TIMEx_MasterConfigSynchronization+0x7a>
 800600c:	687b      	ldr	r3, [r7, #4]
 800600e:	681b      	ldr	r3, [r3, #0]
 8006010:	f1b3 4f80 	cmp.w	r3, #1073741824	@ 0x40000000
 8006014:	d009      	beq.n	800602a <HAL_TIMEx_MasterConfigSynchronization+0x7a>
 8006016:	687b      	ldr	r3, [r7, #4]
 8006018:	681b      	ldr	r3, [r3, #0]
 800601a:	4a12      	ldr	r2, [pc, #72]	@ (8006064 <HAL_TIMEx_MasterConfigSynchronization+0xb4>)
 800601c:	4293      	cmp	r3, r2
 800601e:	d004      	beq.n	800602a <HAL_TIMEx_MasterConfigSynchronization+0x7a>
 8006020:	687b      	ldr	r3, [r7, #4]
 8006022:	681b      	ldr	r3, [r3, #0]
 8006024:	4a10      	ldr	r2, [pc, #64]	@ (8006068 <HAL_TIMEx_MasterConfigSynchronization+0xb8>)
 8006026:	4293      	cmp	r3, r2
 8006028:	d10c      	bne.n	8006044 <HAL_TIMEx_MasterConfigSynchronization+0x94>
  {
    /* Reset the MSM Bit */
    tmpsmcr &= ~TIM_SMCR_MSM;
 800602a:	68bb      	ldr	r3, [r7, #8]
 800602c:	f023 0380 	bic.w	r3, r3, #128	@ 0x80
 8006030:	60bb      	str	r3, [r7, #8]
    /* Set master mode */
    tmpsmcr |= sMasterConfig->MasterSlaveMode;
 8006032:	683b      	ldr	r3, [r7, #0]
 8006034:	685b      	ldr	r3, [r3, #4]
 8006036:	68ba      	ldr	r2, [r7, #8]
 8006038:	4313      	orrs	r3, r2
 800603a:	60bb      	str	r3, [r7, #8]

    /* Update TIMx SMCR */
    htim->Instance->SMCR = tmpsmcr;
 800603c:	687b      	ldr	r3, [r7, #4]
 800603e:	681b      	ldr	r3, [r3, #0]
 8006040:	68ba      	ldr	r2, [r7, #8]
 8006042:	609a      	str	r2, [r3, #8]
  }

  /* Change the htim state */
  htim->State = HAL_TIM_STATE_READY;
 8006044:	687b      	ldr	r3, [r7, #4]
 8006046:	2201      	movs	r2, #1
 8006048:	f883 203d 	strb.w	r2, [r3, #61]	@ 0x3d

  __HAL_UNLOCK(htim);
 800604c:	687b      	ldr	r3, [r7, #4]
 800604e:	2200      	movs	r2, #0
 8006050:	f883 203c 	strb.w	r2, [r3, #60]	@ 0x3c

  return HAL_OK;
 8006054:	2300      	movs	r3, #0
}
 8006056:	4618      	mov	r0, r3
 8006058:	3714      	adds	r7, #20
 800605a:	46bd      	mov	sp, r7
 800605c:	bc80      	pop	{r7}
 800605e:	4770      	bx	lr
 8006060:	40012c00 	.word	0x40012c00
 8006064:	40000400 	.word	0x40000400
 8006068:	40000800 	.word	0x40000800

0800606c <HAL_TIMEx_CommutCallback>:
  * @brief  Commutation callback in non-blocking mode
  * @param  htim TIM handle
  * @retval None
  */
__weak void HAL_TIMEx_CommutCallback(TIM_HandleTypeDef *htim)
{
 800606c:	b480      	push	{r7}
 800606e:	b083      	sub	sp, #12
 8006070:	af00      	add	r7, sp, #0
 8006072:	6078      	str	r0, [r7, #4]
  UNUSED(htim);

  /* NOTE : This function should not be modified, when the callback is needed,
            the HAL_TIMEx_CommutCallback could be implemented in the user file
   */
}
 8006074:	bf00      	nop
 8006076:	370c      	adds	r7, #12
 8006078:	46bd      	mov	sp, r7
 800607a:	bc80      	pop	{r7}
 800607c:	4770      	bx	lr

0800607e <HAL_TIMEx_BreakCallback>:
  * @brief  Break detection callback in non-blocking mode
  * @param  htim TIM handle
  * @retval None
  */
__weak void HAL_TIMEx_BreakCallback(TIM_HandleTypeDef *htim)
{
 800607e:	b480      	push	{r7}
 8006080:	b083      	sub	sp, #12
 8006082:	af00      	add	r7, sp, #0
 8006084:	6078      	str	r0, [r7, #4]
  UNUSED(htim);

  /* NOTE : This function should not be modified, when the callback is needed,
            the HAL_TIMEx_BreakCallback could be implemented in the user file
   */
}
 8006086:	bf00      	nop
 8006088:	370c      	adds	r7, #12
 800608a:	46bd      	mov	sp, r7
 800608c:	bc80      	pop	{r7}
 800608e:	4770      	bx	lr

08006090 <HAL_UART_Init>:
  * @param  huart  Pointer to a UART_HandleTypeDef structure that contains
  *                the configuration information for the specified UART module.
  * @retval HAL status
  */
HAL_StatusTypeDef HAL_UART_Init(UART_HandleTypeDef *huart)
{
 8006090:	b580      	push	{r7, lr}
 8006092:	b082      	sub	sp, #8
 8006094:	af00      	add	r7, sp, #0
 8006096:	6078      	str	r0, [r7, #4]
  /* Check the UART handle allocation */
  if (huart == NULL)
 8006098:	687b      	ldr	r3, [r7, #4]
 800609a:	2b00      	cmp	r3, #0
 800609c:	d101      	bne.n	80060a2 <HAL_UART_Init+0x12>
  {
    return HAL_ERROR;
 800609e:	2301      	movs	r3, #1
 80060a0:	e042      	b.n	8006128 <HAL_UART_Init+0x98>
  assert_param(IS_UART_WORD_LENGTH(huart->Init.WordLength));
#if defined(USART_CR1_OVER8)
  assert_param(IS_UART_OVERSAMPLING(huart->Init.OverSampling));
#endif /* USART_CR1_OVER8 */

  if (huart->gState == HAL_UART_STATE_RESET)
 80060a2:	687b      	ldr	r3, [r7, #4]
 80060a4:	f893 3041 	ldrb.w	r3, [r3, #65]	@ 0x41
 80060a8:	b2db      	uxtb	r3, r3
 80060aa:	2b00      	cmp	r3, #0
 80060ac:	d106      	bne.n	80060bc <HAL_UART_Init+0x2c>
  {
    /* Allocate lock resource and initialize it */
    huart->Lock = HAL_UNLOCKED;
 80060ae:	687b      	ldr	r3, [r7, #4]
 80060b0:	2200      	movs	r2, #0
 80060b2:	f883 2040 	strb.w	r2, [r3, #64]	@ 0x40

    /* Init the low level hardware */
    huart->MspInitCallback(huart);
#else
    /* Init the low level hardware : GPIO, CLOCK */
    HAL_UART_MspInit(huart);
 80060b6:	6878      	ldr	r0, [r7, #4]
 80060b8:	f7fc fd92 	bl	8002be0 <HAL_UART_MspInit>
#endif /* (USE_HAL_UART_REGISTER_CALLBACKS) */
  }

  huart->gState = HAL_UART_STATE_BUSY;
 80060bc:	687b      	ldr	r3, [r7, #4]
 80060be:	2224      	movs	r2, #36	@ 0x24
 80060c0:	f883 2041 	strb.w	r2, [r3, #65]	@ 0x41

  /* Disable the peripheral */
  __HAL_UART_DISABLE(huart);
 80060c4:	687b      	ldr	r3, [r7, #4]
 80060c6:	681b      	ldr	r3, [r3, #0]
 80060c8:	68da      	ldr	r2, [r3, #12]
 80060ca:	687b      	ldr	r3, [r7, #4]
 80060cc:	681b      	ldr	r3, [r3, #0]
 80060ce:	f422 5200 	bic.w	r2, r2, #8192	@ 0x2000
 80060d2:	60da      	str	r2, [r3, #12]

  /* Set the UART Communication parameters */
  UART_SetConfig(huart);
 80060d4:	6878      	ldr	r0, [r7, #4]
 80060d6:	f000 fdb7 	bl	8006c48 <UART_SetConfig>

  /* In asynchronous mode, the following bits must be kept cleared:
     - LINEN and CLKEN bits in the USART_CR2 register,
     - SCEN, HDSEL and IREN  bits in the USART_CR3 register.*/
  CLEAR_BIT(huart->Instance->CR2, (USART_CR2_LINEN | USART_CR2_CLKEN));
 80060da:	687b      	ldr	r3, [r7, #4]
 80060dc:	681b      	ldr	r3, [r3, #0]
 80060de:	691a      	ldr	r2, [r3, #16]
 80060e0:	687b      	ldr	r3, [r7, #4]
 80060e2:	681b      	ldr	r3, [r3, #0]
 80060e4:	f422 4290 	bic.w	r2, r2, #18432	@ 0x4800
 80060e8:	611a      	str	r2, [r3, #16]
  CLEAR_BIT(huart->Instance->CR3, (USART_CR3_SCEN | USART_CR3_HDSEL | USART_CR3_IREN));
 80060ea:	687b      	ldr	r3, [r7, #4]
 80060ec:	681b      	ldr	r3, [r3, #0]
 80060ee:	695a      	ldr	r2, [r3, #20]
 80060f0:	687b      	ldr	r3, [r7, #4]
 80060f2:	681b      	ldr	r3, [r3, #0]
 80060f4:	f022 022a 	bic.w	r2, r2, #42	@ 0x2a
 80060f8:	615a      	str	r2, [r3, #20]

  /* Enable the peripheral */
  __HAL_UART_ENABLE(huart);
 80060fa:	687b      	ldr	r3, [r7, #4]
 80060fc:	681b      	ldr	r3, [r3, #0]
 80060fe:	68da      	ldr	r2, [r3, #12]
 8006100:	687b      	ldr	r3, [r7, #4]
 8006102:	681b      	ldr	r3, [r3, #0]
 8006104:	f442 5200 	orr.w	r2, r2, #8192	@ 0x2000
 8006108:	60da      	str	r2, [r3, #12]

  /* Initialize the UART state */
  huart->ErrorCode = HAL_UART_ERROR_NONE;
 800610a:	687b      	ldr	r3, [r7, #4]
 800610c:	2200      	movs	r2, #0
 800610e:	645a      	str	r2, [r3, #68]	@ 0x44
  huart->gState = HAL_UART_STATE_READY;
 8006110:	687b      	ldr	r3, [r7, #4]
 8006112:	2220      	movs	r2, #32
 8006114:	f883 2041 	strb.w	r2, [r3, #65]	@ 0x41
  huart->RxState = HAL_UART_STATE_READY;
 8006118:	687b      	ldr	r3, [r7, #4]
 800611a:	2220      	movs	r2, #32
 800611c:	f883 2042 	strb.w	r2, [r3, #66]	@ 0x42
  huart->RxEventType = HAL_UART_RXEVENT_TC;
 8006120:	687b      	ldr	r3, [r7, #4]
 8006122:	2200      	movs	r2, #0
 8006124:	635a      	str	r2, [r3, #52]	@ 0x34

  return HAL_OK;
 8006126:	2300      	movs	r3, #0
}
 8006128:	4618      	mov	r0, r3
 800612a:	3708      	adds	r7, #8
 800612c:	46bd      	mov	sp, r7
 800612e:	bd80      	pop	{r7, pc}

08006130 <HAL_UART_Transmit>:
  * @param  Size  Amount of data elements (u8 or u16) to be sent
  * @param  Timeout Timeout duration
  * @retval HAL status
  */
HAL_StatusTypeDef HAL_UART_Transmit(UART_HandleTypeDef *huart, const uint8_t *pData, uint16_t Size, uint32_t Timeout)
{
 8006130:	b580      	push	{r7, lr}
 8006132:	b08a      	sub	sp, #40	@ 0x28
 8006134:	af02      	add	r7, sp, #8
 8006136:	60f8      	str	r0, [r7, #12]
 8006138:	60b9      	str	r1, [r7, #8]
 800613a:	603b      	str	r3, [r7, #0]
 800613c:	4613      	mov	r3, r2
 800613e:	80fb      	strh	r3, [r7, #6]
  const uint8_t  *pdata8bits;
  const uint16_t *pdata16bits;
  uint32_t tickstart = 0U;
 8006140:	2300      	movs	r3, #0
 8006142:	617b      	str	r3, [r7, #20]

  /* Check that a Tx process is not already ongoing */
  if (huart->gState == HAL_UART_STATE_READY)
 8006144:	68fb      	ldr	r3, [r7, #12]
 8006146:	f893 3041 	ldrb.w	r3, [r3, #65]	@ 0x41
 800614a:	b2db      	uxtb	r3, r3
 800614c:	2b20      	cmp	r3, #32
 800614e:	d175      	bne.n	800623c <HAL_UART_Transmit+0x10c>
  {
    if ((pData == NULL) || (Size == 0U))
 8006150:	68bb      	ldr	r3, [r7, #8]
 8006152:	2b00      	cmp	r3, #0
 8006154:	d002      	beq.n	800615c <HAL_UART_Transmit+0x2c>
 8006156:	88fb      	ldrh	r3, [r7, #6]
 8006158:	2b00      	cmp	r3, #0
 800615a:	d101      	bne.n	8006160 <HAL_UART_Transmit+0x30>
    {
      return  HAL_ERROR;
 800615c:	2301      	movs	r3, #1
 800615e:	e06e      	b.n	800623e <HAL_UART_Transmit+0x10e>
    }

    huart->ErrorCode = HAL_UART_ERROR_NONE;
 8006160:	68fb      	ldr	r3, [r7, #12]
 8006162:	2200      	movs	r2, #0
 8006164:	645a      	str	r2, [r3, #68]	@ 0x44
    huart->gState = HAL_UART_STATE_BUSY_TX;
 8006166:	68fb      	ldr	r3, [r7, #12]
 8006168:	2221      	movs	r2, #33	@ 0x21
 800616a:	f883 2041 	strb.w	r2, [r3, #65]	@ 0x41

    /* Init tickstart for timeout management */
    tickstart = HAL_GetTick();
 800616e:	f7fd fc3d 	bl	80039ec <HAL_GetTick>
 8006172:	6178      	str	r0, [r7, #20]

    huart->TxXferSize = Size;
 8006174:	68fb      	ldr	r3, [r7, #12]
 8006176:	88fa      	ldrh	r2, [r7, #6]
 8006178:	849a      	strh	r2, [r3, #36]	@ 0x24
    huart->TxXferCount = Size;
 800617a:	68fb      	ldr	r3, [r7, #12]
 800617c:	88fa      	ldrh	r2, [r7, #6]
 800617e:	84da      	strh	r2, [r3, #38]	@ 0x26

    /* In case of 9bits/No Parity transfer, pData needs to be handled as a uint16_t pointer */
    if ((huart->Init.WordLength == UART_WORDLENGTH_9B) && (huart->Init.Parity == UART_PARITY_NONE))
 8006180:	68fb      	ldr	r3, [r7, #12]
 8006182:	689b      	ldr	r3, [r3, #8]
 8006184:	f5b3 5f80 	cmp.w	r3, #4096	@ 0x1000
 8006188:	d108      	bne.n	800619c <HAL_UART_Transmit+0x6c>
 800618a:	68fb      	ldr	r3, [r7, #12]
 800618c:	691b      	ldr	r3, [r3, #16]
 800618e:	2b00      	cmp	r3, #0
 8006190:	d104      	bne.n	800619c <HAL_UART_Transmit+0x6c>
    {
      pdata8bits  = NULL;
 8006192:	2300      	movs	r3, #0
 8006194:	61fb      	str	r3, [r7, #28]
      pdata16bits = (const uint16_t *) pData;
 8006196:	68bb      	ldr	r3, [r7, #8]
 8006198:	61bb      	str	r3, [r7, #24]
 800619a:	e003      	b.n	80061a4 <HAL_UART_Transmit+0x74>
    }
    else
    {
      pdata8bits  = pData;
 800619c:	68bb      	ldr	r3, [r7, #8]
 800619e:	61fb      	str	r3, [r7, #28]
      pdata16bits = NULL;
 80061a0:	2300      	movs	r3, #0
 80061a2:	61bb      	str	r3, [r7, #24]
    }

    while (huart->TxXferCount > 0U)
 80061a4:	e02e      	b.n	8006204 <HAL_UART_Transmit+0xd4>
    {
      if (UART_WaitOnFlagUntilTimeout(huart, UART_FLAG_TXE, RESET, tickstart, Timeout) != HAL_OK)
 80061a6:	683b      	ldr	r3, [r7, #0]
 80061a8:	9300      	str	r3, [sp, #0]
 80061aa:	697b      	ldr	r3, [r7, #20]
 80061ac:	2200      	movs	r2, #0
 80061ae:	2180      	movs	r1, #128	@ 0x80
 80061b0:	68f8      	ldr	r0, [r7, #12]
 80061b2:	f000 fb1c 	bl	80067ee <UART_WaitOnFlagUntilTimeout>
 80061b6:	4603      	mov	r3, r0
 80061b8:	2b00      	cmp	r3, #0
 80061ba:	d005      	beq.n	80061c8 <HAL_UART_Transmit+0x98>
      {
        huart->gState = HAL_UART_STATE_READY;
 80061bc:	68fb      	ldr	r3, [r7, #12]
 80061be:	2220      	movs	r2, #32
 80061c0:	f883 2041 	strb.w	r2, [r3, #65]	@ 0x41

        return HAL_TIMEOUT;
 80061c4:	2303      	movs	r3, #3
 80061c6:	e03a      	b.n	800623e <HAL_UART_Transmit+0x10e>
      }
      if (pdata8bits == NULL)
 80061c8:	69fb      	ldr	r3, [r7, #28]
 80061ca:	2b00      	cmp	r3, #0
 80061cc:	d10b      	bne.n	80061e6 <HAL_UART_Transmit+0xb6>
      {
        huart->Instance->DR = (uint16_t)(*pdata16bits & 0x01FFU);
 80061ce:	69bb      	ldr	r3, [r7, #24]
 80061d0:	881b      	ldrh	r3, [r3, #0]
 80061d2:	461a      	mov	r2, r3
 80061d4:	68fb      	ldr	r3, [r7, #12]
 80061d6:	681b      	ldr	r3, [r3, #0]
 80061d8:	f3c2 0208 	ubfx	r2, r2, #0, #9
 80061dc:	605a      	str	r2, [r3, #4]
        pdata16bits++;
 80061de:	69bb      	ldr	r3, [r7, #24]
 80061e0:	3302      	adds	r3, #2
 80061e2:	61bb      	str	r3, [r7, #24]
 80061e4:	e007      	b.n	80061f6 <HAL_UART_Transmit+0xc6>
      }
      else
      {
        huart->Instance->DR = (uint8_t)(*pdata8bits & 0xFFU);
 80061e6:	69fb      	ldr	r3, [r7, #28]
 80061e8:	781a      	ldrb	r2, [r3, #0]
 80061ea:	68fb      	ldr	r3, [r7, #12]
 80061ec:	681b      	ldr	r3, [r3, #0]
 80061ee:	605a      	str	r2, [r3, #4]
        pdata8bits++;
 80061f0:	69fb      	ldr	r3, [r7, #28]
 80061f2:	3301      	adds	r3, #1
 80061f4:	61fb      	str	r3, [r7, #28]
      }
      huart->TxXferCount--;
 80061f6:	68fb      	ldr	r3, [r7, #12]
 80061f8:	8cdb      	ldrh	r3, [r3, #38]	@ 0x26
 80061fa:	b29b      	uxth	r3, r3
 80061fc:	3b01      	subs	r3, #1
 80061fe:	b29a      	uxth	r2, r3
 8006200:	68fb      	ldr	r3, [r7, #12]
 8006202:	84da      	strh	r2, [r3, #38]	@ 0x26
    while (huart->TxXferCount > 0U)
 8006204:	68fb      	ldr	r3, [r7, #12]
 8006206:	8cdb      	ldrh	r3, [r3, #38]	@ 0x26
 8006208:	b29b      	uxth	r3, r3
 800620a:	2b00      	cmp	r3, #0
 800620c:	d1cb      	bne.n	80061a6 <HAL_UART_Transmit+0x76>
    }

    if (UART_WaitOnFlagUntilTimeout(huart, UART_FLAG_TC, RESET, tickstart, Timeout) != HAL_OK)
 800620e:	683b      	ldr	r3, [r7, #0]
 8006210:	9300      	str	r3, [sp, #0]
 8006212:	697b      	ldr	r3, [r7, #20]
 8006214:	2200      	movs	r2, #0
 8006216:	2140      	movs	r1, #64	@ 0x40
 8006218:	68f8      	ldr	r0, [r7, #12]
 800621a:	f000 fae8 	bl	80067ee <UART_WaitOnFlagUntilTimeout>
 800621e:	4603      	mov	r3, r0
 8006220:	2b00      	cmp	r3, #0
 8006222:	d005      	beq.n	8006230 <HAL_UART_Transmit+0x100>
    {
      huart->gState = HAL_UART_STATE_READY;
 8006224:	68fb      	ldr	r3, [r7, #12]
 8006226:	2220      	movs	r2, #32
 8006228:	f883 2041 	strb.w	r2, [r3, #65]	@ 0x41

      return HAL_TIMEOUT;
 800622c:	2303      	movs	r3, #3
 800622e:	e006      	b.n	800623e <HAL_UART_Transmit+0x10e>
    }

    /* At end of Tx process, restore huart->gState to Ready */
    huart->gState = HAL_UART_STATE_READY;
 8006230:	68fb      	ldr	r3, [r7, #12]
 8006232:	2220      	movs	r2, #32
 8006234:	f883 2041 	strb.w	r2, [r3, #65]	@ 0x41

    return HAL_OK;
 8006238:	2300      	movs	r3, #0
 800623a:	e000      	b.n	800623e <HAL_UART_Transmit+0x10e>
  }
  else
  {
    return HAL_BUSY;
 800623c:	2302      	movs	r3, #2
  }
}
 800623e:	4618      	mov	r0, r3
 8006240:	3720      	adds	r7, #32
 8006242:	46bd      	mov	sp, r7
 8006244:	bd80      	pop	{r7, pc}

08006246 <HAL_UART_Receive_IT>:
  * @param  pData Pointer to data buffer (u8 or u16 data elements).
  * @param  Size  Amount of data elements (u8 or u16) to be received.
  * @retval HAL status
  */
HAL_StatusTypeDef HAL_UART_Receive_IT(UART_HandleTypeDef *huart, uint8_t *pData, uint16_t Size)
{
 8006246:	b580      	push	{r7, lr}
 8006248:	b084      	sub	sp, #16
 800624a:	af00      	add	r7, sp, #0
 800624c:	60f8      	str	r0, [r7, #12]
 800624e:	60b9      	str	r1, [r7, #8]
 8006250:	4613      	mov	r3, r2
 8006252:	80fb      	strh	r3, [r7, #6]
  /* Check that a Rx process is not already ongoing */
  if (huart->RxState == HAL_UART_STATE_READY)
 8006254:	68fb      	ldr	r3, [r7, #12]
 8006256:	f893 3042 	ldrb.w	r3, [r3, #66]	@ 0x42
 800625a:	b2db      	uxtb	r3, r3
 800625c:	2b20      	cmp	r3, #32
 800625e:	d112      	bne.n	8006286 <HAL_UART_Receive_IT+0x40>
  {
    if ((pData == NULL) || (Size == 0U))
 8006260:	68bb      	ldr	r3, [r7, #8]
 8006262:	2b00      	cmp	r3, #0
 8006264:	d002      	beq.n	800626c <HAL_UART_Receive_IT+0x26>
 8006266:	88fb      	ldrh	r3, [r7, #6]
 8006268:	2b00      	cmp	r3, #0
 800626a:	d101      	bne.n	8006270 <HAL_UART_Receive_IT+0x2a>
    {
      return HAL_ERROR;
 800626c:	2301      	movs	r3, #1
 800626e:	e00b      	b.n	8006288 <HAL_UART_Receive_IT+0x42>
    }

    /* Set Reception type to Standard reception */
    huart->ReceptionType = HAL_UART_RECEPTION_STANDARD;
 8006270:	68fb      	ldr	r3, [r7, #12]
 8006272:	2200      	movs	r2, #0
 8006274:	631a      	str	r2, [r3, #48]	@ 0x30

    return (UART_Start_Receive_IT(huart, pData, Size));
 8006276:	88fb      	ldrh	r3, [r7, #6]
 8006278:	461a      	mov	r2, r3
 800627a:	68b9      	ldr	r1, [r7, #8]
 800627c:	68f8      	ldr	r0, [r7, #12]
 800627e:	f000 fb0f 	bl	80068a0 <UART_Start_Receive_IT>
 8006282:	4603      	mov	r3, r0
 8006284:	e000      	b.n	8006288 <HAL_UART_Receive_IT+0x42>
  }
  else
  {
    return HAL_BUSY;
 8006286:	2302      	movs	r3, #2
  }
}
 8006288:	4618      	mov	r0, r3
 800628a:	3710      	adds	r7, #16
 800628c:	46bd      	mov	sp, r7
 800628e:	bd80      	pop	{r7, pc}

08006290 <HAL_UART_IRQHandler>:
  * @param  huart  Pointer to a UART_HandleTypeDef structure that contains
  *                the configuration information for the specified UART module.
  * @retval None
  */
void HAL_UART_IRQHandler(UART_HandleTypeDef *huart)
{
 8006290:	b580      	push	{r7, lr}
 8006292:	b0ba      	sub	sp, #232	@ 0xe8
 8006294:	af00      	add	r7, sp, #0
 8006296:	6078      	str	r0, [r7, #4]
  uint32_t isrflags   = READ_REG(huart->Instance->SR);
 8006298:	687b      	ldr	r3, [r7, #4]
 800629a:	681b      	ldr	r3, [r3, #0]
 800629c:	681b      	ldr	r3, [r3, #0]
 800629e:	f8c7 30e4 	str.w	r3, [r7, #228]	@ 0xe4
  uint32_t cr1its     = READ_REG(huart->Instance->CR1);
 80062a2:	687b      	ldr	r3, [r7, #4]
 80062a4:	681b      	ldr	r3, [r3, #0]
 80062a6:	68db      	ldr	r3, [r3, #12]
 80062a8:	f8c7 30e0 	str.w	r3, [r7, #224]	@ 0xe0
  uint32_t cr3its     = READ_REG(huart->Instance->CR3);
 80062ac:	687b      	ldr	r3, [r7, #4]
 80062ae:	681b      	ldr	r3, [r3, #0]
 80062b0:	695b      	ldr	r3, [r3, #20]
 80062b2:	f8c7 30dc 	str.w	r3, [r7, #220]	@ 0xdc
  uint32_t errorflags = 0x00U;
 80062b6:	2300      	movs	r3, #0
 80062b8:	f8c7 30d8 	str.w	r3, [r7, #216]	@ 0xd8
  uint32_t dmarequest = 0x00U;
 80062bc:	2300      	movs	r3, #0
 80062be:	f8c7 30d4 	str.w	r3, [r7, #212]	@ 0xd4

  /* If no error occurs */
  errorflags = (isrflags & (uint32_t)(USART_SR_PE | USART_SR_FE | USART_SR_ORE | USART_SR_NE));
 80062c2:	f8d7 30e4 	ldr.w	r3, [r7, #228]	@ 0xe4
 80062c6:	f003 030f 	and.w	r3, r3, #15
 80062ca:	f8c7 30d8 	str.w	r3, [r7, #216]	@ 0xd8
  if (errorflags == RESET)
 80062ce:	f8d7 30d8 	ldr.w	r3, [r7, #216]	@ 0xd8
 80062d2:	2b00      	cmp	r3, #0
 80062d4:	d10f      	bne.n	80062f6 <HAL_UART_IRQHandler+0x66>
  {
    /* UART in mode Receiver -------------------------------------------------*/
    if (((isrflags & USART_SR_RXNE) != RESET) && ((cr1its & USART_CR1_RXNEIE) != RESET))
 80062d6:	f8d7 30e4 	ldr.w	r3, [r7, #228]	@ 0xe4
 80062da:	f003 0320 	and.w	r3, r3, #32
 80062de:	2b00      	cmp	r3, #0
 80062e0:	d009      	beq.n	80062f6 <HAL_UART_IRQHandler+0x66>
 80062e2:	f8d7 30e0 	ldr.w	r3, [r7, #224]	@ 0xe0
 80062e6:	f003 0320 	and.w	r3, r3, #32
 80062ea:	2b00      	cmp	r3, #0
 80062ec:	d003      	beq.n	80062f6 <HAL_UART_IRQHandler+0x66>
    {
      UART_Receive_IT(huart);
 80062ee:	6878      	ldr	r0, [r7, #4]
 80062f0:	f000 fbec 	bl	8006acc <UART_Receive_IT>
      return;
 80062f4:	e25b      	b.n	80067ae <HAL_UART_IRQHandler+0x51e>
    }
  }

  /* If some errors occur */
  if ((errorflags != RESET) && (((cr3its & USART_CR3_EIE) != RESET)
 80062f6:	f8d7 30d8 	ldr.w	r3, [r7, #216]	@ 0xd8
 80062fa:	2b00      	cmp	r3, #0
 80062fc:	f000 80de 	beq.w	80064bc <HAL_UART_IRQHandler+0x22c>
 8006300:	f8d7 30dc 	ldr.w	r3, [r7, #220]	@ 0xdc
 8006304:	f003 0301 	and.w	r3, r3, #1
 8006308:	2b00      	cmp	r3, #0
 800630a:	d106      	bne.n	800631a <HAL_UART_IRQHandler+0x8a>
                                || ((cr1its & (USART_CR1_RXNEIE | USART_CR1_PEIE)) != RESET)))
 800630c:	f8d7 30e0 	ldr.w	r3, [r7, #224]	@ 0xe0
 8006310:	f403 7390 	and.w	r3, r3, #288	@ 0x120
 8006314:	2b00      	cmp	r3, #0
 8006316:	f000 80d1 	beq.w	80064bc <HAL_UART_IRQHandler+0x22c>
  {
    /* UART parity error interrupt occurred ----------------------------------*/
    if (((isrflags & USART_SR_PE) != RESET) && ((cr1its & USART_CR1_PEIE) != RESET))
 800631a:	f8d7 30e4 	ldr.w	r3, [r7, #228]	@ 0xe4
 800631e:	f003 0301 	and.w	r3, r3, #1
 8006322:	2b00      	cmp	r3, #0
 8006324:	d00b      	beq.n	800633e <HAL_UART_IRQHandler+0xae>
 8006326:	f8d7 30e0 	ldr.w	r3, [r7, #224]	@ 0xe0
 800632a:	f403 7380 	and.w	r3, r3, #256	@ 0x100
 800632e:	2b00      	cmp	r3, #0
 8006330:	d005      	beq.n	800633e <HAL_UART_IRQHandler+0xae>
    {
      huart->ErrorCode |= HAL_UART_ERROR_PE;
 8006332:	687b      	ldr	r3, [r7, #4]
 8006334:	6c5b      	ldr	r3, [r3, #68]	@ 0x44
 8006336:	f043 0201 	orr.w	r2, r3, #1
 800633a:	687b      	ldr	r3, [r7, #4]
 800633c:	645a      	str	r2, [r3, #68]	@ 0x44
    }

    /* UART noise error interrupt occurred -----------------------------------*/
    if (((isrflags & USART_SR_NE) != RESET) && ((cr3its & USART_CR3_EIE) != RESET))
 800633e:	f8d7 30e4 	ldr.w	r3, [r7, #228]	@ 0xe4
 8006342:	f003 0304 	and.w	r3, r3, #4
 8006346:	2b00      	cmp	r3, #0
 8006348:	d00b      	beq.n	8006362 <HAL_UART_IRQHandler+0xd2>
 800634a:	f8d7 30dc 	ldr.w	r3, [r7, #220]	@ 0xdc
 800634e:	f003 0301 	and.w	r3, r3, #1
 8006352:	2b00      	cmp	r3, #0
 8006354:	d005      	beq.n	8006362 <HAL_UART_IRQHandler+0xd2>
    {
      huart->ErrorCode |= HAL_UART_ERROR_NE;
 8006356:	687b      	ldr	r3, [r7, #4]
 8006358:	6c5b      	ldr	r3, [r3, #68]	@ 0x44
 800635a:	f043 0202 	orr.w	r2, r3, #2
 800635e:	687b      	ldr	r3, [r7, #4]
 8006360:	645a      	str	r2, [r3, #68]	@ 0x44
    }

    /* UART frame error interrupt occurred -----------------------------------*/
    if (((isrflags & USART_SR_FE) != RESET) && ((cr3its & USART_CR3_EIE) != RESET))
 8006362:	f8d7 30e4 	ldr.w	r3, [r7, #228]	@ 0xe4
 8006366:	f003 0302 	and.w	r3, r3, #2
 800636a:	2b00      	cmp	r3, #0
 800636c:	d00b      	beq.n	8006386 <HAL_UART_IRQHandler+0xf6>
 800636e:	f8d7 30dc 	ldr.w	r3, [r7, #220]	@ 0xdc
 8006372:	f003 0301 	and.w	r3, r3, #1
 8006376:	2b00      	cmp	r3, #0
 8006378:	d005      	beq.n	8006386 <HAL_UART_IRQHandler+0xf6>
    {
      huart->ErrorCode |= HAL_UART_ERROR_FE;
 800637a:	687b      	ldr	r3, [r7, #4]
 800637c:	6c5b      	ldr	r3, [r3, #68]	@ 0x44
 800637e:	f043 0204 	orr.w	r2, r3, #4
 8006382:	687b      	ldr	r3, [r7, #4]
 8006384:	645a      	str	r2, [r3, #68]	@ 0x44
    }

    /* UART Over-Run interrupt occurred --------------------------------------*/
    if (((isrflags & USART_SR_ORE) != RESET) && (((cr1its & USART_CR1_RXNEIE) != RESET)
 8006386:	f8d7 30e4 	ldr.w	r3, [r7, #228]	@ 0xe4
 800638a:	f003 0308 	and.w	r3, r3, #8
 800638e:	2b00      	cmp	r3, #0
 8006390:	d011      	beq.n	80063b6 <HAL_UART_IRQHandler+0x126>
 8006392:	f8d7 30e0 	ldr.w	r3, [r7, #224]	@ 0xe0
 8006396:	f003 0320 	and.w	r3, r3, #32
 800639a:	2b00      	cmp	r3, #0
 800639c:	d105      	bne.n	80063aa <HAL_UART_IRQHandler+0x11a>
                                                 || ((cr3its & USART_CR3_EIE) != RESET)))
 800639e:	f8d7 30dc 	ldr.w	r3, [r7, #220]	@ 0xdc
 80063a2:	f003 0301 	and.w	r3, r3, #1
 80063a6:	2b00      	cmp	r3, #0
 80063a8:	d005      	beq.n	80063b6 <HAL_UART_IRQHandler+0x126>
    {
      huart->ErrorCode |= HAL_UART_ERROR_ORE;
 80063aa:	687b      	ldr	r3, [r7, #4]
 80063ac:	6c5b      	ldr	r3, [r3, #68]	@ 0x44
 80063ae:	f043 0208 	orr.w	r2, r3, #8
 80063b2:	687b      	ldr	r3, [r7, #4]
 80063b4:	645a      	str	r2, [r3, #68]	@ 0x44
    }

    /* Call UART Error Call back function if need be --------------------------*/
    if (huart->ErrorCode != HAL_UART_ERROR_NONE)
 80063b6:	687b      	ldr	r3, [r7, #4]
 80063b8:	6c5b      	ldr	r3, [r3, #68]	@ 0x44
 80063ba:	2b00      	cmp	r3, #0
 80063bc:	f000 81f2 	beq.w	80067a4 <HAL_UART_IRQHandler+0x514>
    {
      /* UART in mode Receiver -----------------------------------------------*/
      if (((isrflags & USART_SR_RXNE) != RESET) && ((cr1its & USART_CR1_RXNEIE) != RESET))
 80063c0:	f8d7 30e4 	ldr.w	r3, [r7, #228]	@ 0xe4
 80063c4:	f003 0320 	and.w	r3, r3, #32
 80063c8:	2b00      	cmp	r3, #0
 80063ca:	d008      	beq.n	80063de <HAL_UART_IRQHandler+0x14e>
 80063cc:	f8d7 30e0 	ldr.w	r3, [r7, #224]	@ 0xe0
 80063d0:	f003 0320 	and.w	r3, r3, #32
 80063d4:	2b00      	cmp	r3, #0
 80063d6:	d002      	beq.n	80063de <HAL_UART_IRQHandler+0x14e>
      {
        UART_Receive_IT(huart);
 80063d8:	6878      	ldr	r0, [r7, #4]
 80063da:	f000 fb77 	bl	8006acc <UART_Receive_IT>
      }

      /* If Overrun error occurs, or if any error occurs in DMA mode reception,
         consider error as blocking */
      dmarequest = HAL_IS_BIT_SET(huart->Instance->CR3, USART_CR3_DMAR);
 80063de:	687b      	ldr	r3, [r7, #4]
 80063e0:	681b      	ldr	r3, [r3, #0]
 80063e2:	695b      	ldr	r3, [r3, #20]
 80063e4:	f003 0340 	and.w	r3, r3, #64	@ 0x40
 80063e8:	2b00      	cmp	r3, #0
 80063ea:	bf14      	ite	ne
 80063ec:	2301      	movne	r3, #1
 80063ee:	2300      	moveq	r3, #0
 80063f0:	b2db      	uxtb	r3, r3
 80063f2:	f8c7 30d4 	str.w	r3, [r7, #212]	@ 0xd4
      if (((huart->ErrorCode & HAL_UART_ERROR_ORE) != RESET) || dmarequest)
 80063f6:	687b      	ldr	r3, [r7, #4]
 80063f8:	6c5b      	ldr	r3, [r3, #68]	@ 0x44
 80063fa:	f003 0308 	and.w	r3, r3, #8
 80063fe:	2b00      	cmp	r3, #0
 8006400:	d103      	bne.n	800640a <HAL_UART_IRQHandler+0x17a>
 8006402:	f8d7 30d4 	ldr.w	r3, [r7, #212]	@ 0xd4
 8006406:	2b00      	cmp	r3, #0
 8006408:	d04f      	beq.n	80064aa <HAL_UART_IRQHandler+0x21a>
      {
        /* Blocking error : transfer is aborted
           Set the UART state ready to be able to start again the process,
           Disable Rx Interrupts, and disable Rx DMA request, if ongoing */
        UART_EndRxTransfer(huart);
 800640a:	6878      	ldr	r0, [r7, #4]
 800640c:	f000 fa81 	bl	8006912 <UART_EndRxTransfer>

        /* Disable the UART DMA Rx request if enabled */
        if (HAL_IS_BIT_SET(huart->Instance->CR3, USART_CR3_DMAR))
 8006410:	687b      	ldr	r3, [r7, #4]
 8006412:	681b      	ldr	r3, [r3, #0]
 8006414:	695b      	ldr	r3, [r3, #20]
 8006416:	f003 0340 	and.w	r3, r3, #64	@ 0x40
 800641a:	2b00      	cmp	r3, #0
 800641c:	d041      	beq.n	80064a2 <HAL_UART_IRQHandler+0x212>
        {
          ATOMIC_CLEAR_BIT(huart->Instance->CR3, USART_CR3_DMAR);
 800641e:	687b      	ldr	r3, [r7, #4]
 8006420:	681b      	ldr	r3, [r3, #0]
 8006422:	3314      	adds	r3, #20
 8006424:	f8c7 309c 	str.w	r3, [r7, #156]	@ 0x9c
 */
__STATIC_FORCEINLINE uint32_t __LDREXW(volatile uint32_t *addr)
{
    uint32_t result;

   __ASM volatile ("ldrex %0, %1" : "=r" (result) : "Q" (*addr) );
 8006428:	f8d7 309c 	ldr.w	r3, [r7, #156]	@ 0x9c
 800642c:	e853 3f00 	ldrex	r3, [r3]
 8006430:	f8c7 3098 	str.w	r3, [r7, #152]	@ 0x98
   return(result);
 8006434:	f8d7 3098 	ldr.w	r3, [r7, #152]	@ 0x98
 8006438:	f023 0340 	bic.w	r3, r3, #64	@ 0x40
 800643c:	f8c7 30d0 	str.w	r3, [r7, #208]	@ 0xd0
 8006440:	687b      	ldr	r3, [r7, #4]
 8006442:	681b      	ldr	r3, [r3, #0]
 8006444:	3314      	adds	r3, #20
 8006446:	f8d7 20d0 	ldr.w	r2, [r7, #208]	@ 0xd0
 800644a:	f8c7 20a8 	str.w	r2, [r7, #168]	@ 0xa8
 800644e:	f8c7 30a4 	str.w	r3, [r7, #164]	@ 0xa4
 */
__STATIC_FORCEINLINE uint32_t __STREXW(uint32_t value, volatile uint32_t *addr)
{
   uint32_t result;

   __ASM volatile ("strex %0, %2, %1" : "=&r" (result), "=Q" (*addr) : "r" (value) );
 8006452:	f8d7 10a4 	ldr.w	r1, [r7, #164]	@ 0xa4
 8006456:	f8d7 20a8 	ldr.w	r2, [r7, #168]	@ 0xa8
 800645a:	e841 2300 	strex	r3, r2, [r1]
 800645e:	f8c7 30a0 	str.w	r3, [r7, #160]	@ 0xa0
   return(result);
 8006462:	f8d7 30a0 	ldr.w	r3, [r7, #160]	@ 0xa0
 8006466:	2b00      	cmp	r3, #0
 8006468:	d1d9      	bne.n	800641e <HAL_UART_IRQHandler+0x18e>

          /* Abort the UART DMA Rx channel */
          if (huart->hdmarx != NULL)
 800646a:	687b      	ldr	r3, [r7, #4]
 800646c:	6bdb      	ldr	r3, [r3, #60]	@ 0x3c
 800646e:	2b00      	cmp	r3, #0
 8006470:	d013      	beq.n	800649a <HAL_UART_IRQHandler+0x20a>
          {
            /* Set the UART DMA Abort callback :
               will lead to call HAL_UART_ErrorCallback() at end of DMA abort procedure */
            huart->hdmarx->XferAbortCallback = UART_DMAAbortOnError;
 8006472:	687b      	ldr	r3, [r7, #4]
 8006474:	6bdb      	ldr	r3, [r3, #60]	@ 0x3c
 8006476:	4a7e      	ldr	r2, [pc, #504]	@ (8006670 <HAL_UART_IRQHandler+0x3e0>)
 8006478:	635a      	str	r2, [r3, #52]	@ 0x34
            if (HAL_DMA_Abort_IT(huart->hdmarx) != HAL_OK)
 800647a:	687b      	ldr	r3, [r7, #4]
 800647c:	6bdb      	ldr	r3, [r3, #60]	@ 0x3c
 800647e:	4618      	mov	r0, r3
 8006480:	f7fd fce6 	bl	8003e50 <HAL_DMA_Abort_IT>
 8006484:	4603      	mov	r3, r0
 8006486:	2b00      	cmp	r3, #0
 8006488:	d016      	beq.n	80064b8 <HAL_UART_IRQHandler+0x228>
            {
              /* Call Directly XferAbortCallback function in case of error */
              huart->hdmarx->XferAbortCallback(huart->hdmarx);
 800648a:	687b      	ldr	r3, [r7, #4]
 800648c:	6bdb      	ldr	r3, [r3, #60]	@ 0x3c
 800648e:	6b5b      	ldr	r3, [r3, #52]	@ 0x34
 8006490:	687a      	ldr	r2, [r7, #4]
 8006492:	6bd2      	ldr	r2, [r2, #60]	@ 0x3c
 8006494:	4610      	mov	r0, r2
 8006496:	4798      	blx	r3
        if (HAL_IS_BIT_SET(huart->Instance->CR3, USART_CR3_DMAR))
 8006498:	e00e      	b.n	80064b8 <HAL_UART_IRQHandler+0x228>
#if (USE_HAL_UART_REGISTER_CALLBACKS == 1)
            /*Call registered error callback*/
            huart->ErrorCallback(huart);
#else
            /*Call legacy weak error callback*/
            HAL_UART_ErrorCallback(huart);
 800649a:	6878      	ldr	r0, [r7, #4]
 800649c:	f000 f993 	bl	80067c6 <HAL_UART_ErrorCallback>
        if (HAL_IS_BIT_SET(huart->Instance->CR3, USART_CR3_DMAR))
 80064a0:	e00a      	b.n	80064b8 <HAL_UART_IRQHandler+0x228>
#if (USE_HAL_UART_REGISTER_CALLBACKS == 1)
          /*Call registered error callback*/
          huart->ErrorCallback(huart);
#else
          /*Call legacy weak error callback*/
          HAL_UART_ErrorCallback(huart);
 80064a2:	6878      	ldr	r0, [r7, #4]
 80064a4:	f000 f98f 	bl	80067c6 <HAL_UART_ErrorCallback>
        if (HAL_IS_BIT_SET(huart->Instance->CR3, USART_CR3_DMAR))
 80064a8:	e006      	b.n	80064b8 <HAL_UART_IRQHandler+0x228>
#if (USE_HAL_UART_REGISTER_CALLBACKS == 1)
        /*Call registered error callback*/
        huart->ErrorCallback(huart);
#else
        /*Call legacy weak error callback*/
        HAL_UART_ErrorCallback(huart);
 80064aa:	6878      	ldr	r0, [r7, #4]
 80064ac:	f000 f98b 	bl	80067c6 <HAL_UART_ErrorCallback>
#endif /* USE_HAL_UART_REGISTER_CALLBACKS */

        huart->ErrorCode = HAL_UART_ERROR_NONE;
 80064b0:	687b      	ldr	r3, [r7, #4]
 80064b2:	2200      	movs	r2, #0
 80064b4:	645a      	str	r2, [r3, #68]	@ 0x44
      }
    }
    return;
 80064b6:	e175      	b.n	80067a4 <HAL_UART_IRQHandler+0x514>
        if (HAL_IS_BIT_SET(huart->Instance->CR3, USART_CR3_DMAR))
 80064b8:	bf00      	nop
    return;
 80064ba:	e173      	b.n	80067a4 <HAL_UART_IRQHandler+0x514>
  } /* End if some error occurs */

  /* Check current reception Mode :
     If Reception till IDLE event has been selected : */
  if ((huart->ReceptionType == HAL_UART_RECEPTION_TOIDLE)
 80064bc:	687b      	ldr	r3, [r7, #4]
 80064be:	6b1b      	ldr	r3, [r3, #48]	@ 0x30
 80064c0:	2b01      	cmp	r3, #1
 80064c2:	f040 814f 	bne.w	8006764 <HAL_UART_IRQHandler+0x4d4>
      && ((isrflags & USART_SR_IDLE) != 0U)
 80064c6:	f8d7 30e4 	ldr.w	r3, [r7, #228]	@ 0xe4
 80064ca:	f003 0310 	and.w	r3, r3, #16
 80064ce:	2b00      	cmp	r3, #0
 80064d0:	f000 8148 	beq.w	8006764 <HAL_UART_IRQHandler+0x4d4>
      && ((cr1its & USART_SR_IDLE) != 0U))
 80064d4:	f8d7 30e0 	ldr.w	r3, [r7, #224]	@ 0xe0
 80064d8:	f003 0310 	and.w	r3, r3, #16
 80064dc:	2b00      	cmp	r3, #0
 80064de:	f000 8141 	beq.w	8006764 <HAL_UART_IRQHandler+0x4d4>
  {
    __HAL_UART_CLEAR_IDLEFLAG(huart);
 80064e2:	2300      	movs	r3, #0
 80064e4:	60bb      	str	r3, [r7, #8]
 80064e6:	687b      	ldr	r3, [r7, #4]
 80064e8:	681b      	ldr	r3, [r3, #0]
 80064ea:	681b      	ldr	r3, [r3, #0]
 80064ec:	60bb      	str	r3, [r7, #8]
 80064ee:	687b      	ldr	r3, [r7, #4]
 80064f0:	681b      	ldr	r3, [r3, #0]
 80064f2:	685b      	ldr	r3, [r3, #4]
 80064f4:	60bb      	str	r3, [r7, #8]
 80064f6:	68bb      	ldr	r3, [r7, #8]

    /* Check if DMA mode is enabled in UART */
    if (HAL_IS_BIT_SET(huart->Instance->CR3, USART_CR3_DMAR))
 80064f8:	687b      	ldr	r3, [r7, #4]
 80064fa:	681b      	ldr	r3, [r3, #0]
 80064fc:	695b      	ldr	r3, [r3, #20]
 80064fe:	f003 0340 	and.w	r3, r3, #64	@ 0x40
 8006502:	2b00      	cmp	r3, #0
 8006504:	f000 80b6 	beq.w	8006674 <HAL_UART_IRQHandler+0x3e4>
    {
      /* DMA mode enabled */
      /* Check received length : If all expected data are received, do nothing,
         (DMA cplt callback will be called).
         Otherwise, if at least one data has already been received, IDLE event is to be notified to user */
      uint16_t nb_remaining_rx_data = (uint16_t) __HAL_DMA_GET_COUNTER(huart->hdmarx);
 8006508:	687b      	ldr	r3, [r7, #4]
 800650a:	6bdb      	ldr	r3, [r3, #60]	@ 0x3c
 800650c:	681b      	ldr	r3, [r3, #0]
 800650e:	685b      	ldr	r3, [r3, #4]
 8006510:	f8a7 30be 	strh.w	r3, [r7, #190]	@ 0xbe
      if ((nb_remaining_rx_data > 0U)
 8006514:	f8b7 30be 	ldrh.w	r3, [r7, #190]	@ 0xbe
 8006518:	2b00      	cmp	r3, #0
 800651a:	f000 8145 	beq.w	80067a8 <HAL_UART_IRQHandler+0x518>
          && (nb_remaining_rx_data < huart->RxXferSize))
 800651e:	687b      	ldr	r3, [r7, #4]
 8006520:	8d9b      	ldrh	r3, [r3, #44]	@ 0x2c
 8006522:	f8b7 20be 	ldrh.w	r2, [r7, #190]	@ 0xbe
 8006526:	429a      	cmp	r2, r3
 8006528:	f080 813e 	bcs.w	80067a8 <HAL_UART_IRQHandler+0x518>
      {
        /* Reception is not complete */
        huart->RxXferCount = nb_remaining_rx_data;
 800652c:	687b      	ldr	r3, [r7, #4]
 800652e:	f8b7 20be 	ldrh.w	r2, [r7, #190]	@ 0xbe
 8006532:	85da      	strh	r2, [r3, #46]	@ 0x2e

        /* In Normal mode, end DMA xfer and HAL UART Rx process*/
        if (huart->hdmarx->Init.Mode != DMA_CIRCULAR)
 8006534:	687b      	ldr	r3, [r7, #4]
 8006536:	6bdb      	ldr	r3, [r3, #60]	@ 0x3c
 8006538:	699b      	ldr	r3, [r3, #24]
 800653a:	2b20      	cmp	r3, #32
 800653c:	f000 8088 	beq.w	8006650 <HAL_UART_IRQHandler+0x3c0>
        {
          /* Disable PE and ERR (Frame error, noise error, overrun error) interrupts */
          ATOMIC_CLEAR_BIT(huart->Instance->CR1, USART_CR1_PEIE);
 8006540:	687b      	ldr	r3, [r7, #4]
 8006542:	681b      	ldr	r3, [r3, #0]
 8006544:	330c      	adds	r3, #12
 8006546:	f8c7 3088 	str.w	r3, [r7, #136]	@ 0x88
   __ASM volatile ("ldrex %0, %1" : "=r" (result) : "Q" (*addr) );
 800654a:	f8d7 3088 	ldr.w	r3, [r7, #136]	@ 0x88
 800654e:	e853 3f00 	ldrex	r3, [r3]
 8006552:	f8c7 3084 	str.w	r3, [r7, #132]	@ 0x84
   return(result);
 8006556:	f8d7 3084 	ldr.w	r3, [r7, #132]	@ 0x84
 800655a:	f423 7380 	bic.w	r3, r3, #256	@ 0x100
 800655e:	f8c7 30b8 	str.w	r3, [r7, #184]	@ 0xb8
 8006562:	687b      	ldr	r3, [r7, #4]
 8006564:	681b      	ldr	r3, [r3, #0]
 8006566:	330c      	adds	r3, #12
 8006568:	f8d7 20b8 	ldr.w	r2, [r7, #184]	@ 0xb8
 800656c:	f8c7 2094 	str.w	r2, [r7, #148]	@ 0x94
 8006570:	f8c7 3090 	str.w	r3, [r7, #144]	@ 0x90
   __ASM volatile ("strex %0, %2, %1" : "=&r" (result), "=Q" (*addr) : "r" (value) );
 8006574:	f8d7 1090 	ldr.w	r1, [r7, #144]	@ 0x90
 8006578:	f8d7 2094 	ldr.w	r2, [r7, #148]	@ 0x94
 800657c:	e841 2300 	strex	r3, r2, [r1]
 8006580:	f8c7 308c 	str.w	r3, [r7, #140]	@ 0x8c
   return(result);
 8006584:	f8d7 308c 	ldr.w	r3, [r7, #140]	@ 0x8c
 8006588:	2b00      	cmp	r3, #0
 800658a:	d1d9      	bne.n	8006540 <HAL_UART_IRQHandler+0x2b0>
          ATOMIC_CLEAR_BIT(huart->Instance->CR3, USART_CR3_EIE);
 800658c:	687b      	ldr	r3, [r7, #4]
 800658e:	681b      	ldr	r3, [r3, #0]
 8006590:	3314      	adds	r3, #20
 8006592:	677b      	str	r3, [r7, #116]	@ 0x74
   __ASM volatile ("ldrex %0, %1" : "=r" (result) : "Q" (*addr) );
 8006594:	6f7b      	ldr	r3, [r7, #116]	@ 0x74
 8006596:	e853 3f00 	ldrex	r3, [r3]
 800659a:	673b      	str	r3, [r7, #112]	@ 0x70
   return(result);
 800659c:	6f3b      	ldr	r3, [r7, #112]	@ 0x70
 800659e:	f023 0301 	bic.w	r3, r3, #1
 80065a2:	f8c7 30b4 	str.w	r3, [r7, #180]	@ 0xb4
 80065a6:	687b      	ldr	r3, [r7, #4]
 80065a8:	681b      	ldr	r3, [r3, #0]
 80065aa:	3314      	adds	r3, #20
 80065ac:	f8d7 20b4 	ldr.w	r2, [r7, #180]	@ 0xb4
 80065b0:	f8c7 2080 	str.w	r2, [r7, #128]	@ 0x80
 80065b4:	67fb      	str	r3, [r7, #124]	@ 0x7c
   __ASM volatile ("strex %0, %2, %1" : "=&r" (result), "=Q" (*addr) : "r" (value) );
 80065b6:	6ff9      	ldr	r1, [r7, #124]	@ 0x7c
 80065b8:	f8d7 2080 	ldr.w	r2, [r7, #128]	@ 0x80
 80065bc:	e841 2300 	strex	r3, r2, [r1]
 80065c0:	67bb      	str	r3, [r7, #120]	@ 0x78
   return(result);
 80065c2:	6fbb      	ldr	r3, [r7, #120]	@ 0x78
 80065c4:	2b00      	cmp	r3, #0
 80065c6:	d1e1      	bne.n	800658c <HAL_UART_IRQHandler+0x2fc>

          /* Disable the DMA transfer for the receiver request by resetting the DMAR bit
             in the UART CR3 register */
          ATOMIC_CLEAR_BIT(huart->Instance->CR3, USART_CR3_DMAR);
 80065c8:	687b      	ldr	r3, [r7, #4]
 80065ca:	681b      	ldr	r3, [r3, #0]
 80065cc:	3314      	adds	r3, #20
 80065ce:	663b      	str	r3, [r7, #96]	@ 0x60
   __ASM volatile ("ldrex %0, %1" : "=r" (result) : "Q" (*addr) );
 80065d0:	6e3b      	ldr	r3, [r7, #96]	@ 0x60
 80065d2:	e853 3f00 	ldrex	r3, [r3]
 80065d6:	65fb      	str	r3, [r7, #92]	@ 0x5c
   return(result);
 80065d8:	6dfb      	ldr	r3, [r7, #92]	@ 0x5c
 80065da:	f023 0340 	bic.w	r3, r3, #64	@ 0x40
 80065de:	f8c7 30b0 	str.w	r3, [r7, #176]	@ 0xb0
 80065e2:	687b      	ldr	r3, [r7, #4]
 80065e4:	681b      	ldr	r3, [r3, #0]
 80065e6:	3314      	adds	r3, #20
 80065e8:	f8d7 20b0 	ldr.w	r2, [r7, #176]	@ 0xb0
 80065ec:	66fa      	str	r2, [r7, #108]	@ 0x6c
 80065ee:	66bb      	str	r3, [r7, #104]	@ 0x68
   __ASM volatile ("strex %0, %2, %1" : "=&r" (result), "=Q" (*addr) : "r" (value) );
 80065f0:	6eb9      	ldr	r1, [r7, #104]	@ 0x68
 80065f2:	6efa      	ldr	r2, [r7, #108]	@ 0x6c
 80065f4:	e841 2300 	strex	r3, r2, [r1]
 80065f8:	667b      	str	r3, [r7, #100]	@ 0x64
   return(result);
 80065fa:	6e7b      	ldr	r3, [r7, #100]	@ 0x64
 80065fc:	2b00      	cmp	r3, #0
 80065fe:	d1e3      	bne.n	80065c8 <HAL_UART_IRQHandler+0x338>

          /* At end of Rx process, restore huart->RxState to Ready */
          huart->RxState = HAL_UART_STATE_READY;
 8006600:	687b      	ldr	r3, [r7, #4]
 8006602:	2220      	movs	r2, #32
 8006604:	f883 2042 	strb.w	r2, [r3, #66]	@ 0x42
          huart->ReceptionType = HAL_UART_RECEPTION_STANDARD;
 8006608:	687b      	ldr	r3, [r7, #4]
 800660a:	2200      	movs	r2, #0
 800660c:	631a      	str	r2, [r3, #48]	@ 0x30

          ATOMIC_CLEAR_BIT(huart->Instance->CR1, USART_CR1_IDLEIE);
 800660e:	687b      	ldr	r3, [r7, #4]
 8006610:	681b      	ldr	r3, [r3, #0]
 8006612:	330c      	adds	r3, #12
 8006614:	64fb      	str	r3, [r7, #76]	@ 0x4c
   __ASM volatile ("ldrex %0, %1" : "=r" (result) : "Q" (*addr) );
 8006616:	6cfb      	ldr	r3, [r7, #76]	@ 0x4c
 8006618:	e853 3f00 	ldrex	r3, [r3]
 800661c:	64bb      	str	r3, [r7, #72]	@ 0x48
   return(result);
 800661e:	6cbb      	ldr	r3, [r7, #72]	@ 0x48
 8006620:	f023 0310 	bic.w	r3, r3, #16
 8006624:	f8c7 30ac 	str.w	r3, [r7, #172]	@ 0xac
 8006628:	687b      	ldr	r3, [r7, #4]
 800662a:	681b      	ldr	r3, [r3, #0]
 800662c:	330c      	adds	r3, #12
 800662e:	f8d7 20ac 	ldr.w	r2, [r7, #172]	@ 0xac
 8006632:	65ba      	str	r2, [r7, #88]	@ 0x58
 8006634:	657b      	str	r3, [r7, #84]	@ 0x54
   __ASM volatile ("strex %0, %2, %1" : "=&r" (result), "=Q" (*addr) : "r" (value) );
 8006636:	6d79      	ldr	r1, [r7, #84]	@ 0x54
 8006638:	6dba      	ldr	r2, [r7, #88]	@ 0x58
 800663a:	e841 2300 	strex	r3, r2, [r1]
 800663e:	653b      	str	r3, [r7, #80]	@ 0x50
   return(result);
 8006640:	6d3b      	ldr	r3, [r7, #80]	@ 0x50
 8006642:	2b00      	cmp	r3, #0
 8006644:	d1e3      	bne.n	800660e <HAL_UART_IRQHandler+0x37e>

          /* Last bytes received, so no need as the abort is immediate */
          (void)HAL_DMA_Abort(huart->hdmarx);
 8006646:	687b      	ldr	r3, [r7, #4]
 8006648:	6bdb      	ldr	r3, [r3, #60]	@ 0x3c
 800664a:	4618      	mov	r0, r3
 800664c:	f7fd fbc4 	bl	8003dd8 <HAL_DMA_Abort>
        }

        /* Initialize type of RxEvent that correspond to RxEvent callback execution;
        In this case, Rx Event type is Idle Event */
        huart->RxEventType = HAL_UART_RXEVENT_IDLE;
 8006650:	687b      	ldr	r3, [r7, #4]
 8006652:	2202      	movs	r2, #2
 8006654:	635a      	str	r2, [r3, #52]	@ 0x34
#if (USE_HAL_UART_REGISTER_CALLBACKS == 1)
        /*Call registered Rx Event callback*/
        huart->RxEventCallback(huart, (huart->RxXferSize - huart->RxXferCount));
#else
        /*Call legacy weak Rx Event callback*/
        HAL_UARTEx_RxEventCallback(huart, (huart->RxXferSize - huart->RxXferCount));
 8006656:	687b      	ldr	r3, [r7, #4]
 8006658:	8d9a      	ldrh	r2, [r3, #44]	@ 0x2c
 800665a:	687b      	ldr	r3, [r7, #4]
 800665c:	8ddb      	ldrh	r3, [r3, #46]	@ 0x2e
 800665e:	b29b      	uxth	r3, r3
 8006660:	1ad3      	subs	r3, r2, r3
 8006662:	b29b      	uxth	r3, r3
 8006664:	4619      	mov	r1, r3
 8006666:	6878      	ldr	r0, [r7, #4]
 8006668:	f000 f8b6 	bl	80067d8 <HAL_UARTEx_RxEventCallback>
#endif /* USE_HAL_UART_REGISTER_CALLBACKS */
      }
      return;
 800666c:	e09c      	b.n	80067a8 <HAL_UART_IRQHandler+0x518>
 800666e:	bf00      	nop
 8006670:	080069d7 	.word	0x080069d7
    else
    {
      /* DMA mode not enabled */
      /* Check received length : If all expected data are received, do nothing.
         Otherwise, if at least one data has already been received, IDLE event is to be notified to user */
      uint16_t nb_rx_data = huart->RxXferSize - huart->RxXferCount;
 8006674:	687b      	ldr	r3, [r7, #4]
 8006676:	8d9a      	ldrh	r2, [r3, #44]	@ 0x2c
 8006678:	687b      	ldr	r3, [r7, #4]
 800667a:	8ddb      	ldrh	r3, [r3, #46]	@ 0x2e
 800667c:	b29b      	uxth	r3, r3
 800667e:	1ad3      	subs	r3, r2, r3
 8006680:	f8a7 30ce 	strh.w	r3, [r7, #206]	@ 0xce
      if ((huart->RxXferCount > 0U)
 8006684:	687b      	ldr	r3, [r7, #4]
 8006686:	8ddb      	ldrh	r3, [r3, #46]	@ 0x2e
 8006688:	b29b      	uxth	r3, r3
 800668a:	2b00      	cmp	r3, #0
 800668c:	f000 808e 	beq.w	80067ac <HAL_UART_IRQHandler+0x51c>
          && (nb_rx_data > 0U))
 8006690:	f8b7 30ce 	ldrh.w	r3, [r7, #206]	@ 0xce
 8006694:	2b00      	cmp	r3, #0
 8006696:	f000 8089 	beq.w	80067ac <HAL_UART_IRQHandler+0x51c>
      {
        /* Disable the UART Parity Error Interrupt and RXNE interrupts */
        ATOMIC_CLEAR_BIT(huart->Instance->CR1, (USART_CR1_RXNEIE | USART_CR1_PEIE));
 800669a:	687b      	ldr	r3, [r7, #4]
 800669c:	681b      	ldr	r3, [r3, #0]
 800669e:	330c      	adds	r3, #12
 80066a0:	63bb      	str	r3, [r7, #56]	@ 0x38
   __ASM volatile ("ldrex %0, %1" : "=r" (result) : "Q" (*addr) );
 80066a2:	6bbb      	ldr	r3, [r7, #56]	@ 0x38
 80066a4:	e853 3f00 	ldrex	r3, [r3]
 80066a8:	637b      	str	r3, [r7, #52]	@ 0x34
   return(result);
 80066aa:	6b7b      	ldr	r3, [r7, #52]	@ 0x34
 80066ac:	f423 7390 	bic.w	r3, r3, #288	@ 0x120
 80066b0:	f8c7 30c8 	str.w	r3, [r7, #200]	@ 0xc8
 80066b4:	687b      	ldr	r3, [r7, #4]
 80066b6:	681b      	ldr	r3, [r3, #0]
 80066b8:	330c      	adds	r3, #12
 80066ba:	f8d7 20c8 	ldr.w	r2, [r7, #200]	@ 0xc8
 80066be:	647a      	str	r2, [r7, #68]	@ 0x44
 80066c0:	643b      	str	r3, [r7, #64]	@ 0x40
   __ASM volatile ("strex %0, %2, %1" : "=&r" (result), "=Q" (*addr) : "r" (value) );
 80066c2:	6c39      	ldr	r1, [r7, #64]	@ 0x40
 80066c4:	6c7a      	ldr	r2, [r7, #68]	@ 0x44
 80066c6:	e841 2300 	strex	r3, r2, [r1]
 80066ca:	63fb      	str	r3, [r7, #60]	@ 0x3c
   return(result);
 80066cc:	6bfb      	ldr	r3, [r7, #60]	@ 0x3c
 80066ce:	2b00      	cmp	r3, #0
 80066d0:	d1e3      	bne.n	800669a <HAL_UART_IRQHandler+0x40a>

        /* Disable the UART Error Interrupt: (Frame error, noise error, overrun error) */
        ATOMIC_CLEAR_BIT(huart->Instance->CR3, USART_CR3_EIE);
 80066d2:	687b      	ldr	r3, [r7, #4]
 80066d4:	681b      	ldr	r3, [r3, #0]
 80066d6:	3314      	adds	r3, #20
 80066d8:	627b      	str	r3, [r7, #36]	@ 0x24
   __ASM volatile ("ldrex %0, %1" : "=r" (result) : "Q" (*addr) );
 80066da:	6a7b      	ldr	r3, [r7, #36]	@ 0x24
 80066dc:	e853 3f00 	ldrex	r3, [r3]
 80066e0:	623b      	str	r3, [r7, #32]
   return(result);
 80066e2:	6a3b      	ldr	r3, [r7, #32]
 80066e4:	f023 0301 	bic.w	r3, r3, #1
 80066e8:	f8c7 30c4 	str.w	r3, [r7, #196]	@ 0xc4
 80066ec:	687b      	ldr	r3, [r7, #4]
 80066ee:	681b      	ldr	r3, [r3, #0]
 80066f0:	3314      	adds	r3, #20
 80066f2:	f8d7 20c4 	ldr.w	r2, [r7, #196]	@ 0xc4
 80066f6:	633a      	str	r2, [r7, #48]	@ 0x30
 80066f8:	62fb      	str	r3, [r7, #44]	@ 0x2c
   __ASM volatile ("strex %0, %2, %1" : "=&r" (result), "=Q" (*addr) : "r" (value) );
 80066fa:	6af9      	ldr	r1, [r7, #44]	@ 0x2c
 80066fc:	6b3a      	ldr	r2, [r7, #48]	@ 0x30
 80066fe:	e841 2300 	strex	r3, r2, [r1]
 8006702:	62bb      	str	r3, [r7, #40]	@ 0x28
   return(result);
 8006704:	6abb      	ldr	r3, [r7, #40]	@ 0x28
 8006706:	2b00      	cmp	r3, #0
 8006708:	d1e3      	bne.n	80066d2 <HAL_UART_IRQHandler+0x442>

        /* Rx process is completed, restore huart->RxState to Ready */
        huart->RxState = HAL_UART_STATE_READY;
 800670a:	687b      	ldr	r3, [r7, #4]
 800670c:	2220      	movs	r2, #32
 800670e:	f883 2042 	strb.w	r2, [r3, #66]	@ 0x42
        huart->ReceptionType = HAL_UART_RECEPTION_STANDARD;
 8006712:	687b      	ldr	r3, [r7, #4]
 8006714:	2200      	movs	r2, #0
 8006716:	631a      	str	r2, [r3, #48]	@ 0x30

        ATOMIC_CLEAR_BIT(huart->Instance->CR1, USART_CR1_IDLEIE);
 8006718:	687b      	ldr	r3, [r7, #4]
 800671a:	681b      	ldr	r3, [r3, #0]
 800671c:	330c      	adds	r3, #12
 800671e:	613b      	str	r3, [r7, #16]
   __ASM volatile ("ldrex %0, %1" : "=r" (result) : "Q" (*addr) );
 8006720:	693b      	ldr	r3, [r7, #16]
 8006722:	e853 3f00 	ldrex	r3, [r3]
 8006726:	60fb      	str	r3, [r7, #12]
   return(result);
 8006728:	68fb      	ldr	r3, [r7, #12]
 800672a:	f023 0310 	bic.w	r3, r3, #16
 800672e:	f8c7 30c0 	str.w	r3, [r7, #192]	@ 0xc0
 8006732:	687b      	ldr	r3, [r7, #4]
 8006734:	681b      	ldr	r3, [r3, #0]
 8006736:	330c      	adds	r3, #12
 8006738:	f8d7 20c0 	ldr.w	r2, [r7, #192]	@ 0xc0
 800673c:	61fa      	str	r2, [r7, #28]
 800673e:	61bb      	str	r3, [r7, #24]
   __ASM volatile ("strex %0, %2, %1" : "=&r" (result), "=Q" (*addr) : "r" (value) );
 8006740:	69b9      	ldr	r1, [r7, #24]
 8006742:	69fa      	ldr	r2, [r7, #28]
 8006744:	e841 2300 	strex	r3, r2, [r1]
 8006748:	617b      	str	r3, [r7, #20]
   return(result);
 800674a:	697b      	ldr	r3, [r7, #20]
 800674c:	2b00      	cmp	r3, #0
 800674e:	d1e3      	bne.n	8006718 <HAL_UART_IRQHandler+0x488>

        /* Initialize type of RxEvent that correspond to RxEvent callback execution;
           In this case, Rx Event type is Idle Event */
        huart->RxEventType = HAL_UART_RXEVENT_IDLE;
 8006750:	687b      	ldr	r3, [r7, #4]
 8006752:	2202      	movs	r2, #2
 8006754:	635a      	str	r2, [r3, #52]	@ 0x34
#if (USE_HAL_UART_REGISTER_CALLBACKS == 1)
        /*Call registered Rx complete callback*/
        huart->RxEventCallback(huart, nb_rx_data);
#else
        /*Call legacy weak Rx Event callback*/
        HAL_UARTEx_RxEventCallback(huart, nb_rx_data);
 8006756:	f8b7 30ce 	ldrh.w	r3, [r7, #206]	@ 0xce
 800675a:	4619      	mov	r1, r3
 800675c:	6878      	ldr	r0, [r7, #4]
 800675e:	f000 f83b 	bl	80067d8 <HAL_UARTEx_RxEventCallback>
#endif /* USE_HAL_UART_REGISTER_CALLBACKS */
      }
      return;
 8006762:	e023      	b.n	80067ac <HAL_UART_IRQHandler+0x51c>
    }
  }

  /* UART in mode Transmitter ------------------------------------------------*/
  if (((isrflags & USART_SR_TXE) != RESET) && ((cr1its & USART_CR1_TXEIE) != RESET))
 8006764:	f8d7 30e4 	ldr.w	r3, [r7, #228]	@ 0xe4
 8006768:	f003 0380 	and.w	r3, r3, #128	@ 0x80
 800676c:	2b00      	cmp	r3, #0
 800676e:	d009      	beq.n	8006784 <HAL_UART_IRQHandler+0x4f4>
 8006770:	f8d7 30e0 	ldr.w	r3, [r7, #224]	@ 0xe0
 8006774:	f003 0380 	and.w	r3, r3, #128	@ 0x80
 8006778:	2b00      	cmp	r3, #0
 800677a:	d003      	beq.n	8006784 <HAL_UART_IRQHandler+0x4f4>
  {
    UART_Transmit_IT(huart);
 800677c:	6878      	ldr	r0, [r7, #4]
 800677e:	f000 f93e 	bl	80069fe <UART_Transmit_IT>
    return;
 8006782:	e014      	b.n	80067ae <HAL_UART_IRQHandler+0x51e>
  }

  /* UART in mode Transmitter end --------------------------------------------*/
  if (((isrflags & USART_SR_TC) != RESET) && ((cr1its & USART_CR1_TCIE) != RESET))
 8006784:	f8d7 30e4 	ldr.w	r3, [r7, #228]	@ 0xe4
 8006788:	f003 0340 	and.w	r3, r3, #64	@ 0x40
 800678c:	2b00      	cmp	r3, #0
 800678e:	d00e      	beq.n	80067ae <HAL_UART_IRQHandler+0x51e>
 8006790:	f8d7 30e0 	ldr.w	r3, [r7, #224]	@ 0xe0
 8006794:	f003 0340 	and.w	r3, r3, #64	@ 0x40
 8006798:	2b00      	cmp	r3, #0
 800679a:	d008      	beq.n	80067ae <HAL_UART_IRQHandler+0x51e>
  {
    UART_EndTransmit_IT(huart);
 800679c:	6878      	ldr	r0, [r7, #4]
 800679e:	f000 f97d 	bl	8006a9c <UART_EndTransmit_IT>
    return;
 80067a2:	e004      	b.n	80067ae <HAL_UART_IRQHandler+0x51e>
    return;
 80067a4:	bf00      	nop
 80067a6:	e002      	b.n	80067ae <HAL_UART_IRQHandler+0x51e>
      return;
 80067a8:	bf00      	nop
 80067aa:	e000      	b.n	80067ae <HAL_UART_IRQHandler+0x51e>
      return;
 80067ac:	bf00      	nop
  }
}
 80067ae:	37e8      	adds	r7, #232	@ 0xe8
 80067b0:	46bd      	mov	sp, r7
 80067b2:	bd80      	pop	{r7, pc}

080067b4 <HAL_UART_TxCpltCallback>:
  * @param  huart  Pointer to a UART_HandleTypeDef structure that contains
  *                the configuration information for the specified UART module.
  * @retval None
  */
__weak void HAL_UART_TxCpltCallback(UART_HandleTypeDef *huart)
{
 80067b4:	b480      	push	{r7}
 80067b6:	b083      	sub	sp, #12
 80067b8:	af00      	add	r7, sp, #0
 80067ba:	6078      	str	r0, [r7, #4]
  /* Prevent unused argument(s) compilation warning */
  UNUSED(huart);
  /* NOTE: This function should not be modified, when the callback is needed,
           the HAL_UART_TxCpltCallback could be implemented in the user file
   */
}
 80067bc:	bf00      	nop
 80067be:	370c      	adds	r7, #12
 80067c0:	46bd      	mov	sp, r7
 80067c2:	bc80      	pop	{r7}
 80067c4:	4770      	bx	lr

080067c6 <HAL_UART_ErrorCallback>:
  * @param  huart  Pointer to a UART_HandleTypeDef structure that contains
  *                the configuration information for the specified UART module.
  * @retval None
  */
__weak void HAL_UART_ErrorCallback(UART_HandleTypeDef *huart)
{
 80067c6:	b480      	push	{r7}
 80067c8:	b083      	sub	sp, #12
 80067ca:	af00      	add	r7, sp, #0
 80067cc:	6078      	str	r0, [r7, #4]
  /* Prevent unused argument(s) compilation warning */
  UNUSED(huart);
  /* NOTE: This function should not be modified, when the callback is needed,
           the HAL_UART_ErrorCallback could be implemented in the user file
   */
}
 80067ce:	bf00      	nop
 80067d0:	370c      	adds	r7, #12
 80067d2:	46bd      	mov	sp, r7
 80067d4:	bc80      	pop	{r7}
 80067d6:	4770      	bx	lr

080067d8 <HAL_UARTEx_RxEventCallback>:
  * @param  Size  Number of data available in application reception buffer (indicates a position in
  *               reception buffer until which, data are available)
  * @retval None
  */
__weak void HAL_UARTEx_RxEventCallback(UART_HandleTypeDef *huart, uint16_t Size)
{
 80067d8:	b480      	push	{r7}
 80067da:	b083      	sub	sp, #12
 80067dc:	af00      	add	r7, sp, #0
 80067de:	6078      	str	r0, [r7, #4]
 80067e0:	460b      	mov	r3, r1
 80067e2:	807b      	strh	r3, [r7, #2]
  UNUSED(Size);

  /* NOTE : This function should not be modified, when the callback is needed,
            the HAL_UARTEx_RxEventCallback can be implemented in the user file.
   */
}
 80067e4:	bf00      	nop
 80067e6:	370c      	adds	r7, #12
 80067e8:	46bd      	mov	sp, r7
 80067ea:	bc80      	pop	{r7}
 80067ec:	4770      	bx	lr

080067ee <UART_WaitOnFlagUntilTimeout>:
  * @param  Timeout Timeout duration
  * @retval HAL status
  */
static HAL_StatusTypeDef UART_WaitOnFlagUntilTimeout(UART_HandleTypeDef *huart, uint32_t Flag, FlagStatus Status,
                                                     uint32_t Tickstart, uint32_t Timeout)
{
 80067ee:	b580      	push	{r7, lr}
 80067f0:	b086      	sub	sp, #24
 80067f2:	af00      	add	r7, sp, #0
 80067f4:	60f8      	str	r0, [r7, #12]
 80067f6:	60b9      	str	r1, [r7, #8]
 80067f8:	603b      	str	r3, [r7, #0]
 80067fa:	4613      	mov	r3, r2
 80067fc:	71fb      	strb	r3, [r7, #7]
  /* Wait until flag is set */
  while ((__HAL_UART_GET_FLAG(huart, Flag) ? SET : RESET) == Status)
 80067fe:	e03b      	b.n	8006878 <UART_WaitOnFlagUntilTimeout+0x8a>
  {
    /* Check for the Timeout */
    if (Timeout != HAL_MAX_DELAY)
 8006800:	6a3b      	ldr	r3, [r7, #32]
 8006802:	f1b3 3fff 	cmp.w	r3, #4294967295
 8006806:	d037      	beq.n	8006878 <UART_WaitOnFlagUntilTimeout+0x8a>
    {
      if (((HAL_GetTick() - Tickstart) > Timeout) || (Timeout == 0U))
 8006808:	f7fd f8f0 	bl	80039ec <HAL_GetTick>
 800680c:	4602      	mov	r2, r0
 800680e:	683b      	ldr	r3, [r7, #0]
 8006810:	1ad3      	subs	r3, r2, r3
 8006812:	6a3a      	ldr	r2, [r7, #32]
 8006814:	429a      	cmp	r2, r3
 8006816:	d302      	bcc.n	800681e <UART_WaitOnFlagUntilTimeout+0x30>
 8006818:	6a3b      	ldr	r3, [r7, #32]
 800681a:	2b00      	cmp	r3, #0
 800681c:	d101      	bne.n	8006822 <UART_WaitOnFlagUntilTimeout+0x34>
      {

        return HAL_TIMEOUT;
 800681e:	2303      	movs	r3, #3
 8006820:	e03a      	b.n	8006898 <UART_WaitOnFlagUntilTimeout+0xaa>
      }

      if ((READ_BIT(huart->Instance->CR1, USART_CR1_RE) != 0U) && (Flag != UART_FLAG_TXE) && (Flag != UART_FLAG_TC))
 8006822:	68fb      	ldr	r3, [r7, #12]
 8006824:	681b      	ldr	r3, [r3, #0]
 8006826:	68db      	ldr	r3, [r3, #12]
 8006828:	f003 0304 	and.w	r3, r3, #4
 800682c:	2b00      	cmp	r3, #0
 800682e:	d023      	beq.n	8006878 <UART_WaitOnFlagUntilTimeout+0x8a>
 8006830:	68bb      	ldr	r3, [r7, #8]
 8006832:	2b80      	cmp	r3, #128	@ 0x80
 8006834:	d020      	beq.n	8006878 <UART_WaitOnFlagUntilTimeout+0x8a>
 8006836:	68bb      	ldr	r3, [r7, #8]
 8006838:	2b40      	cmp	r3, #64	@ 0x40
 800683a:	d01d      	beq.n	8006878 <UART_WaitOnFlagUntilTimeout+0x8a>
      {
        if (__HAL_UART_GET_FLAG(huart, UART_FLAG_ORE) == SET)
 800683c:	68fb      	ldr	r3, [r7, #12]
 800683e:	681b      	ldr	r3, [r3, #0]
 8006840:	681b      	ldr	r3, [r3, #0]
 8006842:	f003 0308 	and.w	r3, r3, #8
 8006846:	2b08      	cmp	r3, #8
 8006848:	d116      	bne.n	8006878 <UART_WaitOnFlagUntilTimeout+0x8a>
        {
          /* Clear Overrun Error flag*/
          __HAL_UART_CLEAR_OREFLAG(huart);
 800684a:	2300      	movs	r3, #0
 800684c:	617b      	str	r3, [r7, #20]
 800684e:	68fb      	ldr	r3, [r7, #12]
 8006850:	681b      	ldr	r3, [r3, #0]
 8006852:	681b      	ldr	r3, [r3, #0]
 8006854:	617b      	str	r3, [r7, #20]
 8006856:	68fb      	ldr	r3, [r7, #12]
 8006858:	681b      	ldr	r3, [r3, #0]
 800685a:	685b      	ldr	r3, [r3, #4]
 800685c:	617b      	str	r3, [r7, #20]
 800685e:	697b      	ldr	r3, [r7, #20]

          /* Blocking error : transfer is aborted
          Set the UART state ready to be able to start again the process,
          Disable Rx Interrupts if ongoing */
          UART_EndRxTransfer(huart);
 8006860:	68f8      	ldr	r0, [r7, #12]
 8006862:	f000 f856 	bl	8006912 <UART_EndRxTransfer>

          huart->ErrorCode = HAL_UART_ERROR_ORE;
 8006866:	68fb      	ldr	r3, [r7, #12]
 8006868:	2208      	movs	r2, #8
 800686a:	645a      	str	r2, [r3, #68]	@ 0x44

          /* Process Unlocked */
          __HAL_UNLOCK(huart);
 800686c:	68fb      	ldr	r3, [r7, #12]
 800686e:	2200      	movs	r2, #0
 8006870:	f883 2040 	strb.w	r2, [r3, #64]	@ 0x40

          return HAL_ERROR;
 8006874:	2301      	movs	r3, #1
 8006876:	e00f      	b.n	8006898 <UART_WaitOnFlagUntilTimeout+0xaa>
  while ((__HAL_UART_GET_FLAG(huart, Flag) ? SET : RESET) == Status)
 8006878:	68fb      	ldr	r3, [r7, #12]
 800687a:	681b      	ldr	r3, [r3, #0]
 800687c:	681a      	ldr	r2, [r3, #0]
 800687e:	68bb      	ldr	r3, [r7, #8]
 8006880:	4013      	ands	r3, r2
 8006882:	68ba      	ldr	r2, [r7, #8]
 8006884:	429a      	cmp	r2, r3
 8006886:	bf0c      	ite	eq
 8006888:	2301      	moveq	r3, #1
 800688a:	2300      	movne	r3, #0
 800688c:	b2db      	uxtb	r3, r3
 800688e:	461a      	mov	r2, r3
 8006890:	79fb      	ldrb	r3, [r7, #7]
 8006892:	429a      	cmp	r2, r3
 8006894:	d0b4      	beq.n	8006800 <UART_WaitOnFlagUntilTimeout+0x12>
        }
      }
    }
  }
  return HAL_OK;
 8006896:	2300      	movs	r3, #0
}
 8006898:	4618      	mov	r0, r3
 800689a:	3718      	adds	r7, #24
 800689c:	46bd      	mov	sp, r7
 800689e:	bd80      	pop	{r7, pc}

080068a0 <UART_Start_Receive_IT>:
  * @param  pData Pointer to data buffer (u8 or u16 data elements).
  * @param  Size  Amount of data elements (u8 or u16) to be received.
  * @retval HAL status
  */
HAL_StatusTypeDef UART_Start_Receive_IT(UART_HandleTypeDef *huart, uint8_t *pData, uint16_t Size)
{
 80068a0:	b480      	push	{r7}
 80068a2:	b085      	sub	sp, #20
 80068a4:	af00      	add	r7, sp, #0
 80068a6:	60f8      	str	r0, [r7, #12]
 80068a8:	60b9      	str	r1, [r7, #8]
 80068aa:	4613      	mov	r3, r2
 80068ac:	80fb      	strh	r3, [r7, #6]
  huart->pRxBuffPtr = pData;
 80068ae:	68fb      	ldr	r3, [r7, #12]
 80068b0:	68ba      	ldr	r2, [r7, #8]
 80068b2:	629a      	str	r2, [r3, #40]	@ 0x28
  huart->RxXferSize = Size;
 80068b4:	68fb      	ldr	r3, [r7, #12]
 80068b6:	88fa      	ldrh	r2, [r7, #6]
 80068b8:	859a      	strh	r2, [r3, #44]	@ 0x2c
  huart->RxXferCount = Size;
 80068ba:	68fb      	ldr	r3, [r7, #12]
 80068bc:	88fa      	ldrh	r2, [r7, #6]
 80068be:	85da      	strh	r2, [r3, #46]	@ 0x2e

  huart->ErrorCode = HAL_UART_ERROR_NONE;
 80068c0:	68fb      	ldr	r3, [r7, #12]
 80068c2:	2200      	movs	r2, #0
 80068c4:	645a      	str	r2, [r3, #68]	@ 0x44
  huart->RxState = HAL_UART_STATE_BUSY_RX;
 80068c6:	68fb      	ldr	r3, [r7, #12]
 80068c8:	2222      	movs	r2, #34	@ 0x22
 80068ca:	f883 2042 	strb.w	r2, [r3, #66]	@ 0x42

  if (huart->Init.Parity != UART_PARITY_NONE)
 80068ce:	68fb      	ldr	r3, [r7, #12]
 80068d0:	691b      	ldr	r3, [r3, #16]
 80068d2:	2b00      	cmp	r3, #0
 80068d4:	d007      	beq.n	80068e6 <UART_Start_Receive_IT+0x46>
  {
    /* Enable the UART Parity Error Interrupt */
    __HAL_UART_ENABLE_IT(huart, UART_IT_PE);
 80068d6:	68fb      	ldr	r3, [r7, #12]
 80068d8:	681b      	ldr	r3, [r3, #0]
 80068da:	68da      	ldr	r2, [r3, #12]
 80068dc:	68fb      	ldr	r3, [r7, #12]
 80068de:	681b      	ldr	r3, [r3, #0]
 80068e0:	f442 7280 	orr.w	r2, r2, #256	@ 0x100
 80068e4:	60da      	str	r2, [r3, #12]
  }

  /* Enable the UART Error Interrupt: (Frame error, noise error, overrun error) */
  __HAL_UART_ENABLE_IT(huart, UART_IT_ERR);
 80068e6:	68fb      	ldr	r3, [r7, #12]
 80068e8:	681b      	ldr	r3, [r3, #0]
 80068ea:	695a      	ldr	r2, [r3, #20]
 80068ec:	68fb      	ldr	r3, [r7, #12]
 80068ee:	681b      	ldr	r3, [r3, #0]
 80068f0:	f042 0201 	orr.w	r2, r2, #1
 80068f4:	615a      	str	r2, [r3, #20]

  /* Enable the UART Data Register not empty Interrupt */
  __HAL_UART_ENABLE_IT(huart, UART_IT_RXNE);
 80068f6:	68fb      	ldr	r3, [r7, #12]
 80068f8:	681b      	ldr	r3, [r3, #0]
 80068fa:	68da      	ldr	r2, [r3, #12]
 80068fc:	68fb      	ldr	r3, [r7, #12]
 80068fe:	681b      	ldr	r3, [r3, #0]
 8006900:	f042 0220 	orr.w	r2, r2, #32
 8006904:	60da      	str	r2, [r3, #12]

  return HAL_OK;
 8006906:	2300      	movs	r3, #0
}
 8006908:	4618      	mov	r0, r3
 800690a:	3714      	adds	r7, #20
 800690c:	46bd      	mov	sp, r7
 800690e:	bc80      	pop	{r7}
 8006910:	4770      	bx	lr

08006912 <UART_EndRxTransfer>:
  * @brief  End ongoing Rx transfer on UART peripheral (following error detection or Reception completion).
  * @param  huart UART handle.
  * @retval None
  */
static void UART_EndRxTransfer(UART_HandleTypeDef *huart)
{
 8006912:	b480      	push	{r7}
 8006914:	b095      	sub	sp, #84	@ 0x54
 8006916:	af00      	add	r7, sp, #0
 8006918:	6078      	str	r0, [r7, #4]
  /* Disable RXNE, PE and ERR (Frame error, noise error, overrun error) interrupts */
  ATOMIC_CLEAR_BIT(huart->Instance->CR1, (USART_CR1_RXNEIE | USART_CR1_PEIE));
 800691a:	687b      	ldr	r3, [r7, #4]
 800691c:	681b      	ldr	r3, [r3, #0]
 800691e:	330c      	adds	r3, #12
 8006920:	637b      	str	r3, [r7, #52]	@ 0x34
   __ASM volatile ("ldrex %0, %1" : "=r" (result) : "Q" (*addr) );
 8006922:	6b7b      	ldr	r3, [r7, #52]	@ 0x34
 8006924:	e853 3f00 	ldrex	r3, [r3]
 8006928:	633b      	str	r3, [r7, #48]	@ 0x30
   return(result);
 800692a:	6b3b      	ldr	r3, [r7, #48]	@ 0x30
 800692c:	f423 7390 	bic.w	r3, r3, #288	@ 0x120
 8006930:	64fb      	str	r3, [r7, #76]	@ 0x4c
 8006932:	687b      	ldr	r3, [r7, #4]
 8006934:	681b      	ldr	r3, [r3, #0]
 8006936:	330c      	adds	r3, #12
 8006938:	6cfa      	ldr	r2, [r7, #76]	@ 0x4c
 800693a:	643a      	str	r2, [r7, #64]	@ 0x40
 800693c:	63fb      	str	r3, [r7, #60]	@ 0x3c
   __ASM volatile ("strex %0, %2, %1" : "=&r" (result), "=Q" (*addr) : "r" (value) );
 800693e:	6bf9      	ldr	r1, [r7, #60]	@ 0x3c
 8006940:	6c3a      	ldr	r2, [r7, #64]	@ 0x40
 8006942:	e841 2300 	strex	r3, r2, [r1]
 8006946:	63bb      	str	r3, [r7, #56]	@ 0x38
   return(result);
 8006948:	6bbb      	ldr	r3, [r7, #56]	@ 0x38
 800694a:	2b00      	cmp	r3, #0
 800694c:	d1e5      	bne.n	800691a <UART_EndRxTransfer+0x8>
  ATOMIC_CLEAR_BIT(huart->Instance->CR3, USART_CR3_EIE);
 800694e:	687b      	ldr	r3, [r7, #4]
 8006950:	681b      	ldr	r3, [r3, #0]
 8006952:	3314      	adds	r3, #20
 8006954:	623b      	str	r3, [r7, #32]
   __ASM volatile ("ldrex %0, %1" : "=r" (result) : "Q" (*addr) );
 8006956:	6a3b      	ldr	r3, [r7, #32]
 8006958:	e853 3f00 	ldrex	r3, [r3]
 800695c:	61fb      	str	r3, [r7, #28]
   return(result);
 800695e:	69fb      	ldr	r3, [r7, #28]
 8006960:	f023 0301 	bic.w	r3, r3, #1
 8006964:	64bb      	str	r3, [r7, #72]	@ 0x48
 8006966:	687b      	ldr	r3, [r7, #4]
 8006968:	681b      	ldr	r3, [r3, #0]
 800696a:	3314      	adds	r3, #20
 800696c:	6cba      	ldr	r2, [r7, #72]	@ 0x48
 800696e:	62fa      	str	r2, [r7, #44]	@ 0x2c
 8006970:	62bb      	str	r3, [r7, #40]	@ 0x28
   __ASM volatile ("strex %0, %2, %1" : "=&r" (result), "=Q" (*addr) : "r" (value) );
 8006972:	6ab9      	ldr	r1, [r7, #40]	@ 0x28
 8006974:	6afa      	ldr	r2, [r7, #44]	@ 0x2c
 8006976:	e841 2300 	strex	r3, r2, [r1]
 800697a:	627b      	str	r3, [r7, #36]	@ 0x24
   return(result);
 800697c:	6a7b      	ldr	r3, [r7, #36]	@ 0x24
 800697e:	2b00      	cmp	r3, #0
 8006980:	d1e5      	bne.n	800694e <UART_EndRxTransfer+0x3c>

  /* In case of reception waiting for IDLE event, disable also the IDLE IE interrupt source */
  if (huart->ReceptionType == HAL_UART_RECEPTION_TOIDLE)
 8006982:	687b      	ldr	r3, [r7, #4]
 8006984:	6b1b      	ldr	r3, [r3, #48]	@ 0x30
 8006986:	2b01      	cmp	r3, #1
 8006988:	d119      	bne.n	80069be <UART_EndRxTransfer+0xac>
  {
    ATOMIC_CLEAR_BIT(huart->Instance->CR1, USART_CR1_IDLEIE);
 800698a:	687b      	ldr	r3, [r7, #4]
 800698c:	681b      	ldr	r3, [r3, #0]
 800698e:	330c      	adds	r3, #12
 8006990:	60fb      	str	r3, [r7, #12]
   __ASM volatile ("ldrex %0, %1" : "=r" (result) : "Q" (*addr) );
 8006992:	68fb      	ldr	r3, [r7, #12]
 8006994:	e853 3f00 	ldrex	r3, [r3]
 8006998:	60bb      	str	r3, [r7, #8]
   return(result);
 800699a:	68bb      	ldr	r3, [r7, #8]
 800699c:	f023 0310 	bic.w	r3, r3, #16
 80069a0:	647b      	str	r3, [r7, #68]	@ 0x44
 80069a2:	687b      	ldr	r3, [r7, #4]
 80069a4:	681b      	ldr	r3, [r3, #0]
 80069a6:	330c      	adds	r3, #12
 80069a8:	6c7a      	ldr	r2, [r7, #68]	@ 0x44
 80069aa:	61ba      	str	r2, [r7, #24]
 80069ac:	617b      	str	r3, [r7, #20]
   __ASM volatile ("strex %0, %2, %1" : "=&r" (result), "=Q" (*addr) : "r" (value) );
 80069ae:	6979      	ldr	r1, [r7, #20]
 80069b0:	69ba      	ldr	r2, [r7, #24]
 80069b2:	e841 2300 	strex	r3, r2, [r1]
 80069b6:	613b      	str	r3, [r7, #16]
   return(result);
 80069b8:	693b      	ldr	r3, [r7, #16]
 80069ba:	2b00      	cmp	r3, #0
 80069bc:	d1e5      	bne.n	800698a <UART_EndRxTransfer+0x78>
  }

  /* At end of Rx process, restore huart->RxState to Ready */
  huart->RxState = HAL_UART_STATE_READY;
 80069be:	687b      	ldr	r3, [r7, #4]
 80069c0:	2220      	movs	r2, #32
 80069c2:	f883 2042 	strb.w	r2, [r3, #66]	@ 0x42
  huart->ReceptionType = HAL_UART_RECEPTION_STANDARD;
 80069c6:	687b      	ldr	r3, [r7, #4]
 80069c8:	2200      	movs	r2, #0
 80069ca:	631a      	str	r2, [r3, #48]	@ 0x30
}
 80069cc:	bf00      	nop
 80069ce:	3754      	adds	r7, #84	@ 0x54
 80069d0:	46bd      	mov	sp, r7
 80069d2:	bc80      	pop	{r7}
 80069d4:	4770      	bx	lr

080069d6 <UART_DMAAbortOnError>:
  * @param  hdma  Pointer to a DMA_HandleTypeDef structure that contains
  *               the configuration information for the specified DMA module.
  * @retval None
  */
static void UART_DMAAbortOnError(DMA_HandleTypeDef *hdma)
{
 80069d6:	b580      	push	{r7, lr}
 80069d8:	b084      	sub	sp, #16
 80069da:	af00      	add	r7, sp, #0
 80069dc:	6078      	str	r0, [r7, #4]
  UART_HandleTypeDef *huart = (UART_HandleTypeDef *)((DMA_HandleTypeDef *)hdma)->Parent;
 80069de:	687b      	ldr	r3, [r7, #4]
 80069e0:	6a5b      	ldr	r3, [r3, #36]	@ 0x24
 80069e2:	60fb      	str	r3, [r7, #12]
  huart->RxXferCount = 0x00U;
 80069e4:	68fb      	ldr	r3, [r7, #12]
 80069e6:	2200      	movs	r2, #0
 80069e8:	85da      	strh	r2, [r3, #46]	@ 0x2e
  huart->TxXferCount = 0x00U;
 80069ea:	68fb      	ldr	r3, [r7, #12]
 80069ec:	2200      	movs	r2, #0
 80069ee:	84da      	strh	r2, [r3, #38]	@ 0x26
#if (USE_HAL_UART_REGISTER_CALLBACKS == 1)
  /*Call registered error callback*/
  huart->ErrorCallback(huart);
#else
  /*Call legacy weak error callback*/
  HAL_UART_ErrorCallback(huart);
 80069f0:	68f8      	ldr	r0, [r7, #12]
 80069f2:	f7ff fee8 	bl	80067c6 <HAL_UART_ErrorCallback>
#endif /* USE_HAL_UART_REGISTER_CALLBACKS */
}
 80069f6:	bf00      	nop
 80069f8:	3710      	adds	r7, #16
 80069fa:	46bd      	mov	sp, r7
 80069fc:	bd80      	pop	{r7, pc}

080069fe <UART_Transmit_IT>:
  * @param  huart  Pointer to a UART_HandleTypeDef structure that contains
  *                the configuration information for the specified UART module.
  * @retval HAL status
  */
static HAL_StatusTypeDef UART_Transmit_IT(UART_HandleTypeDef *huart)
{
 80069fe:	b480      	push	{r7}
 8006a00:	b085      	sub	sp, #20
 8006a02:	af00      	add	r7, sp, #0
 8006a04:	6078      	str	r0, [r7, #4]
  const uint16_t *tmp;

  /* Check that a Tx process is ongoing */
  if (huart->gState == HAL_UART_STATE_BUSY_TX)
 8006a06:	687b      	ldr	r3, [r7, #4]
 8006a08:	f893 3041 	ldrb.w	r3, [r3, #65]	@ 0x41
 8006a0c:	b2db      	uxtb	r3, r3
 8006a0e:	2b21      	cmp	r3, #33	@ 0x21
 8006a10:	d13e      	bne.n	8006a90 <UART_Transmit_IT+0x92>
  {
    if ((huart->Init.WordLength == UART_WORDLENGTH_9B) && (huart->Init.Parity == UART_PARITY_NONE))
 8006a12:	687b      	ldr	r3, [r7, #4]
 8006a14:	689b      	ldr	r3, [r3, #8]
 8006a16:	f5b3 5f80 	cmp.w	r3, #4096	@ 0x1000
 8006a1a:	d114      	bne.n	8006a46 <UART_Transmit_IT+0x48>
 8006a1c:	687b      	ldr	r3, [r7, #4]
 8006a1e:	691b      	ldr	r3, [r3, #16]
 8006a20:	2b00      	cmp	r3, #0
 8006a22:	d110      	bne.n	8006a46 <UART_Transmit_IT+0x48>
    {
      tmp = (const uint16_t *) huart->pTxBuffPtr;
 8006a24:	687b      	ldr	r3, [r7, #4]
 8006a26:	6a1b      	ldr	r3, [r3, #32]
 8006a28:	60fb      	str	r3, [r7, #12]
      huart->Instance->DR = (uint16_t)(*tmp & (uint16_t)0x01FF);
 8006a2a:	68fb      	ldr	r3, [r7, #12]
 8006a2c:	881b      	ldrh	r3, [r3, #0]
 8006a2e:	461a      	mov	r2, r3
 8006a30:	687b      	ldr	r3, [r7, #4]
 8006a32:	681b      	ldr	r3, [r3, #0]
 8006a34:	f3c2 0208 	ubfx	r2, r2, #0, #9
 8006a38:	605a      	str	r2, [r3, #4]
      huart->pTxBuffPtr += 2U;
 8006a3a:	687b      	ldr	r3, [r7, #4]
 8006a3c:	6a1b      	ldr	r3, [r3, #32]
 8006a3e:	1c9a      	adds	r2, r3, #2
 8006a40:	687b      	ldr	r3, [r7, #4]
 8006a42:	621a      	str	r2, [r3, #32]
 8006a44:	e008      	b.n	8006a58 <UART_Transmit_IT+0x5a>
    }
    else
    {
      huart->Instance->DR = (uint8_t)(*huart->pTxBuffPtr++ & (uint8_t)0x00FF);
 8006a46:	687b      	ldr	r3, [r7, #4]
 8006a48:	6a1b      	ldr	r3, [r3, #32]
 8006a4a:	1c59      	adds	r1, r3, #1
 8006a4c:	687a      	ldr	r2, [r7, #4]
 8006a4e:	6211      	str	r1, [r2, #32]
 8006a50:	781a      	ldrb	r2, [r3, #0]
 8006a52:	687b      	ldr	r3, [r7, #4]
 8006a54:	681b      	ldr	r3, [r3, #0]
 8006a56:	605a      	str	r2, [r3, #4]
    }

    if (--huart->TxXferCount == 0U)
 8006a58:	687b      	ldr	r3, [r7, #4]
 8006a5a:	8cdb      	ldrh	r3, [r3, #38]	@ 0x26
 8006a5c:	b29b      	uxth	r3, r3
 8006a5e:	3b01      	subs	r3, #1
 8006a60:	b29b      	uxth	r3, r3
 8006a62:	687a      	ldr	r2, [r7, #4]
 8006a64:	4619      	mov	r1, r3
 8006a66:	84d1      	strh	r1, [r2, #38]	@ 0x26
 8006a68:	2b00      	cmp	r3, #0
 8006a6a:	d10f      	bne.n	8006a8c <UART_Transmit_IT+0x8e>
    {
      /* Disable the UART Transmit Data Register Empty Interrupt */
      __HAL_UART_DISABLE_IT(huart, UART_IT_TXE);
 8006a6c:	687b      	ldr	r3, [r7, #4]
 8006a6e:	681b      	ldr	r3, [r3, #0]
 8006a70:	68da      	ldr	r2, [r3, #12]
 8006a72:	687b      	ldr	r3, [r7, #4]
 8006a74:	681b      	ldr	r3, [r3, #0]
 8006a76:	f022 0280 	bic.w	r2, r2, #128	@ 0x80
 8006a7a:	60da      	str	r2, [r3, #12]

      /* Enable the UART Transmit Complete Interrupt */
      __HAL_UART_ENABLE_IT(huart, UART_IT_TC);
 8006a7c:	687b      	ldr	r3, [r7, #4]
 8006a7e:	681b      	ldr	r3, [r3, #0]
 8006a80:	68da      	ldr	r2, [r3, #12]
 8006a82:	687b      	ldr	r3, [r7, #4]
 8006a84:	681b      	ldr	r3, [r3, #0]
 8006a86:	f042 0240 	orr.w	r2, r2, #64	@ 0x40
 8006a8a:	60da      	str	r2, [r3, #12]
    }
    return HAL_OK;
 8006a8c:	2300      	movs	r3, #0
 8006a8e:	e000      	b.n	8006a92 <UART_Transmit_IT+0x94>
  }
  else
  {
    return HAL_BUSY;
 8006a90:	2302      	movs	r3, #2
  }
}
 8006a92:	4618      	mov	r0, r3
 8006a94:	3714      	adds	r7, #20
 8006a96:	46bd      	mov	sp, r7
 8006a98:	bc80      	pop	{r7}
 8006a9a:	4770      	bx	lr

08006a9c <UART_EndTransmit_IT>:
  * @param  huart  Pointer to a UART_HandleTypeDef structure that contains
  *                the configuration information for the specified UART module.
  * @retval HAL status
  */
static HAL_StatusTypeDef UART_EndTransmit_IT(UART_HandleTypeDef *huart)
{
 8006a9c:	b580      	push	{r7, lr}
 8006a9e:	b082      	sub	sp, #8
 8006aa0:	af00      	add	r7, sp, #0
 8006aa2:	6078      	str	r0, [r7, #4]
  /* Disable the UART Transmit Complete Interrupt */
  __HAL_UART_DISABLE_IT(huart, UART_IT_TC);
 8006aa4:	687b      	ldr	r3, [r7, #4]
 8006aa6:	681b      	ldr	r3, [r3, #0]
 8006aa8:	68da      	ldr	r2, [r3, #12]
 8006aaa:	687b      	ldr	r3, [r7, #4]
 8006aac:	681b      	ldr	r3, [r3, #0]
 8006aae:	f022 0240 	bic.w	r2, r2, #64	@ 0x40
 8006ab2:	60da      	str	r2, [r3, #12]

  /* Tx process is ended, restore huart->gState to Ready */
  huart->gState = HAL_UART_STATE_READY;
 8006ab4:	687b      	ldr	r3, [r7, #4]
 8006ab6:	2220      	movs	r2, #32
 8006ab8:	f883 2041 	strb.w	r2, [r3, #65]	@ 0x41
#if (USE_HAL_UART_REGISTER_CALLBACKS == 1)
  /*Call registered Tx complete callback*/
  huart->TxCpltCallback(huart);
#else
  /*Call legacy weak Tx complete callback*/
  HAL_UART_TxCpltCallback(huart);
 8006abc:	6878      	ldr	r0, [r7, #4]
 8006abe:	f7ff fe79 	bl	80067b4 <HAL_UART_TxCpltCallback>
#endif /* USE_HAL_UART_REGISTER_CALLBACKS */

  return HAL_OK;
 8006ac2:	2300      	movs	r3, #0
}
 8006ac4:	4618      	mov	r0, r3
 8006ac6:	3708      	adds	r7, #8
 8006ac8:	46bd      	mov	sp, r7
 8006aca:	bd80      	pop	{r7, pc}

08006acc <UART_Receive_IT>:
  * @param  huart  Pointer to a UART_HandleTypeDef structure that contains
  *                the configuration information for the specified UART module.
  * @retval HAL status
  */
static HAL_StatusTypeDef UART_Receive_IT(UART_HandleTypeDef *huart)
{
 8006acc:	b580      	push	{r7, lr}
 8006ace:	b08c      	sub	sp, #48	@ 0x30
 8006ad0:	af00      	add	r7, sp, #0
 8006ad2:	6078      	str	r0, [r7, #4]
  uint8_t  *pdata8bits;
  uint16_t *pdata16bits;

  /* Check that a Rx process is ongoing */
  if (huart->RxState == HAL_UART_STATE_BUSY_RX)
 8006ad4:	687b      	ldr	r3, [r7, #4]
 8006ad6:	f893 3042 	ldrb.w	r3, [r3, #66]	@ 0x42
 8006ada:	b2db      	uxtb	r3, r3
 8006adc:	2b22      	cmp	r3, #34	@ 0x22
 8006ade:	f040 80ae 	bne.w	8006c3e <UART_Receive_IT+0x172>
  {
    if ((huart->Init.WordLength == UART_WORDLENGTH_9B) && (huart->Init.Parity == UART_PARITY_NONE))
 8006ae2:	687b      	ldr	r3, [r7, #4]
 8006ae4:	689b      	ldr	r3, [r3, #8]
 8006ae6:	f5b3 5f80 	cmp.w	r3, #4096	@ 0x1000
 8006aea:	d117      	bne.n	8006b1c <UART_Receive_IT+0x50>
 8006aec:	687b      	ldr	r3, [r7, #4]
 8006aee:	691b      	ldr	r3, [r3, #16]
 8006af0:	2b00      	cmp	r3, #0
 8006af2:	d113      	bne.n	8006b1c <UART_Receive_IT+0x50>
    {
      pdata8bits  = NULL;
 8006af4:	2300      	movs	r3, #0
 8006af6:	62fb      	str	r3, [r7, #44]	@ 0x2c
      pdata16bits = (uint16_t *) huart->pRxBuffPtr;
 8006af8:	687b      	ldr	r3, [r7, #4]
 8006afa:	6a9b      	ldr	r3, [r3, #40]	@ 0x28
 8006afc:	62bb      	str	r3, [r7, #40]	@ 0x28
      *pdata16bits = (uint16_t)(huart->Instance->DR & (uint16_t)0x01FF);
 8006afe:	687b      	ldr	r3, [r7, #4]
 8006b00:	681b      	ldr	r3, [r3, #0]
 8006b02:	685b      	ldr	r3, [r3, #4]
 8006b04:	b29b      	uxth	r3, r3
 8006b06:	f3c3 0308 	ubfx	r3, r3, #0, #9
 8006b0a:	b29a      	uxth	r2, r3
 8006b0c:	6abb      	ldr	r3, [r7, #40]	@ 0x28
 8006b0e:	801a      	strh	r2, [r3, #0]
      huart->pRxBuffPtr += 2U;
 8006b10:	687b      	ldr	r3, [r7, #4]
 8006b12:	6a9b      	ldr	r3, [r3, #40]	@ 0x28
 8006b14:	1c9a      	adds	r2, r3, #2
 8006b16:	687b      	ldr	r3, [r7, #4]
 8006b18:	629a      	str	r2, [r3, #40]	@ 0x28
 8006b1a:	e026      	b.n	8006b6a <UART_Receive_IT+0x9e>
    }
    else
    {
      pdata8bits = (uint8_t *) huart->pRxBuffPtr;
 8006b1c:	687b      	ldr	r3, [r7, #4]
 8006b1e:	6a9b      	ldr	r3, [r3, #40]	@ 0x28
 8006b20:	62fb      	str	r3, [r7, #44]	@ 0x2c
      pdata16bits  = NULL;
 8006b22:	2300      	movs	r3, #0
 8006b24:	62bb      	str	r3, [r7, #40]	@ 0x28

      if ((huart->Init.WordLength == UART_WORDLENGTH_9B) || ((huart->Init.WordLength == UART_WORDLENGTH_8B) && (huart->Init.Parity == UART_PARITY_NONE)))
 8006b26:	687b      	ldr	r3, [r7, #4]
 8006b28:	689b      	ldr	r3, [r3, #8]
 8006b2a:	f5b3 5f80 	cmp.w	r3, #4096	@ 0x1000
 8006b2e:	d007      	beq.n	8006b40 <UART_Receive_IT+0x74>
 8006b30:	687b      	ldr	r3, [r7, #4]
 8006b32:	689b      	ldr	r3, [r3, #8]
 8006b34:	2b00      	cmp	r3, #0
 8006b36:	d10a      	bne.n	8006b4e <UART_Receive_IT+0x82>
 8006b38:	687b      	ldr	r3, [r7, #4]
 8006b3a:	691b      	ldr	r3, [r3, #16]
 8006b3c:	2b00      	cmp	r3, #0
 8006b3e:	d106      	bne.n	8006b4e <UART_Receive_IT+0x82>
      {
        *pdata8bits = (uint8_t)(huart->Instance->DR & (uint8_t)0x00FF);
 8006b40:	687b      	ldr	r3, [r7, #4]
 8006b42:	681b      	ldr	r3, [r3, #0]
 8006b44:	685b      	ldr	r3, [r3, #4]
 8006b46:	b2da      	uxtb	r2, r3
 8006b48:	6afb      	ldr	r3, [r7, #44]	@ 0x2c
 8006b4a:	701a      	strb	r2, [r3, #0]
 8006b4c:	e008      	b.n	8006b60 <UART_Receive_IT+0x94>
      }
      else
      {
        *pdata8bits = (uint8_t)(huart->Instance->DR & (uint8_t)0x007F);
 8006b4e:	687b      	ldr	r3, [r7, #4]
 8006b50:	681b      	ldr	r3, [r3, #0]
 8006b52:	685b      	ldr	r3, [r3, #4]
 8006b54:	b2db      	uxtb	r3, r3
 8006b56:	f003 037f 	and.w	r3, r3, #127	@ 0x7f
 8006b5a:	b2da      	uxtb	r2, r3
 8006b5c:	6afb      	ldr	r3, [r7, #44]	@ 0x2c
 8006b5e:	701a      	strb	r2, [r3, #0]
      }
      huart->pRxBuffPtr += 1U;
 8006b60:	687b      	ldr	r3, [r7, #4]
 8006b62:	6a9b      	ldr	r3, [r3, #40]	@ 0x28
 8006b64:	1c5a      	adds	r2, r3, #1
 8006b66:	687b      	ldr	r3, [r7, #4]
 8006b68:	629a      	str	r2, [r3, #40]	@ 0x28
    }

    if (--huart->RxXferCount == 0U)
 8006b6a:	687b      	ldr	r3, [r7, #4]
 8006b6c:	8ddb      	ldrh	r3, [r3, #46]	@ 0x2e
 8006b6e:	b29b      	uxth	r3, r3
 8006b70:	3b01      	subs	r3, #1
 8006b72:	b29b      	uxth	r3, r3
 8006b74:	687a      	ldr	r2, [r7, #4]
 8006b76:	4619      	mov	r1, r3
 8006b78:	85d1      	strh	r1, [r2, #46]	@ 0x2e
 8006b7a:	2b00      	cmp	r3, #0
 8006b7c:	d15d      	bne.n	8006c3a <UART_Receive_IT+0x16e>
    {
      /* Disable the UART Data Register not empty Interrupt */
      __HAL_UART_DISABLE_IT(huart, UART_IT_RXNE);
 8006b7e:	687b      	ldr	r3, [r7, #4]
 8006b80:	681b      	ldr	r3, [r3, #0]
 8006b82:	68da      	ldr	r2, [r3, #12]
 8006b84:	687b      	ldr	r3, [r7, #4]
 8006b86:	681b      	ldr	r3, [r3, #0]
 8006b88:	f022 0220 	bic.w	r2, r2, #32
 8006b8c:	60da      	str	r2, [r3, #12]

      /* Disable the UART Parity Error Interrupt */
      __HAL_UART_DISABLE_IT(huart, UART_IT_PE);
 8006b8e:	687b      	ldr	r3, [r7, #4]
 8006b90:	681b      	ldr	r3, [r3, #0]
 8006b92:	68da      	ldr	r2, [r3, #12]
 8006b94:	687b      	ldr	r3, [r7, #4]
 8006b96:	681b      	ldr	r3, [r3, #0]
 8006b98:	f422 7280 	bic.w	r2, r2, #256	@ 0x100
 8006b9c:	60da      	str	r2, [r3, #12]

      /* Disable the UART Error Interrupt: (Frame error, noise error, overrun error) */
      __HAL_UART_DISABLE_IT(huart, UART_IT_ERR);
 8006b9e:	687b      	ldr	r3, [r7, #4]
 8006ba0:	681b      	ldr	r3, [r3, #0]
 8006ba2:	695a      	ldr	r2, [r3, #20]
 8006ba4:	687b      	ldr	r3, [r7, #4]
 8006ba6:	681b      	ldr	r3, [r3, #0]
 8006ba8:	f022 0201 	bic.w	r2, r2, #1
 8006bac:	615a      	str	r2, [r3, #20]

      /* Rx process is completed, restore huart->RxState to Ready */
      huart->RxState = HAL_UART_STATE_READY;
 8006bae:	687b      	ldr	r3, [r7, #4]
 8006bb0:	2220      	movs	r2, #32
 8006bb2:	f883 2042 	strb.w	r2, [r3, #66]	@ 0x42

      /* Initialize type of RxEvent to Transfer Complete */
      huart->RxEventType = HAL_UART_RXEVENT_TC;
 8006bb6:	687b      	ldr	r3, [r7, #4]
 8006bb8:	2200      	movs	r2, #0
 8006bba:	635a      	str	r2, [r3, #52]	@ 0x34

      /* Check current reception Mode :
         If Reception till IDLE event has been selected : */
      if (huart->ReceptionType == HAL_UART_RECEPTION_TOIDLE)
 8006bbc:	687b      	ldr	r3, [r7, #4]
 8006bbe:	6b1b      	ldr	r3, [r3, #48]	@ 0x30
 8006bc0:	2b01      	cmp	r3, #1
 8006bc2:	d135      	bne.n	8006c30 <UART_Receive_IT+0x164>
      {
        /* Set reception type to Standard */
        huart->ReceptionType = HAL_UART_RECEPTION_STANDARD;
 8006bc4:	687b      	ldr	r3, [r7, #4]
 8006bc6:	2200      	movs	r2, #0
 8006bc8:	631a      	str	r2, [r3, #48]	@ 0x30

        /* Disable IDLE interrupt */
        ATOMIC_CLEAR_BIT(huart->Instance->CR1, USART_CR1_IDLEIE);
 8006bca:	687b      	ldr	r3, [r7, #4]
 8006bcc:	681b      	ldr	r3, [r3, #0]
 8006bce:	330c      	adds	r3, #12
 8006bd0:	617b      	str	r3, [r7, #20]
   __ASM volatile ("ldrex %0, %1" : "=r" (result) : "Q" (*addr) );
 8006bd2:	697b      	ldr	r3, [r7, #20]
 8006bd4:	e853 3f00 	ldrex	r3, [r3]
 8006bd8:	613b      	str	r3, [r7, #16]
   return(result);
 8006bda:	693b      	ldr	r3, [r7, #16]
 8006bdc:	f023 0310 	bic.w	r3, r3, #16
 8006be0:	627b      	str	r3, [r7, #36]	@ 0x24
 8006be2:	687b      	ldr	r3, [r7, #4]
 8006be4:	681b      	ldr	r3, [r3, #0]
 8006be6:	330c      	adds	r3, #12
 8006be8:	6a7a      	ldr	r2, [r7, #36]	@ 0x24
 8006bea:	623a      	str	r2, [r7, #32]
 8006bec:	61fb      	str	r3, [r7, #28]
   __ASM volatile ("strex %0, %2, %1" : "=&r" (result), "=Q" (*addr) : "r" (value) );
 8006bee:	69f9      	ldr	r1, [r7, #28]
 8006bf0:	6a3a      	ldr	r2, [r7, #32]
 8006bf2:	e841 2300 	strex	r3, r2, [r1]
 8006bf6:	61bb      	str	r3, [r7, #24]
   return(result);
 8006bf8:	69bb      	ldr	r3, [r7, #24]
 8006bfa:	2b00      	cmp	r3, #0
 8006bfc:	d1e5      	bne.n	8006bca <UART_Receive_IT+0xfe>

        /* Check if IDLE flag is set */
        if (__HAL_UART_GET_FLAG(huart, UART_FLAG_IDLE))
 8006bfe:	687b      	ldr	r3, [r7, #4]
 8006c00:	681b      	ldr	r3, [r3, #0]
 8006c02:	681b      	ldr	r3, [r3, #0]
 8006c04:	f003 0310 	and.w	r3, r3, #16
 8006c08:	2b10      	cmp	r3, #16
 8006c0a:	d10a      	bne.n	8006c22 <UART_Receive_IT+0x156>
        {
          /* Clear IDLE flag in ISR */
          __HAL_UART_CLEAR_IDLEFLAG(huart);
 8006c0c:	2300      	movs	r3, #0
 8006c0e:	60fb      	str	r3, [r7, #12]
 8006c10:	687b      	ldr	r3, [r7, #4]
 8006c12:	681b      	ldr	r3, [r3, #0]
 8006c14:	681b      	ldr	r3, [r3, #0]
 8006c16:	60fb      	str	r3, [r7, #12]
 8006c18:	687b      	ldr	r3, [r7, #4]
 8006c1a:	681b      	ldr	r3, [r3, #0]
 8006c1c:	685b      	ldr	r3, [r3, #4]
 8006c1e:	60fb      	str	r3, [r7, #12]
 8006c20:	68fb      	ldr	r3, [r7, #12]
#if (USE_HAL_UART_REGISTER_CALLBACKS == 1)
        /*Call registered Rx Event callback*/
        huart->RxEventCallback(huart, huart->RxXferSize);
#else
        /*Call legacy weak Rx Event callback*/
        HAL_UARTEx_RxEventCallback(huart, huart->RxXferSize);
 8006c22:	687b      	ldr	r3, [r7, #4]
 8006c24:	8d9b      	ldrh	r3, [r3, #44]	@ 0x2c
 8006c26:	4619      	mov	r1, r3
 8006c28:	6878      	ldr	r0, [r7, #4]
 8006c2a:	f7ff fdd5 	bl	80067d8 <HAL_UARTEx_RxEventCallback>
 8006c2e:	e002      	b.n	8006c36 <UART_Receive_IT+0x16a>
#if (USE_HAL_UART_REGISTER_CALLBACKS == 1)
        /*Call registered Rx complete callback*/
        huart->RxCpltCallback(huart);
#else
        /*Call legacy weak Rx complete callback*/
        HAL_UART_RxCpltCallback(huart);
 8006c30:	6878      	ldr	r0, [r7, #4]
 8006c32:	f7fb fb01 	bl	8002238 <HAL_UART_RxCpltCallback>
#endif /* USE_HAL_UART_REGISTER_CALLBACKS */
      }

      return HAL_OK;
 8006c36:	2300      	movs	r3, #0
 8006c38:	e002      	b.n	8006c40 <UART_Receive_IT+0x174>
    }
    return HAL_OK;
 8006c3a:	2300      	movs	r3, #0
 8006c3c:	e000      	b.n	8006c40 <UART_Receive_IT+0x174>
  }
  else
  {
    return HAL_BUSY;
 8006c3e:	2302      	movs	r3, #2
  }
}
 8006c40:	4618      	mov	r0, r3
 8006c42:	3730      	adds	r7, #48	@ 0x30
 8006c44:	46bd      	mov	sp, r7
 8006c46:	bd80      	pop	{r7, pc}

08006c48 <UART_SetConfig>:
  * @param  huart  Pointer to a UART_HandleTypeDef structure that contains
  *                the configuration information for the specified UART module.
  * @retval None
  */
static void UART_SetConfig(UART_HandleTypeDef *huart)
{
 8006c48:	b580      	push	{r7, lr}
 8006c4a:	b084      	sub	sp, #16
 8006c4c:	af00      	add	r7, sp, #0
 8006c4e:	6078      	str	r0, [r7, #4]
  assert_param(IS_UART_MODE(huart->Init.Mode));

  /*-------------------------- USART CR2 Configuration -----------------------*/
  /* Configure the UART Stop Bits: Set STOP[13:12] bits
     according to huart->Init.StopBits value */
  MODIFY_REG(huart->Instance->CR2, USART_CR2_STOP, huart->Init.StopBits);
 8006c50:	687b      	ldr	r3, [r7, #4]
 8006c52:	681b      	ldr	r3, [r3, #0]
 8006c54:	691b      	ldr	r3, [r3, #16]
 8006c56:	f423 5140 	bic.w	r1, r3, #12288	@ 0x3000
 8006c5a:	687b      	ldr	r3, [r7, #4]
 8006c5c:	68da      	ldr	r2, [r3, #12]
 8006c5e:	687b      	ldr	r3, [r7, #4]
 8006c60:	681b      	ldr	r3, [r3, #0]
 8006c62:	430a      	orrs	r2, r1
 8006c64:	611a      	str	r2, [r3, #16]
  tmpreg = (uint32_t)huart->Init.WordLength | huart->Init.Parity | huart->Init.Mode | huart->Init.OverSampling;
  MODIFY_REG(huart->Instance->CR1,
             (uint32_t)(USART_CR1_M | USART_CR1_PCE | USART_CR1_PS | USART_CR1_TE | USART_CR1_RE | USART_CR1_OVER8),
             tmpreg);
#else
  tmpreg = (uint32_t)huart->Init.WordLength | huart->Init.Parity | huart->Init.Mode;
 8006c66:	687b      	ldr	r3, [r7, #4]
 8006c68:	689a      	ldr	r2, [r3, #8]
 8006c6a:	687b      	ldr	r3, [r7, #4]
 8006c6c:	691b      	ldr	r3, [r3, #16]
 8006c6e:	431a      	orrs	r2, r3
 8006c70:	687b      	ldr	r3, [r7, #4]
 8006c72:	695b      	ldr	r3, [r3, #20]
 8006c74:	4313      	orrs	r3, r2
 8006c76:	60bb      	str	r3, [r7, #8]
  MODIFY_REG(huart->Instance->CR1,
 8006c78:	687b      	ldr	r3, [r7, #4]
 8006c7a:	681b      	ldr	r3, [r3, #0]
 8006c7c:	68db      	ldr	r3, [r3, #12]
 8006c7e:	f423 53b0 	bic.w	r3, r3, #5632	@ 0x1600
 8006c82:	f023 030c 	bic.w	r3, r3, #12
 8006c86:	687a      	ldr	r2, [r7, #4]
 8006c88:	6812      	ldr	r2, [r2, #0]
 8006c8a:	68b9      	ldr	r1, [r7, #8]
 8006c8c:	430b      	orrs	r3, r1
 8006c8e:	60d3      	str	r3, [r2, #12]
             tmpreg);
#endif /* USART_CR1_OVER8 */

  /*-------------------------- USART CR3 Configuration -----------------------*/
  /* Configure the UART HFC: Set CTSE and RTSE bits according to huart->Init.HwFlowCtl value */
  MODIFY_REG(huart->Instance->CR3, (USART_CR3_RTSE | USART_CR3_CTSE), huart->Init.HwFlowCtl);
 8006c90:	687b      	ldr	r3, [r7, #4]
 8006c92:	681b      	ldr	r3, [r3, #0]
 8006c94:	695b      	ldr	r3, [r3, #20]
 8006c96:	f423 7140 	bic.w	r1, r3, #768	@ 0x300
 8006c9a:	687b      	ldr	r3, [r7, #4]
 8006c9c:	699a      	ldr	r2, [r3, #24]
 8006c9e:	687b      	ldr	r3, [r7, #4]
 8006ca0:	681b      	ldr	r3, [r3, #0]
 8006ca2:	430a      	orrs	r2, r1
 8006ca4:	615a      	str	r2, [r3, #20]


  if(huart->Instance == USART1)
 8006ca6:	687b      	ldr	r3, [r7, #4]
 8006ca8:	681b      	ldr	r3, [r3, #0]
 8006caa:	4a2c      	ldr	r2, [pc, #176]	@ (8006d5c <UART_SetConfig+0x114>)
 8006cac:	4293      	cmp	r3, r2
 8006cae:	d103      	bne.n	8006cb8 <UART_SetConfig+0x70>
  {
    pclk = HAL_RCC_GetPCLK2Freq();
 8006cb0:	f7fe f80c 	bl	8004ccc <HAL_RCC_GetPCLK2Freq>
 8006cb4:	60f8      	str	r0, [r7, #12]
 8006cb6:	e002      	b.n	8006cbe <UART_SetConfig+0x76>
  }
  else
  {
    pclk = HAL_RCC_GetPCLK1Freq();
 8006cb8:	f7fd fff4 	bl	8004ca4 <HAL_RCC_GetPCLK1Freq>
 8006cbc:	60f8      	str	r0, [r7, #12]
  else
  {
    huart->Instance->BRR = UART_BRR_SAMPLING16(pclk, huart->Init.BaudRate);
  }
#else
  huart->Instance->BRR = UART_BRR_SAMPLING16(pclk, huart->Init.BaudRate);
 8006cbe:	68fa      	ldr	r2, [r7, #12]
 8006cc0:	4613      	mov	r3, r2
 8006cc2:	009b      	lsls	r3, r3, #2
 8006cc4:	4413      	add	r3, r2
 8006cc6:	009a      	lsls	r2, r3, #2
 8006cc8:	441a      	add	r2, r3
 8006cca:	687b      	ldr	r3, [r7, #4]
 8006ccc:	685b      	ldr	r3, [r3, #4]
 8006cce:	009b      	lsls	r3, r3, #2
 8006cd0:	fbb2 f3f3 	udiv	r3, r2, r3
 8006cd4:	4a22      	ldr	r2, [pc, #136]	@ (8006d60 <UART_SetConfig+0x118>)
 8006cd6:	fba2 2303 	umull	r2, r3, r2, r3
 8006cda:	095b      	lsrs	r3, r3, #5
 8006cdc:	0119      	lsls	r1, r3, #4
 8006cde:	68fa      	ldr	r2, [r7, #12]
 8006ce0:	4613      	mov	r3, r2
 8006ce2:	009b      	lsls	r3, r3, #2
 8006ce4:	4413      	add	r3, r2
 8006ce6:	009a      	lsls	r2, r3, #2
 8006ce8:	441a      	add	r2, r3
 8006cea:	687b      	ldr	r3, [r7, #4]
 8006cec:	685b      	ldr	r3, [r3, #4]
 8006cee:	009b      	lsls	r3, r3, #2
 8006cf0:	fbb2 f2f3 	udiv	r2, r2, r3
 8006cf4:	4b1a      	ldr	r3, [pc, #104]	@ (8006d60 <UART_SetConfig+0x118>)
 8006cf6:	fba3 0302 	umull	r0, r3, r3, r2
 8006cfa:	095b      	lsrs	r3, r3, #5
 8006cfc:	2064      	movs	r0, #100	@ 0x64
 8006cfe:	fb00 f303 	mul.w	r3, r0, r3
 8006d02:	1ad3      	subs	r3, r2, r3
 8006d04:	011b      	lsls	r3, r3, #4
 8006d06:	3332      	adds	r3, #50	@ 0x32
 8006d08:	4a15      	ldr	r2, [pc, #84]	@ (8006d60 <UART_SetConfig+0x118>)
 8006d0a:	fba2 2303 	umull	r2, r3, r2, r3
 8006d0e:	095b      	lsrs	r3, r3, #5
 8006d10:	f003 03f0 	and.w	r3, r3, #240	@ 0xf0
 8006d14:	4419      	add	r1, r3
 8006d16:	68fa      	ldr	r2, [r7, #12]
 8006d18:	4613      	mov	r3, r2
 8006d1a:	009b      	lsls	r3, r3, #2
 8006d1c:	4413      	add	r3, r2
 8006d1e:	009a      	lsls	r2, r3, #2
 8006d20:	441a      	add	r2, r3
 8006d22:	687b      	ldr	r3, [r7, #4]
 8006d24:	685b      	ldr	r3, [r3, #4]
 8006d26:	009b      	lsls	r3, r3, #2
 8006d28:	fbb2 f2f3 	udiv	r2, r2, r3
 8006d2c:	4b0c      	ldr	r3, [pc, #48]	@ (8006d60 <UART_SetConfig+0x118>)
 8006d2e:	fba3 0302 	umull	r0, r3, r3, r2
 8006d32:	095b      	lsrs	r3, r3, #5
 8006d34:	2064      	movs	r0, #100	@ 0x64
 8006d36:	fb00 f303 	mul.w	r3, r0, r3
 8006d3a:	1ad3      	subs	r3, r2, r3
 8006d3c:	011b      	lsls	r3, r3, #4
 8006d3e:	3332      	adds	r3, #50	@ 0x32
 8006d40:	4a07      	ldr	r2, [pc, #28]	@ (8006d60 <UART_SetConfig+0x118>)
 8006d42:	fba2 2303 	umull	r2, r3, r2, r3
 8006d46:	095b      	lsrs	r3, r3, #5
 8006d48:	f003 020f 	and.w	r2, r3, #15
 8006d4c:	687b      	ldr	r3, [r7, #4]
 8006d4e:	681b      	ldr	r3, [r3, #0]
 8006d50:	440a      	add	r2, r1
 8006d52:	609a      	str	r2, [r3, #8]
#endif /* USART_CR1_OVER8 */
}
 8006d54:	bf00      	nop
 8006d56:	3710      	adds	r7, #16
 8006d58:	46bd      	mov	sp, r7
 8006d5a:	bd80      	pop	{r7, pc}
 8006d5c:	40013800 	.word	0x40013800
 8006d60:	51eb851f 	.word	0x51eb851f

08006d64 <sniprintf>:
 8006d64:	b40c      	push	{r2, r3}
 8006d66:	b530      	push	{r4, r5, lr}
 8006d68:	4b18      	ldr	r3, [pc, #96]	@ (8006dcc <sniprintf+0x68>)
 8006d6a:	1e0c      	subs	r4, r1, #0
 8006d6c:	681d      	ldr	r5, [r3, #0]
 8006d6e:	b09d      	sub	sp, #116	@ 0x74
 8006d70:	da08      	bge.n	8006d84 <sniprintf+0x20>
 8006d72:	238b      	movs	r3, #139	@ 0x8b
 8006d74:	f04f 30ff 	mov.w	r0, #4294967295
 8006d78:	602b      	str	r3, [r5, #0]
 8006d7a:	b01d      	add	sp, #116	@ 0x74
 8006d7c:	e8bd 4030 	ldmia.w	sp!, {r4, r5, lr}
 8006d80:	b002      	add	sp, #8
 8006d82:	4770      	bx	lr
 8006d84:	f44f 7302 	mov.w	r3, #520	@ 0x208
 8006d88:	f8ad 3014 	strh.w	r3, [sp, #20]
 8006d8c:	f04f 0300 	mov.w	r3, #0
 8006d90:	931b      	str	r3, [sp, #108]	@ 0x6c
 8006d92:	bf0c      	ite	eq
 8006d94:	4623      	moveq	r3, r4
 8006d96:	f104 33ff 	addne.w	r3, r4, #4294967295
 8006d9a:	9304      	str	r3, [sp, #16]
 8006d9c:	9307      	str	r3, [sp, #28]
 8006d9e:	f64f 73ff 	movw	r3, #65535	@ 0xffff
 8006da2:	9002      	str	r0, [sp, #8]
 8006da4:	9006      	str	r0, [sp, #24]
 8006da6:	f8ad 3016 	strh.w	r3, [sp, #22]
 8006daa:	4628      	mov	r0, r5
 8006dac:	ab21      	add	r3, sp, #132	@ 0x84
 8006dae:	9a20      	ldr	r2, [sp, #128]	@ 0x80
 8006db0:	a902      	add	r1, sp, #8
 8006db2:	9301      	str	r3, [sp, #4]
 8006db4:	f000 f9a0 	bl	80070f8 <_svfiprintf_r>
 8006db8:	1c43      	adds	r3, r0, #1
 8006dba:	bfbc      	itt	lt
 8006dbc:	238b      	movlt	r3, #139	@ 0x8b
 8006dbe:	602b      	strlt	r3, [r5, #0]
 8006dc0:	2c00      	cmp	r4, #0
 8006dc2:	d0da      	beq.n	8006d7a <sniprintf+0x16>
 8006dc4:	2200      	movs	r2, #0
 8006dc6:	9b02      	ldr	r3, [sp, #8]
 8006dc8:	701a      	strb	r2, [r3, #0]
 8006dca:	e7d6      	b.n	8006d7a <sniprintf+0x16>
 8006dcc:	20000034 	.word	0x20000034

08006dd0 <memset>:
 8006dd0:	4603      	mov	r3, r0
 8006dd2:	4402      	add	r2, r0
 8006dd4:	4293      	cmp	r3, r2
 8006dd6:	d100      	bne.n	8006dda <memset+0xa>
 8006dd8:	4770      	bx	lr
 8006dda:	f803 1b01 	strb.w	r1, [r3], #1
 8006dde:	e7f9      	b.n	8006dd4 <memset+0x4>

08006de0 <__errno>:
 8006de0:	4b01      	ldr	r3, [pc, #4]	@ (8006de8 <__errno+0x8>)
 8006de2:	6818      	ldr	r0, [r3, #0]
 8006de4:	4770      	bx	lr
 8006de6:	bf00      	nop
 8006de8:	20000034 	.word	0x20000034

08006dec <__libc_init_array>:
 8006dec:	b570      	push	{r4, r5, r6, lr}
 8006dee:	2600      	movs	r6, #0
 8006df0:	4d0c      	ldr	r5, [pc, #48]	@ (8006e24 <__libc_init_array+0x38>)
 8006df2:	4c0d      	ldr	r4, [pc, #52]	@ (8006e28 <__libc_init_array+0x3c>)
 8006df4:	1b64      	subs	r4, r4, r5
 8006df6:	10a4      	asrs	r4, r4, #2
 8006df8:	42a6      	cmp	r6, r4
 8006dfa:	d109      	bne.n	8006e10 <__libc_init_array+0x24>
 8006dfc:	f000 fc76 	bl	80076ec <_init>
 8006e00:	2600      	movs	r6, #0
 8006e02:	4d0a      	ldr	r5, [pc, #40]	@ (8006e2c <__libc_init_array+0x40>)
 8006e04:	4c0a      	ldr	r4, [pc, #40]	@ (8006e30 <__libc_init_array+0x44>)
 8006e06:	1b64      	subs	r4, r4, r5
 8006e08:	10a4      	asrs	r4, r4, #2
 8006e0a:	42a6      	cmp	r6, r4
 8006e0c:	d105      	bne.n	8006e1a <__libc_init_array+0x2e>
 8006e0e:	bd70      	pop	{r4, r5, r6, pc}
 8006e10:	f855 3b04 	ldr.w	r3, [r5], #4
 8006e14:	4798      	blx	r3
 8006e16:	3601      	adds	r6, #1
 8006e18:	e7ee      	b.n	8006df8 <__libc_init_array+0xc>
 8006e1a:	f855 3b04 	ldr.w	r3, [r5], #4
 8006e1e:	4798      	blx	r3
 8006e20:	3601      	adds	r6, #1
 8006e22:	e7f2      	b.n	8006e0a <__libc_init_array+0x1e>
 8006e24:	08007b3c 	.word	0x08007b3c
 8006e28:	08007b3c 	.word	0x08007b3c
 8006e2c:	08007b3c 	.word	0x08007b3c
 8006e30:	08007b40 	.word	0x08007b40

08006e34 <__retarget_lock_acquire_recursive>:
 8006e34:	4770      	bx	lr

08006e36 <__retarget_lock_release_recursive>:
 8006e36:	4770      	bx	lr

08006e38 <memcpy>:
 8006e38:	440a      	add	r2, r1
 8006e3a:	4291      	cmp	r1, r2
 8006e3c:	f100 33ff 	add.w	r3, r0, #4294967295
 8006e40:	d100      	bne.n	8006e44 <memcpy+0xc>
 8006e42:	4770      	bx	lr
 8006e44:	b510      	push	{r4, lr}
 8006e46:	f811 4b01 	ldrb.w	r4, [r1], #1
 8006e4a:	4291      	cmp	r1, r2
 8006e4c:	f803 4f01 	strb.w	r4, [r3, #1]!
 8006e50:	d1f9      	bne.n	8006e46 <memcpy+0xe>
 8006e52:	bd10      	pop	{r4, pc}

08006e54 <_free_r>:
 8006e54:	b538      	push	{r3, r4, r5, lr}
 8006e56:	4605      	mov	r5, r0
 8006e58:	2900      	cmp	r1, #0
 8006e5a:	d040      	beq.n	8006ede <_free_r+0x8a>
 8006e5c:	f851 3c04 	ldr.w	r3, [r1, #-4]
 8006e60:	1f0c      	subs	r4, r1, #4
 8006e62:	2b00      	cmp	r3, #0
 8006e64:	bfb8      	it	lt
 8006e66:	18e4      	addlt	r4, r4, r3
 8006e68:	f000 f8de 	bl	8007028 <__malloc_lock>
 8006e6c:	4a1c      	ldr	r2, [pc, #112]	@ (8006ee0 <_free_r+0x8c>)
 8006e6e:	6813      	ldr	r3, [r2, #0]
 8006e70:	b933      	cbnz	r3, 8006e80 <_free_r+0x2c>
 8006e72:	6063      	str	r3, [r4, #4]
 8006e74:	6014      	str	r4, [r2, #0]
 8006e76:	4628      	mov	r0, r5
 8006e78:	e8bd 4038 	ldmia.w	sp!, {r3, r4, r5, lr}
 8006e7c:	f000 b8da 	b.w	8007034 <__malloc_unlock>
 8006e80:	42a3      	cmp	r3, r4
 8006e82:	d908      	bls.n	8006e96 <_free_r+0x42>
 8006e84:	6820      	ldr	r0, [r4, #0]
 8006e86:	1821      	adds	r1, r4, r0
 8006e88:	428b      	cmp	r3, r1
 8006e8a:	bf01      	itttt	eq
 8006e8c:	6819      	ldreq	r1, [r3, #0]
 8006e8e:	685b      	ldreq	r3, [r3, #4]
 8006e90:	1809      	addeq	r1, r1, r0
 8006e92:	6021      	streq	r1, [r4, #0]
 8006e94:	e7ed      	b.n	8006e72 <_free_r+0x1e>
 8006e96:	461a      	mov	r2, r3
 8006e98:	685b      	ldr	r3, [r3, #4]
 8006e9a:	b10b      	cbz	r3, 8006ea0 <_free_r+0x4c>
 8006e9c:	42a3      	cmp	r3, r4
 8006e9e:	d9fa      	bls.n	8006e96 <_free_r+0x42>
 8006ea0:	6811      	ldr	r1, [r2, #0]
 8006ea2:	1850      	adds	r0, r2, r1
 8006ea4:	42a0      	cmp	r0, r4
 8006ea6:	d10b      	bne.n	8006ec0 <_free_r+0x6c>
 8006ea8:	6820      	ldr	r0, [r4, #0]
 8006eaa:	4401      	add	r1, r0
 8006eac:	1850      	adds	r0, r2, r1
 8006eae:	4283      	cmp	r3, r0
 8006eb0:	6011      	str	r1, [r2, #0]
 8006eb2:	d1e0      	bne.n	8006e76 <_free_r+0x22>
 8006eb4:	6818      	ldr	r0, [r3, #0]
 8006eb6:	685b      	ldr	r3, [r3, #4]
 8006eb8:	4408      	add	r0, r1
 8006eba:	6010      	str	r0, [r2, #0]
 8006ebc:	6053      	str	r3, [r2, #4]
 8006ebe:	e7da      	b.n	8006e76 <_free_r+0x22>
 8006ec0:	d902      	bls.n	8006ec8 <_free_r+0x74>
 8006ec2:	230c      	movs	r3, #12
 8006ec4:	602b      	str	r3, [r5, #0]
 8006ec6:	e7d6      	b.n	8006e76 <_free_r+0x22>
 8006ec8:	6820      	ldr	r0, [r4, #0]
 8006eca:	1821      	adds	r1, r4, r0
 8006ecc:	428b      	cmp	r3, r1
 8006ece:	bf01      	itttt	eq
 8006ed0:	6819      	ldreq	r1, [r3, #0]
 8006ed2:	685b      	ldreq	r3, [r3, #4]
 8006ed4:	1809      	addeq	r1, r1, r0
 8006ed6:	6021      	streq	r1, [r4, #0]
 8006ed8:	6063      	str	r3, [r4, #4]
 8006eda:	6054      	str	r4, [r2, #4]
 8006edc:	e7cb      	b.n	8006e76 <_free_r+0x22>
 8006ede:	bd38      	pop	{r3, r4, r5, pc}
 8006ee0:	200015c8 	.word	0x200015c8

08006ee4 <sbrk_aligned>:
 8006ee4:	b570      	push	{r4, r5, r6, lr}
 8006ee6:	4e0f      	ldr	r6, [pc, #60]	@ (8006f24 <sbrk_aligned+0x40>)
 8006ee8:	460c      	mov	r4, r1
 8006eea:	6831      	ldr	r1, [r6, #0]
 8006eec:	4605      	mov	r5, r0
 8006eee:	b911      	cbnz	r1, 8006ef6 <sbrk_aligned+0x12>
 8006ef0:	f000 fba8 	bl	8007644 <_sbrk_r>
 8006ef4:	6030      	str	r0, [r6, #0]
 8006ef6:	4621      	mov	r1, r4
 8006ef8:	4628      	mov	r0, r5
 8006efa:	f000 fba3 	bl	8007644 <_sbrk_r>
 8006efe:	1c43      	adds	r3, r0, #1
 8006f00:	d103      	bne.n	8006f0a <sbrk_aligned+0x26>
 8006f02:	f04f 34ff 	mov.w	r4, #4294967295
 8006f06:	4620      	mov	r0, r4
 8006f08:	bd70      	pop	{r4, r5, r6, pc}
 8006f0a:	1cc4      	adds	r4, r0, #3
 8006f0c:	f024 0403 	bic.w	r4, r4, #3
 8006f10:	42a0      	cmp	r0, r4
 8006f12:	d0f8      	beq.n	8006f06 <sbrk_aligned+0x22>
 8006f14:	1a21      	subs	r1, r4, r0
 8006f16:	4628      	mov	r0, r5
 8006f18:	f000 fb94 	bl	8007644 <_sbrk_r>
 8006f1c:	3001      	adds	r0, #1
 8006f1e:	d1f2      	bne.n	8006f06 <sbrk_aligned+0x22>
 8006f20:	e7ef      	b.n	8006f02 <sbrk_aligned+0x1e>
 8006f22:	bf00      	nop
 8006f24:	200015c4 	.word	0x200015c4

08006f28 <_malloc_r>:
 8006f28:	e92d 43f8 	stmdb	sp!, {r3, r4, r5, r6, r7, r8, r9, lr}
 8006f2c:	1ccd      	adds	r5, r1, #3
 8006f2e:	f025 0503 	bic.w	r5, r5, #3
 8006f32:	3508      	adds	r5, #8
 8006f34:	2d0c      	cmp	r5, #12
 8006f36:	bf38      	it	cc
 8006f38:	250c      	movcc	r5, #12
 8006f3a:	2d00      	cmp	r5, #0
 8006f3c:	4606      	mov	r6, r0
 8006f3e:	db01      	blt.n	8006f44 <_malloc_r+0x1c>
 8006f40:	42a9      	cmp	r1, r5
 8006f42:	d904      	bls.n	8006f4e <_malloc_r+0x26>
 8006f44:	230c      	movs	r3, #12
 8006f46:	6033      	str	r3, [r6, #0]
 8006f48:	2000      	movs	r0, #0
 8006f4a:	e8bd 83f8 	ldmia.w	sp!, {r3, r4, r5, r6, r7, r8, r9, pc}
 8006f4e:	f8df 80d4 	ldr.w	r8, [pc, #212]	@ 8007024 <_malloc_r+0xfc>
 8006f52:	f000 f869 	bl	8007028 <__malloc_lock>
 8006f56:	f8d8 3000 	ldr.w	r3, [r8]
 8006f5a:	461c      	mov	r4, r3
 8006f5c:	bb44      	cbnz	r4, 8006fb0 <_malloc_r+0x88>
 8006f5e:	4629      	mov	r1, r5
 8006f60:	4630      	mov	r0, r6
 8006f62:	f7ff ffbf 	bl	8006ee4 <sbrk_aligned>
 8006f66:	1c43      	adds	r3, r0, #1
 8006f68:	4604      	mov	r4, r0
 8006f6a:	d158      	bne.n	800701e <_malloc_r+0xf6>
 8006f6c:	f8d8 4000 	ldr.w	r4, [r8]
 8006f70:	4627      	mov	r7, r4
 8006f72:	2f00      	cmp	r7, #0
 8006f74:	d143      	bne.n	8006ffe <_malloc_r+0xd6>
 8006f76:	2c00      	cmp	r4, #0
 8006f78:	d04b      	beq.n	8007012 <_malloc_r+0xea>
 8006f7a:	6823      	ldr	r3, [r4, #0]
 8006f7c:	4639      	mov	r1, r7
 8006f7e:	4630      	mov	r0, r6
 8006f80:	eb04 0903 	add.w	r9, r4, r3
 8006f84:	f000 fb5e 	bl	8007644 <_sbrk_r>
 8006f88:	4581      	cmp	r9, r0
 8006f8a:	d142      	bne.n	8007012 <_malloc_r+0xea>
 8006f8c:	6821      	ldr	r1, [r4, #0]
 8006f8e:	4630      	mov	r0, r6
 8006f90:	1a6d      	subs	r5, r5, r1
 8006f92:	4629      	mov	r1, r5
 8006f94:	f7ff ffa6 	bl	8006ee4 <sbrk_aligned>
 8006f98:	3001      	adds	r0, #1
 8006f9a:	d03a      	beq.n	8007012 <_malloc_r+0xea>
 8006f9c:	6823      	ldr	r3, [r4, #0]
 8006f9e:	442b      	add	r3, r5
 8006fa0:	6023      	str	r3, [r4, #0]
 8006fa2:	f8d8 3000 	ldr.w	r3, [r8]
 8006fa6:	685a      	ldr	r2, [r3, #4]
 8006fa8:	bb62      	cbnz	r2, 8007004 <_malloc_r+0xdc>
 8006faa:	f8c8 7000 	str.w	r7, [r8]
 8006fae:	e00f      	b.n	8006fd0 <_malloc_r+0xa8>
 8006fb0:	6822      	ldr	r2, [r4, #0]
 8006fb2:	1b52      	subs	r2, r2, r5
 8006fb4:	d420      	bmi.n	8006ff8 <_malloc_r+0xd0>
 8006fb6:	2a0b      	cmp	r2, #11
 8006fb8:	d917      	bls.n	8006fea <_malloc_r+0xc2>
 8006fba:	1961      	adds	r1, r4, r5
 8006fbc:	42a3      	cmp	r3, r4
 8006fbe:	6025      	str	r5, [r4, #0]
 8006fc0:	bf18      	it	ne
 8006fc2:	6059      	strne	r1, [r3, #4]
 8006fc4:	6863      	ldr	r3, [r4, #4]
 8006fc6:	bf08      	it	eq
 8006fc8:	f8c8 1000 	streq.w	r1, [r8]
 8006fcc:	5162      	str	r2, [r4, r5]
 8006fce:	604b      	str	r3, [r1, #4]
 8006fd0:	4630      	mov	r0, r6
 8006fd2:	f000 f82f 	bl	8007034 <__malloc_unlock>
 8006fd6:	f104 000b 	add.w	r0, r4, #11
 8006fda:	1d23      	adds	r3, r4, #4
 8006fdc:	f020 0007 	bic.w	r0, r0, #7
 8006fe0:	1ac2      	subs	r2, r0, r3
 8006fe2:	bf1c      	itt	ne
 8006fe4:	1a1b      	subne	r3, r3, r0
 8006fe6:	50a3      	strne	r3, [r4, r2]
 8006fe8:	e7af      	b.n	8006f4a <_malloc_r+0x22>
 8006fea:	6862      	ldr	r2, [r4, #4]
 8006fec:	42a3      	cmp	r3, r4
 8006fee:	bf0c      	ite	eq
 8006ff0:	f8c8 2000 	streq.w	r2, [r8]
 8006ff4:	605a      	strne	r2, [r3, #4]
 8006ff6:	e7eb      	b.n	8006fd0 <_malloc_r+0xa8>
 8006ff8:	4623      	mov	r3, r4
 8006ffa:	6864      	ldr	r4, [r4, #4]
 8006ffc:	e7ae      	b.n	8006f5c <_malloc_r+0x34>
 8006ffe:	463c      	mov	r4, r7
 8007000:	687f      	ldr	r7, [r7, #4]
 8007002:	e7b6      	b.n	8006f72 <_malloc_r+0x4a>
 8007004:	461a      	mov	r2, r3
 8007006:	685b      	ldr	r3, [r3, #4]
 8007008:	42a3      	cmp	r3, r4
 800700a:	d1fb      	bne.n	8007004 <_malloc_r+0xdc>
 800700c:	2300      	movs	r3, #0
 800700e:	6053      	str	r3, [r2, #4]
 8007010:	e7de      	b.n	8006fd0 <_malloc_r+0xa8>
 8007012:	230c      	movs	r3, #12
 8007014:	4630      	mov	r0, r6
 8007016:	6033      	str	r3, [r6, #0]
 8007018:	f000 f80c 	bl	8007034 <__malloc_unlock>
 800701c:	e794      	b.n	8006f48 <_malloc_r+0x20>
 800701e:	6005      	str	r5, [r0, #0]
 8007020:	e7d6      	b.n	8006fd0 <_malloc_r+0xa8>
 8007022:	bf00      	nop
 8007024:	200015c8 	.word	0x200015c8

08007028 <__malloc_lock>:
 8007028:	4801      	ldr	r0, [pc, #4]	@ (8007030 <__malloc_lock+0x8>)
 800702a:	f7ff bf03 	b.w	8006e34 <__retarget_lock_acquire_recursive>
 800702e:	bf00      	nop
 8007030:	200015c0 	.word	0x200015c0

08007034 <__malloc_unlock>:
 8007034:	4801      	ldr	r0, [pc, #4]	@ (800703c <__malloc_unlock+0x8>)
 8007036:	f7ff befe 	b.w	8006e36 <__retarget_lock_release_recursive>
 800703a:	bf00      	nop
 800703c:	200015c0 	.word	0x200015c0

08007040 <__ssputs_r>:
 8007040:	e92d 47f0 	stmdb	sp!, {r4, r5, r6, r7, r8, r9, sl, lr}
 8007044:	461f      	mov	r7, r3
 8007046:	688e      	ldr	r6, [r1, #8]
 8007048:	4682      	mov	sl, r0
 800704a:	42be      	cmp	r6, r7
 800704c:	460c      	mov	r4, r1
 800704e:	4690      	mov	r8, r2
 8007050:	680b      	ldr	r3, [r1, #0]
 8007052:	d82d      	bhi.n	80070b0 <__ssputs_r+0x70>
 8007054:	f9b1 200c 	ldrsh.w	r2, [r1, #12]
 8007058:	f412 6f90 	tst.w	r2, #1152	@ 0x480
 800705c:	d026      	beq.n	80070ac <__ssputs_r+0x6c>
 800705e:	6965      	ldr	r5, [r4, #20]
 8007060:	6909      	ldr	r1, [r1, #16]
 8007062:	eb05 0545 	add.w	r5, r5, r5, lsl #1
 8007066:	eba3 0901 	sub.w	r9, r3, r1
 800706a:	eb05 75d5 	add.w	r5, r5, r5, lsr #31
 800706e:	1c7b      	adds	r3, r7, #1
 8007070:	444b      	add	r3, r9
 8007072:	106d      	asrs	r5, r5, #1
 8007074:	429d      	cmp	r5, r3
 8007076:	bf38      	it	cc
 8007078:	461d      	movcc	r5, r3
 800707a:	0553      	lsls	r3, r2, #21
 800707c:	d527      	bpl.n	80070ce <__ssputs_r+0x8e>
 800707e:	4629      	mov	r1, r5
 8007080:	f7ff ff52 	bl	8006f28 <_malloc_r>
 8007084:	4606      	mov	r6, r0
 8007086:	b360      	cbz	r0, 80070e2 <__ssputs_r+0xa2>
 8007088:	464a      	mov	r2, r9
 800708a:	6921      	ldr	r1, [r4, #16]
 800708c:	f7ff fed4 	bl	8006e38 <memcpy>
 8007090:	89a3      	ldrh	r3, [r4, #12]
 8007092:	f423 6390 	bic.w	r3, r3, #1152	@ 0x480
 8007096:	f043 0380 	orr.w	r3, r3, #128	@ 0x80
 800709a:	81a3      	strh	r3, [r4, #12]
 800709c:	6126      	str	r6, [r4, #16]
 800709e:	444e      	add	r6, r9
 80070a0:	6026      	str	r6, [r4, #0]
 80070a2:	463e      	mov	r6, r7
 80070a4:	6165      	str	r5, [r4, #20]
 80070a6:	eba5 0509 	sub.w	r5, r5, r9
 80070aa:	60a5      	str	r5, [r4, #8]
 80070ac:	42be      	cmp	r6, r7
 80070ae:	d900      	bls.n	80070b2 <__ssputs_r+0x72>
 80070b0:	463e      	mov	r6, r7
 80070b2:	4632      	mov	r2, r6
 80070b4:	4641      	mov	r1, r8
 80070b6:	6820      	ldr	r0, [r4, #0]
 80070b8:	f000 faaa 	bl	8007610 <memmove>
 80070bc:	2000      	movs	r0, #0
 80070be:	68a3      	ldr	r3, [r4, #8]
 80070c0:	1b9b      	subs	r3, r3, r6
 80070c2:	60a3      	str	r3, [r4, #8]
 80070c4:	6823      	ldr	r3, [r4, #0]
 80070c6:	4433      	add	r3, r6
 80070c8:	6023      	str	r3, [r4, #0]
 80070ca:	e8bd 87f0 	ldmia.w	sp!, {r4, r5, r6, r7, r8, r9, sl, pc}
 80070ce:	462a      	mov	r2, r5
 80070d0:	f000 fad6 	bl	8007680 <_realloc_r>
 80070d4:	4606      	mov	r6, r0
 80070d6:	2800      	cmp	r0, #0
 80070d8:	d1e0      	bne.n	800709c <__ssputs_r+0x5c>
 80070da:	4650      	mov	r0, sl
 80070dc:	6921      	ldr	r1, [r4, #16]
 80070de:	f7ff feb9 	bl	8006e54 <_free_r>
 80070e2:	230c      	movs	r3, #12
 80070e4:	f8ca 3000 	str.w	r3, [sl]
 80070e8:	89a3      	ldrh	r3, [r4, #12]
 80070ea:	f04f 30ff 	mov.w	r0, #4294967295
 80070ee:	f043 0340 	orr.w	r3, r3, #64	@ 0x40
 80070f2:	81a3      	strh	r3, [r4, #12]
 80070f4:	e7e9      	b.n	80070ca <__ssputs_r+0x8a>
	...

080070f8 <_svfiprintf_r>:
 80070f8:	e92d 4ff0 	stmdb	sp!, {r4, r5, r6, r7, r8, r9, sl, fp, lr}
 80070fc:	4698      	mov	r8, r3
 80070fe:	898b      	ldrh	r3, [r1, #12]
 8007100:	4607      	mov	r7, r0
 8007102:	061b      	lsls	r3, r3, #24
 8007104:	460d      	mov	r5, r1
 8007106:	4614      	mov	r4, r2
 8007108:	b09d      	sub	sp, #116	@ 0x74
 800710a:	d510      	bpl.n	800712e <_svfiprintf_r+0x36>
 800710c:	690b      	ldr	r3, [r1, #16]
 800710e:	b973      	cbnz	r3, 800712e <_svfiprintf_r+0x36>
 8007110:	2140      	movs	r1, #64	@ 0x40
 8007112:	f7ff ff09 	bl	8006f28 <_malloc_r>
 8007116:	6028      	str	r0, [r5, #0]
 8007118:	6128      	str	r0, [r5, #16]
 800711a:	b930      	cbnz	r0, 800712a <_svfiprintf_r+0x32>
 800711c:	230c      	movs	r3, #12
 800711e:	603b      	str	r3, [r7, #0]
 8007120:	f04f 30ff 	mov.w	r0, #4294967295
 8007124:	b01d      	add	sp, #116	@ 0x74
 8007126:	e8bd 8ff0 	ldmia.w	sp!, {r4, r5, r6, r7, r8, r9, sl, fp, pc}
 800712a:	2340      	movs	r3, #64	@ 0x40
 800712c:	616b      	str	r3, [r5, #20]
 800712e:	2300      	movs	r3, #0
 8007130:	9309      	str	r3, [sp, #36]	@ 0x24
 8007132:	2320      	movs	r3, #32
 8007134:	f88d 3029 	strb.w	r3, [sp, #41]	@ 0x29
 8007138:	2330      	movs	r3, #48	@ 0x30
 800713a:	f04f 0901 	mov.w	r9, #1
 800713e:	f8cd 800c 	str.w	r8, [sp, #12]
 8007142:	f8df 8198 	ldr.w	r8, [pc, #408]	@ 80072dc <_svfiprintf_r+0x1e4>
 8007146:	f88d 302a 	strb.w	r3, [sp, #42]	@ 0x2a
 800714a:	4623      	mov	r3, r4
 800714c:	469a      	mov	sl, r3
 800714e:	f813 2b01 	ldrb.w	r2, [r3], #1
 8007152:	b10a      	cbz	r2, 8007158 <_svfiprintf_r+0x60>
 8007154:	2a25      	cmp	r2, #37	@ 0x25
 8007156:	d1f9      	bne.n	800714c <_svfiprintf_r+0x54>
 8007158:	ebba 0b04 	subs.w	fp, sl, r4
 800715c:	d00b      	beq.n	8007176 <_svfiprintf_r+0x7e>
 800715e:	465b      	mov	r3, fp
 8007160:	4622      	mov	r2, r4
 8007162:	4629      	mov	r1, r5
 8007164:	4638      	mov	r0, r7
 8007166:	f7ff ff6b 	bl	8007040 <__ssputs_r>
 800716a:	3001      	adds	r0, #1
 800716c:	f000 80a7 	beq.w	80072be <_svfiprintf_r+0x1c6>
 8007170:	9a09      	ldr	r2, [sp, #36]	@ 0x24
 8007172:	445a      	add	r2, fp
 8007174:	9209      	str	r2, [sp, #36]	@ 0x24
 8007176:	f89a 3000 	ldrb.w	r3, [sl]
 800717a:	2b00      	cmp	r3, #0
 800717c:	f000 809f 	beq.w	80072be <_svfiprintf_r+0x1c6>
 8007180:	2300      	movs	r3, #0
 8007182:	f04f 32ff 	mov.w	r2, #4294967295
 8007186:	e9cd 2305 	strd	r2, r3, [sp, #20]
 800718a:	f10a 0a01 	add.w	sl, sl, #1
 800718e:	9304      	str	r3, [sp, #16]
 8007190:	9307      	str	r3, [sp, #28]
 8007192:	f88d 3053 	strb.w	r3, [sp, #83]	@ 0x53
 8007196:	931a      	str	r3, [sp, #104]	@ 0x68
 8007198:	4654      	mov	r4, sl
 800719a:	2205      	movs	r2, #5
 800719c:	f814 1b01 	ldrb.w	r1, [r4], #1
 80071a0:	484e      	ldr	r0, [pc, #312]	@ (80072dc <_svfiprintf_r+0x1e4>)
 80071a2:	f000 fa5f 	bl	8007664 <memchr>
 80071a6:	9a04      	ldr	r2, [sp, #16]
 80071a8:	b9d8      	cbnz	r0, 80071e2 <_svfiprintf_r+0xea>
 80071aa:	06d0      	lsls	r0, r2, #27
 80071ac:	bf44      	itt	mi
 80071ae:	2320      	movmi	r3, #32
 80071b0:	f88d 3053 	strbmi.w	r3, [sp, #83]	@ 0x53
 80071b4:	0711      	lsls	r1, r2, #28
 80071b6:	bf44      	itt	mi
 80071b8:	232b      	movmi	r3, #43	@ 0x2b
 80071ba:	f88d 3053 	strbmi.w	r3, [sp, #83]	@ 0x53
 80071be:	f89a 3000 	ldrb.w	r3, [sl]
 80071c2:	2b2a      	cmp	r3, #42	@ 0x2a
 80071c4:	d015      	beq.n	80071f2 <_svfiprintf_r+0xfa>
 80071c6:	4654      	mov	r4, sl
 80071c8:	2000      	movs	r0, #0
 80071ca:	f04f 0c0a 	mov.w	ip, #10
 80071ce:	9a07      	ldr	r2, [sp, #28]
 80071d0:	4621      	mov	r1, r4
 80071d2:	f811 3b01 	ldrb.w	r3, [r1], #1
 80071d6:	3b30      	subs	r3, #48	@ 0x30
 80071d8:	2b09      	cmp	r3, #9
 80071da:	d94b      	bls.n	8007274 <_svfiprintf_r+0x17c>
 80071dc:	b1b0      	cbz	r0, 800720c <_svfiprintf_r+0x114>
 80071de:	9207      	str	r2, [sp, #28]
 80071e0:	e014      	b.n	800720c <_svfiprintf_r+0x114>
 80071e2:	eba0 0308 	sub.w	r3, r0, r8
 80071e6:	fa09 f303 	lsl.w	r3, r9, r3
 80071ea:	4313      	orrs	r3, r2
 80071ec:	46a2      	mov	sl, r4
 80071ee:	9304      	str	r3, [sp, #16]
 80071f0:	e7d2      	b.n	8007198 <_svfiprintf_r+0xa0>
 80071f2:	9b03      	ldr	r3, [sp, #12]
 80071f4:	1d19      	adds	r1, r3, #4
 80071f6:	681b      	ldr	r3, [r3, #0]
 80071f8:	9103      	str	r1, [sp, #12]
 80071fa:	2b00      	cmp	r3, #0
 80071fc:	bfbb      	ittet	lt
 80071fe:	425b      	neglt	r3, r3
 8007200:	f042 0202 	orrlt.w	r2, r2, #2
 8007204:	9307      	strge	r3, [sp, #28]
 8007206:	9307      	strlt	r3, [sp, #28]
 8007208:	bfb8      	it	lt
 800720a:	9204      	strlt	r2, [sp, #16]
 800720c:	7823      	ldrb	r3, [r4, #0]
 800720e:	2b2e      	cmp	r3, #46	@ 0x2e
 8007210:	d10a      	bne.n	8007228 <_svfiprintf_r+0x130>
 8007212:	7863      	ldrb	r3, [r4, #1]
 8007214:	2b2a      	cmp	r3, #42	@ 0x2a
 8007216:	d132      	bne.n	800727e <_svfiprintf_r+0x186>
 8007218:	9b03      	ldr	r3, [sp, #12]
 800721a:	3402      	adds	r4, #2
 800721c:	1d1a      	adds	r2, r3, #4
 800721e:	681b      	ldr	r3, [r3, #0]
 8007220:	9203      	str	r2, [sp, #12]
 8007222:	ea43 73e3 	orr.w	r3, r3, r3, asr #31
 8007226:	9305      	str	r3, [sp, #20]
 8007228:	f8df a0b4 	ldr.w	sl, [pc, #180]	@ 80072e0 <_svfiprintf_r+0x1e8>
 800722c:	2203      	movs	r2, #3
 800722e:	4650      	mov	r0, sl
 8007230:	7821      	ldrb	r1, [r4, #0]
 8007232:	f000 fa17 	bl	8007664 <memchr>
 8007236:	b138      	cbz	r0, 8007248 <_svfiprintf_r+0x150>
 8007238:	2240      	movs	r2, #64	@ 0x40
 800723a:	9b04      	ldr	r3, [sp, #16]
 800723c:	eba0 000a 	sub.w	r0, r0, sl
 8007240:	4082      	lsls	r2, r0
 8007242:	4313      	orrs	r3, r2
 8007244:	3401      	adds	r4, #1
 8007246:	9304      	str	r3, [sp, #16]
 8007248:	f814 1b01 	ldrb.w	r1, [r4], #1
 800724c:	2206      	movs	r2, #6
 800724e:	4825      	ldr	r0, [pc, #148]	@ (80072e4 <_svfiprintf_r+0x1ec>)
 8007250:	f88d 1028 	strb.w	r1, [sp, #40]	@ 0x28
 8007254:	f000 fa06 	bl	8007664 <memchr>
 8007258:	2800      	cmp	r0, #0
 800725a:	d036      	beq.n	80072ca <_svfiprintf_r+0x1d2>
 800725c:	4b22      	ldr	r3, [pc, #136]	@ (80072e8 <_svfiprintf_r+0x1f0>)
 800725e:	bb1b      	cbnz	r3, 80072a8 <_svfiprintf_r+0x1b0>
 8007260:	9b03      	ldr	r3, [sp, #12]
 8007262:	3307      	adds	r3, #7
 8007264:	f023 0307 	bic.w	r3, r3, #7
 8007268:	3308      	adds	r3, #8
 800726a:	9303      	str	r3, [sp, #12]
 800726c:	9b09      	ldr	r3, [sp, #36]	@ 0x24
 800726e:	4433      	add	r3, r6
 8007270:	9309      	str	r3, [sp, #36]	@ 0x24
 8007272:	e76a      	b.n	800714a <_svfiprintf_r+0x52>
 8007274:	460c      	mov	r4, r1
 8007276:	2001      	movs	r0, #1
 8007278:	fb0c 3202 	mla	r2, ip, r2, r3
 800727c:	e7a8      	b.n	80071d0 <_svfiprintf_r+0xd8>
 800727e:	2300      	movs	r3, #0
 8007280:	f04f 0c0a 	mov.w	ip, #10
 8007284:	4619      	mov	r1, r3
 8007286:	3401      	adds	r4, #1
 8007288:	9305      	str	r3, [sp, #20]
 800728a:	4620      	mov	r0, r4
 800728c:	f810 2b01 	ldrb.w	r2, [r0], #1
 8007290:	3a30      	subs	r2, #48	@ 0x30
 8007292:	2a09      	cmp	r2, #9
 8007294:	d903      	bls.n	800729e <_svfiprintf_r+0x1a6>
 8007296:	2b00      	cmp	r3, #0
 8007298:	d0c6      	beq.n	8007228 <_svfiprintf_r+0x130>
 800729a:	9105      	str	r1, [sp, #20]
 800729c:	e7c4      	b.n	8007228 <_svfiprintf_r+0x130>
 800729e:	4604      	mov	r4, r0
 80072a0:	2301      	movs	r3, #1
 80072a2:	fb0c 2101 	mla	r1, ip, r1, r2
 80072a6:	e7f0      	b.n	800728a <_svfiprintf_r+0x192>
 80072a8:	ab03      	add	r3, sp, #12
 80072aa:	9300      	str	r3, [sp, #0]
 80072ac:	462a      	mov	r2, r5
 80072ae:	4638      	mov	r0, r7
 80072b0:	4b0e      	ldr	r3, [pc, #56]	@ (80072ec <_svfiprintf_r+0x1f4>)
 80072b2:	a904      	add	r1, sp, #16
 80072b4:	f3af 8000 	nop.w
 80072b8:	1c42      	adds	r2, r0, #1
 80072ba:	4606      	mov	r6, r0
 80072bc:	d1d6      	bne.n	800726c <_svfiprintf_r+0x174>
 80072be:	89ab      	ldrh	r3, [r5, #12]
 80072c0:	065b      	lsls	r3, r3, #25
 80072c2:	f53f af2d 	bmi.w	8007120 <_svfiprintf_r+0x28>
 80072c6:	9809      	ldr	r0, [sp, #36]	@ 0x24
 80072c8:	e72c      	b.n	8007124 <_svfiprintf_r+0x2c>
 80072ca:	ab03      	add	r3, sp, #12
 80072cc:	9300      	str	r3, [sp, #0]
 80072ce:	462a      	mov	r2, r5
 80072d0:	4638      	mov	r0, r7
 80072d2:	4b06      	ldr	r3, [pc, #24]	@ (80072ec <_svfiprintf_r+0x1f4>)
 80072d4:	a904      	add	r1, sp, #16
 80072d6:	f000 f87d 	bl	80073d4 <_printf_i>
 80072da:	e7ed      	b.n	80072b8 <_svfiprintf_r+0x1c0>
 80072dc:	08007aff 	.word	0x08007aff
 80072e0:	08007b05 	.word	0x08007b05
 80072e4:	08007b09 	.word	0x08007b09
 80072e8:	00000000 	.word	0x00000000
 80072ec:	08007041 	.word	0x08007041

080072f0 <_printf_common>:
 80072f0:	e92d 47f0 	stmdb	sp!, {r4, r5, r6, r7, r8, r9, sl, lr}
 80072f4:	4616      	mov	r6, r2
 80072f6:	4698      	mov	r8, r3
 80072f8:	688a      	ldr	r2, [r1, #8]
 80072fa:	690b      	ldr	r3, [r1, #16]
 80072fc:	4607      	mov	r7, r0
 80072fe:	4293      	cmp	r3, r2
 8007300:	bfb8      	it	lt
 8007302:	4613      	movlt	r3, r2
 8007304:	6033      	str	r3, [r6, #0]
 8007306:	f891 2043 	ldrb.w	r2, [r1, #67]	@ 0x43
 800730a:	460c      	mov	r4, r1
 800730c:	f8dd 9020 	ldr.w	r9, [sp, #32]
 8007310:	b10a      	cbz	r2, 8007316 <_printf_common+0x26>
 8007312:	3301      	adds	r3, #1
 8007314:	6033      	str	r3, [r6, #0]
 8007316:	6823      	ldr	r3, [r4, #0]
 8007318:	0699      	lsls	r1, r3, #26
 800731a:	bf42      	ittt	mi
 800731c:	6833      	ldrmi	r3, [r6, #0]
 800731e:	3302      	addmi	r3, #2
 8007320:	6033      	strmi	r3, [r6, #0]
 8007322:	6825      	ldr	r5, [r4, #0]
 8007324:	f015 0506 	ands.w	r5, r5, #6
 8007328:	d106      	bne.n	8007338 <_printf_common+0x48>
 800732a:	f104 0a19 	add.w	sl, r4, #25
 800732e:	68e3      	ldr	r3, [r4, #12]
 8007330:	6832      	ldr	r2, [r6, #0]
 8007332:	1a9b      	subs	r3, r3, r2
 8007334:	42ab      	cmp	r3, r5
 8007336:	dc2b      	bgt.n	8007390 <_printf_common+0xa0>
 8007338:	f894 3043 	ldrb.w	r3, [r4, #67]	@ 0x43
 800733c:	6822      	ldr	r2, [r4, #0]
 800733e:	3b00      	subs	r3, #0
 8007340:	bf18      	it	ne
 8007342:	2301      	movne	r3, #1
 8007344:	0692      	lsls	r2, r2, #26
 8007346:	d430      	bmi.n	80073aa <_printf_common+0xba>
 8007348:	4641      	mov	r1, r8
 800734a:	4638      	mov	r0, r7
 800734c:	f104 0243 	add.w	r2, r4, #67	@ 0x43
 8007350:	47c8      	blx	r9
 8007352:	3001      	adds	r0, #1
 8007354:	d023      	beq.n	800739e <_printf_common+0xae>
 8007356:	6823      	ldr	r3, [r4, #0]
 8007358:	6922      	ldr	r2, [r4, #16]
 800735a:	f003 0306 	and.w	r3, r3, #6
 800735e:	2b04      	cmp	r3, #4
 8007360:	bf14      	ite	ne
 8007362:	2500      	movne	r5, #0
 8007364:	6833      	ldreq	r3, [r6, #0]
 8007366:	f04f 0600 	mov.w	r6, #0
 800736a:	bf08      	it	eq
 800736c:	68e5      	ldreq	r5, [r4, #12]
 800736e:	f104 041a 	add.w	r4, r4, #26
 8007372:	bf08      	it	eq
 8007374:	1aed      	subeq	r5, r5, r3
 8007376:	f854 3c12 	ldr.w	r3, [r4, #-18]
 800737a:	bf08      	it	eq
 800737c:	ea25 75e5 	biceq.w	r5, r5, r5, asr #31
 8007380:	4293      	cmp	r3, r2
 8007382:	bfc4      	itt	gt
 8007384:	1a9b      	subgt	r3, r3, r2
 8007386:	18ed      	addgt	r5, r5, r3
 8007388:	42b5      	cmp	r5, r6
 800738a:	d11a      	bne.n	80073c2 <_printf_common+0xd2>
 800738c:	2000      	movs	r0, #0
 800738e:	e008      	b.n	80073a2 <_printf_common+0xb2>
 8007390:	2301      	movs	r3, #1
 8007392:	4652      	mov	r2, sl
 8007394:	4641      	mov	r1, r8
 8007396:	4638      	mov	r0, r7
 8007398:	47c8      	blx	r9
 800739a:	3001      	adds	r0, #1
 800739c:	d103      	bne.n	80073a6 <_printf_common+0xb6>
 800739e:	f04f 30ff 	mov.w	r0, #4294967295
 80073a2:	e8bd 87f0 	ldmia.w	sp!, {r4, r5, r6, r7, r8, r9, sl, pc}
 80073a6:	3501      	adds	r5, #1
 80073a8:	e7c1      	b.n	800732e <_printf_common+0x3e>
 80073aa:	2030      	movs	r0, #48	@ 0x30
 80073ac:	18e1      	adds	r1, r4, r3
 80073ae:	f881 0043 	strb.w	r0, [r1, #67]	@ 0x43
 80073b2:	1c5a      	adds	r2, r3, #1
 80073b4:	f894 1045 	ldrb.w	r1, [r4, #69]	@ 0x45
 80073b8:	4422      	add	r2, r4
 80073ba:	3302      	adds	r3, #2
 80073bc:	f882 1043 	strb.w	r1, [r2, #67]	@ 0x43
 80073c0:	e7c2      	b.n	8007348 <_printf_common+0x58>
 80073c2:	2301      	movs	r3, #1
 80073c4:	4622      	mov	r2, r4
 80073c6:	4641      	mov	r1, r8
 80073c8:	4638      	mov	r0, r7
 80073ca:	47c8      	blx	r9
 80073cc:	3001      	adds	r0, #1
 80073ce:	d0e6      	beq.n	800739e <_printf_common+0xae>
 80073d0:	3601      	adds	r6, #1
 80073d2:	e7d9      	b.n	8007388 <_printf_common+0x98>

080073d4 <_printf_i>:
 80073d4:	e92d 47ff 	stmdb	sp!, {r0, r1, r2, r3, r4, r5, r6, r7, r8, r9, sl, lr}
 80073d8:	7e0f      	ldrb	r7, [r1, #24]
 80073da:	4691      	mov	r9, r2
 80073dc:	2f78      	cmp	r7, #120	@ 0x78
 80073de:	4680      	mov	r8, r0
 80073e0:	460c      	mov	r4, r1
 80073e2:	469a      	mov	sl, r3
 80073e4:	9e0c      	ldr	r6, [sp, #48]	@ 0x30
 80073e6:	f101 0243 	add.w	r2, r1, #67	@ 0x43
 80073ea:	d807      	bhi.n	80073fc <_printf_i+0x28>
 80073ec:	2f62      	cmp	r7, #98	@ 0x62
 80073ee:	d80a      	bhi.n	8007406 <_printf_i+0x32>
 80073f0:	2f00      	cmp	r7, #0
 80073f2:	f000 80d1 	beq.w	8007598 <_printf_i+0x1c4>
 80073f6:	2f58      	cmp	r7, #88	@ 0x58
 80073f8:	f000 80b8 	beq.w	800756c <_printf_i+0x198>
 80073fc:	f104 0642 	add.w	r6, r4, #66	@ 0x42
 8007400:	f884 7042 	strb.w	r7, [r4, #66]	@ 0x42
 8007404:	e03a      	b.n	800747c <_printf_i+0xa8>
 8007406:	f1a7 0363 	sub.w	r3, r7, #99	@ 0x63
 800740a:	2b15      	cmp	r3, #21
 800740c:	d8f6      	bhi.n	80073fc <_printf_i+0x28>
 800740e:	a101      	add	r1, pc, #4	@ (adr r1, 8007414 <_printf_i+0x40>)
 8007410:	f851 f023 	ldr.w	pc, [r1, r3, lsl #2]
 8007414:	0800746d 	.word	0x0800746d
 8007418:	08007481 	.word	0x08007481
 800741c:	080073fd 	.word	0x080073fd
 8007420:	080073fd 	.word	0x080073fd
 8007424:	080073fd 	.word	0x080073fd
 8007428:	080073fd 	.word	0x080073fd
 800742c:	08007481 	.word	0x08007481
 8007430:	080073fd 	.word	0x080073fd
 8007434:	080073fd 	.word	0x080073fd
 8007438:	080073fd 	.word	0x080073fd
 800743c:	080073fd 	.word	0x080073fd
 8007440:	0800757f 	.word	0x0800757f
 8007444:	080074ab 	.word	0x080074ab
 8007448:	08007539 	.word	0x08007539
 800744c:	080073fd 	.word	0x080073fd
 8007450:	080073fd 	.word	0x080073fd
 8007454:	080075a1 	.word	0x080075a1
 8007458:	080073fd 	.word	0x080073fd
 800745c:	080074ab 	.word	0x080074ab
 8007460:	080073fd 	.word	0x080073fd
 8007464:	080073fd 	.word	0x080073fd
 8007468:	08007541 	.word	0x08007541
 800746c:	6833      	ldr	r3, [r6, #0]
 800746e:	1d1a      	adds	r2, r3, #4
 8007470:	681b      	ldr	r3, [r3, #0]
 8007472:	6032      	str	r2, [r6, #0]
 8007474:	f104 0642 	add.w	r6, r4, #66	@ 0x42
 8007478:	f884 3042 	strb.w	r3, [r4, #66]	@ 0x42
 800747c:	2301      	movs	r3, #1
 800747e:	e09c      	b.n	80075ba <_printf_i+0x1e6>
 8007480:	6833      	ldr	r3, [r6, #0]
 8007482:	6820      	ldr	r0, [r4, #0]
 8007484:	1d19      	adds	r1, r3, #4
 8007486:	6031      	str	r1, [r6, #0]
 8007488:	0606      	lsls	r6, r0, #24
 800748a:	d501      	bpl.n	8007490 <_printf_i+0xbc>
 800748c:	681d      	ldr	r5, [r3, #0]
 800748e:	e003      	b.n	8007498 <_printf_i+0xc4>
 8007490:	0645      	lsls	r5, r0, #25
 8007492:	d5fb      	bpl.n	800748c <_printf_i+0xb8>
 8007494:	f9b3 5000 	ldrsh.w	r5, [r3]
 8007498:	2d00      	cmp	r5, #0
 800749a:	da03      	bge.n	80074a4 <_printf_i+0xd0>
 800749c:	232d      	movs	r3, #45	@ 0x2d
 800749e:	426d      	negs	r5, r5
 80074a0:	f884 3043 	strb.w	r3, [r4, #67]	@ 0x43
 80074a4:	230a      	movs	r3, #10
 80074a6:	4858      	ldr	r0, [pc, #352]	@ (8007608 <_printf_i+0x234>)
 80074a8:	e011      	b.n	80074ce <_printf_i+0xfa>
 80074aa:	6821      	ldr	r1, [r4, #0]
 80074ac:	6833      	ldr	r3, [r6, #0]
 80074ae:	0608      	lsls	r0, r1, #24
 80074b0:	f853 5b04 	ldr.w	r5, [r3], #4
 80074b4:	d402      	bmi.n	80074bc <_printf_i+0xe8>
 80074b6:	0649      	lsls	r1, r1, #25
 80074b8:	bf48      	it	mi
 80074ba:	b2ad      	uxthmi	r5, r5
 80074bc:	2f6f      	cmp	r7, #111	@ 0x6f
 80074be:	6033      	str	r3, [r6, #0]
 80074c0:	bf14      	ite	ne
 80074c2:	230a      	movne	r3, #10
 80074c4:	2308      	moveq	r3, #8
 80074c6:	4850      	ldr	r0, [pc, #320]	@ (8007608 <_printf_i+0x234>)
 80074c8:	2100      	movs	r1, #0
 80074ca:	f884 1043 	strb.w	r1, [r4, #67]	@ 0x43
 80074ce:	6866      	ldr	r6, [r4, #4]
 80074d0:	2e00      	cmp	r6, #0
 80074d2:	60a6      	str	r6, [r4, #8]
 80074d4:	db05      	blt.n	80074e2 <_printf_i+0x10e>
 80074d6:	6821      	ldr	r1, [r4, #0]
 80074d8:	432e      	orrs	r6, r5
 80074da:	f021 0104 	bic.w	r1, r1, #4
 80074de:	6021      	str	r1, [r4, #0]
 80074e0:	d04b      	beq.n	800757a <_printf_i+0x1a6>
 80074e2:	4616      	mov	r6, r2
 80074e4:	fbb5 f1f3 	udiv	r1, r5, r3
 80074e8:	fb03 5711 	mls	r7, r3, r1, r5
 80074ec:	5dc7      	ldrb	r7, [r0, r7]
 80074ee:	f806 7d01 	strb.w	r7, [r6, #-1]!
 80074f2:	462f      	mov	r7, r5
 80074f4:	42bb      	cmp	r3, r7
 80074f6:	460d      	mov	r5, r1
 80074f8:	d9f4      	bls.n	80074e4 <_printf_i+0x110>
 80074fa:	2b08      	cmp	r3, #8
 80074fc:	d10b      	bne.n	8007516 <_printf_i+0x142>
 80074fe:	6823      	ldr	r3, [r4, #0]
 8007500:	07df      	lsls	r7, r3, #31
 8007502:	d508      	bpl.n	8007516 <_printf_i+0x142>
 8007504:	6923      	ldr	r3, [r4, #16]
 8007506:	6861      	ldr	r1, [r4, #4]
 8007508:	4299      	cmp	r1, r3
 800750a:	bfde      	ittt	le
 800750c:	2330      	movle	r3, #48	@ 0x30
 800750e:	f806 3c01 	strble.w	r3, [r6, #-1]
 8007512:	f106 36ff 	addle.w	r6, r6, #4294967295
 8007516:	1b92      	subs	r2, r2, r6
 8007518:	6122      	str	r2, [r4, #16]
 800751a:	464b      	mov	r3, r9
 800751c:	4621      	mov	r1, r4
 800751e:	4640      	mov	r0, r8
 8007520:	f8cd a000 	str.w	sl, [sp]
 8007524:	aa03      	add	r2, sp, #12
 8007526:	f7ff fee3 	bl	80072f0 <_printf_common>
 800752a:	3001      	adds	r0, #1
 800752c:	d14a      	bne.n	80075c4 <_printf_i+0x1f0>
 800752e:	f04f 30ff 	mov.w	r0, #4294967295
 8007532:	b004      	add	sp, #16
 8007534:	e8bd 87f0 	ldmia.w	sp!, {r4, r5, r6, r7, r8, r9, sl, pc}
 8007538:	6823      	ldr	r3, [r4, #0]
 800753a:	f043 0320 	orr.w	r3, r3, #32
 800753e:	6023      	str	r3, [r4, #0]
 8007540:	2778      	movs	r7, #120	@ 0x78
 8007542:	4832      	ldr	r0, [pc, #200]	@ (800760c <_printf_i+0x238>)
 8007544:	f884 7045 	strb.w	r7, [r4, #69]	@ 0x45
 8007548:	6823      	ldr	r3, [r4, #0]
 800754a:	6831      	ldr	r1, [r6, #0]
 800754c:	061f      	lsls	r7, r3, #24
 800754e:	f851 5b04 	ldr.w	r5, [r1], #4
 8007552:	d402      	bmi.n	800755a <_printf_i+0x186>
 8007554:	065f      	lsls	r7, r3, #25
 8007556:	bf48      	it	mi
 8007558:	b2ad      	uxthmi	r5, r5
 800755a:	6031      	str	r1, [r6, #0]
 800755c:	07d9      	lsls	r1, r3, #31
 800755e:	bf44      	itt	mi
 8007560:	f043 0320 	orrmi.w	r3, r3, #32
 8007564:	6023      	strmi	r3, [r4, #0]
 8007566:	b11d      	cbz	r5, 8007570 <_printf_i+0x19c>
 8007568:	2310      	movs	r3, #16
 800756a:	e7ad      	b.n	80074c8 <_printf_i+0xf4>
 800756c:	4826      	ldr	r0, [pc, #152]	@ (8007608 <_printf_i+0x234>)
 800756e:	e7e9      	b.n	8007544 <_printf_i+0x170>
 8007570:	6823      	ldr	r3, [r4, #0]
 8007572:	f023 0320 	bic.w	r3, r3, #32
 8007576:	6023      	str	r3, [r4, #0]
 8007578:	e7f6      	b.n	8007568 <_printf_i+0x194>
 800757a:	4616      	mov	r6, r2
 800757c:	e7bd      	b.n	80074fa <_printf_i+0x126>
 800757e:	6833      	ldr	r3, [r6, #0]
 8007580:	6825      	ldr	r5, [r4, #0]
 8007582:	1d18      	adds	r0, r3, #4
 8007584:	6961      	ldr	r1, [r4, #20]
 8007586:	6030      	str	r0, [r6, #0]
 8007588:	062e      	lsls	r6, r5, #24
 800758a:	681b      	ldr	r3, [r3, #0]
 800758c:	d501      	bpl.n	8007592 <_printf_i+0x1be>
 800758e:	6019      	str	r1, [r3, #0]
 8007590:	e002      	b.n	8007598 <_printf_i+0x1c4>
 8007592:	0668      	lsls	r0, r5, #25
 8007594:	d5fb      	bpl.n	800758e <_printf_i+0x1ba>
 8007596:	8019      	strh	r1, [r3, #0]
 8007598:	2300      	movs	r3, #0
 800759a:	4616      	mov	r6, r2
 800759c:	6123      	str	r3, [r4, #16]
 800759e:	e7bc      	b.n	800751a <_printf_i+0x146>
 80075a0:	6833      	ldr	r3, [r6, #0]
 80075a2:	2100      	movs	r1, #0
 80075a4:	1d1a      	adds	r2, r3, #4
 80075a6:	6032      	str	r2, [r6, #0]
 80075a8:	681e      	ldr	r6, [r3, #0]
 80075aa:	6862      	ldr	r2, [r4, #4]
 80075ac:	4630      	mov	r0, r6
 80075ae:	f000 f859 	bl	8007664 <memchr>
 80075b2:	b108      	cbz	r0, 80075b8 <_printf_i+0x1e4>
 80075b4:	1b80      	subs	r0, r0, r6
 80075b6:	6060      	str	r0, [r4, #4]
 80075b8:	6863      	ldr	r3, [r4, #4]
 80075ba:	6123      	str	r3, [r4, #16]
 80075bc:	2300      	movs	r3, #0
 80075be:	f884 3043 	strb.w	r3, [r4, #67]	@ 0x43
 80075c2:	e7aa      	b.n	800751a <_printf_i+0x146>
 80075c4:	4632      	mov	r2, r6
 80075c6:	4649      	mov	r1, r9
 80075c8:	4640      	mov	r0, r8
 80075ca:	6923      	ldr	r3, [r4, #16]
 80075cc:	47d0      	blx	sl
 80075ce:	3001      	adds	r0, #1
 80075d0:	d0ad      	beq.n	800752e <_printf_i+0x15a>
 80075d2:	6823      	ldr	r3, [r4, #0]
 80075d4:	079b      	lsls	r3, r3, #30
 80075d6:	d413      	bmi.n	8007600 <_printf_i+0x22c>
 80075d8:	68e0      	ldr	r0, [r4, #12]
 80075da:	9b03      	ldr	r3, [sp, #12]
 80075dc:	4298      	cmp	r0, r3
 80075de:	bfb8      	it	lt
 80075e0:	4618      	movlt	r0, r3
 80075e2:	e7a6      	b.n	8007532 <_printf_i+0x15e>
 80075e4:	2301      	movs	r3, #1
 80075e6:	4632      	mov	r2, r6
 80075e8:	4649      	mov	r1, r9
 80075ea:	4640      	mov	r0, r8
 80075ec:	47d0      	blx	sl
 80075ee:	3001      	adds	r0, #1
 80075f0:	d09d      	beq.n	800752e <_printf_i+0x15a>
 80075f2:	3501      	adds	r5, #1
 80075f4:	68e3      	ldr	r3, [r4, #12]
 80075f6:	9903      	ldr	r1, [sp, #12]
 80075f8:	1a5b      	subs	r3, r3, r1
 80075fa:	42ab      	cmp	r3, r5
 80075fc:	dcf2      	bgt.n	80075e4 <_printf_i+0x210>
 80075fe:	e7eb      	b.n	80075d8 <_printf_i+0x204>
 8007600:	2500      	movs	r5, #0
 8007602:	f104 0619 	add.w	r6, r4, #25
 8007606:	e7f5      	b.n	80075f4 <_printf_i+0x220>
 8007608:	08007b10 	.word	0x08007b10
 800760c:	08007b21 	.word	0x08007b21

08007610 <memmove>:
 8007610:	4288      	cmp	r0, r1
 8007612:	b510      	push	{r4, lr}
 8007614:	eb01 0402 	add.w	r4, r1, r2
 8007618:	d902      	bls.n	8007620 <memmove+0x10>
 800761a:	4284      	cmp	r4, r0
 800761c:	4623      	mov	r3, r4
 800761e:	d807      	bhi.n	8007630 <memmove+0x20>
 8007620:	1e43      	subs	r3, r0, #1
 8007622:	42a1      	cmp	r1, r4
 8007624:	d008      	beq.n	8007638 <memmove+0x28>
 8007626:	f811 2b01 	ldrb.w	r2, [r1], #1
 800762a:	f803 2f01 	strb.w	r2, [r3, #1]!
 800762e:	e7f8      	b.n	8007622 <memmove+0x12>
 8007630:	4601      	mov	r1, r0
 8007632:	4402      	add	r2, r0
 8007634:	428a      	cmp	r2, r1
 8007636:	d100      	bne.n	800763a <memmove+0x2a>
 8007638:	bd10      	pop	{r4, pc}
 800763a:	f813 4d01 	ldrb.w	r4, [r3, #-1]!
 800763e:	f802 4d01 	strb.w	r4, [r2, #-1]!
 8007642:	e7f7      	b.n	8007634 <memmove+0x24>

08007644 <_sbrk_r>:
 8007644:	b538      	push	{r3, r4, r5, lr}
 8007646:	2300      	movs	r3, #0
 8007648:	4d05      	ldr	r5, [pc, #20]	@ (8007660 <_sbrk_r+0x1c>)
 800764a:	4604      	mov	r4, r0
 800764c:	4608      	mov	r0, r1
 800764e:	602b      	str	r3, [r5, #0]
 8007650:	f7fb fb64 	bl	8002d1c <_sbrk>
 8007654:	1c43      	adds	r3, r0, #1
 8007656:	d102      	bne.n	800765e <_sbrk_r+0x1a>
 8007658:	682b      	ldr	r3, [r5, #0]
 800765a:	b103      	cbz	r3, 800765e <_sbrk_r+0x1a>
 800765c:	6023      	str	r3, [r4, #0]
 800765e:	bd38      	pop	{r3, r4, r5, pc}
 8007660:	200015bc 	.word	0x200015bc

08007664 <memchr>:
 8007664:	4603      	mov	r3, r0
 8007666:	b510      	push	{r4, lr}
 8007668:	b2c9      	uxtb	r1, r1
 800766a:	4402      	add	r2, r0
 800766c:	4293      	cmp	r3, r2
 800766e:	4618      	mov	r0, r3
 8007670:	d101      	bne.n	8007676 <memchr+0x12>
 8007672:	2000      	movs	r0, #0
 8007674:	e003      	b.n	800767e <memchr+0x1a>
 8007676:	7804      	ldrb	r4, [r0, #0]
 8007678:	3301      	adds	r3, #1
 800767a:	428c      	cmp	r4, r1
 800767c:	d1f6      	bne.n	800766c <memchr+0x8>
 800767e:	bd10      	pop	{r4, pc}

08007680 <_realloc_r>:
 8007680:	e92d 41f0 	stmdb	sp!, {r4, r5, r6, r7, r8, lr}
 8007684:	4607      	mov	r7, r0
 8007686:	4614      	mov	r4, r2
 8007688:	460d      	mov	r5, r1
 800768a:	b921      	cbnz	r1, 8007696 <_realloc_r+0x16>
 800768c:	4611      	mov	r1, r2
 800768e:	e8bd 41f0 	ldmia.w	sp!, {r4, r5, r6, r7, r8, lr}
 8007692:	f7ff bc49 	b.w	8006f28 <_malloc_r>
 8007696:	b92a      	cbnz	r2, 80076a4 <_realloc_r+0x24>
 8007698:	f7ff fbdc 	bl	8006e54 <_free_r>
 800769c:	4625      	mov	r5, r4
 800769e:	4628      	mov	r0, r5
 80076a0:	e8bd 81f0 	ldmia.w	sp!, {r4, r5, r6, r7, r8, pc}
 80076a4:	f000 f81a 	bl	80076dc <_malloc_usable_size_r>
 80076a8:	4284      	cmp	r4, r0
 80076aa:	4606      	mov	r6, r0
 80076ac:	d802      	bhi.n	80076b4 <_realloc_r+0x34>
 80076ae:	ebb4 0f50 	cmp.w	r4, r0, lsr #1
 80076b2:	d8f4      	bhi.n	800769e <_realloc_r+0x1e>
 80076b4:	4621      	mov	r1, r4
 80076b6:	4638      	mov	r0, r7
 80076b8:	f7ff fc36 	bl	8006f28 <_malloc_r>
 80076bc:	4680      	mov	r8, r0
 80076be:	b908      	cbnz	r0, 80076c4 <_realloc_r+0x44>
 80076c0:	4645      	mov	r5, r8
 80076c2:	e7ec      	b.n	800769e <_realloc_r+0x1e>
 80076c4:	42b4      	cmp	r4, r6
 80076c6:	4622      	mov	r2, r4
 80076c8:	4629      	mov	r1, r5
 80076ca:	bf28      	it	cs
 80076cc:	4632      	movcs	r2, r6
 80076ce:	f7ff fbb3 	bl	8006e38 <memcpy>
 80076d2:	4629      	mov	r1, r5
 80076d4:	4638      	mov	r0, r7
 80076d6:	f7ff fbbd 	bl	8006e54 <_free_r>
 80076da:	e7f1      	b.n	80076c0 <_realloc_r+0x40>

080076dc <_malloc_usable_size_r>:
 80076dc:	f851 3c04 	ldr.w	r3, [r1, #-4]
 80076e0:	1f18      	subs	r0, r3, #4
 80076e2:	2b00      	cmp	r3, #0
 80076e4:	bfbc      	itt	lt
 80076e6:	580b      	ldrlt	r3, [r1, r0]
 80076e8:	18c0      	addlt	r0, r0, r3
 80076ea:	4770      	bx	lr

080076ec <_init>:
 80076ec:	b5f8      	push	{r3, r4, r5, r6, r7, lr}
 80076ee:	bf00      	nop
 80076f0:	bcf8      	pop	{r3, r4, r5, r6, r7}
 80076f2:	bc08      	pop	{r3}
 80076f4:	469e      	mov	lr, r3
 80076f6:	4770      	bx	lr

080076f8 <_fini>:
 80076f8:	b5f8      	push	{r3, r4, r5, r6, r7, lr}
 80076fa:	bf00      	nop
 80076fc:	bcf8      	pop	{r3, r4, r5, r6, r7}
 80076fe:	bc08      	pop	{r3}
 8007700:	469e      	mov	lr, r3
 8007702:	4770      	bx	lr
